
Allocating common symbols
Common symbol       size              file

io                  0x10              src/io.o

Memory Configuration

Name             Origin             Length             Attributes
IO               0x0000000080000000 0x0000000000000100 rw !x
MEM              0x0000000000000000 0x0000000000011990 xrw
*default*        0x0000000000000000 0xffffffffffffffff

Linker script and memory map


.io             0x0000000080000000       0x10
 src/io.o(COMMON)
 COMMON         0x0000000080000000       0x10 src/io.o
                0x0000000080000000                io

.text           0x0000000000000000     0x81f0
 src/boot.o(.text)
 .text          0x0000000000000000       0x74 src/boot.o
                0x0000000000000000                boot
 src/io.o(.text)
 .text          0x0000000000000074       0xd0 src/io.o
                0x0000000000000074                board_name
 src/stdio.o(.text)
 .text          0x0000000000000144      0x740 src/stdio.o
                0x0000000000000144                getchar
                0x0000000000000164                putchar
                0x00000000000001a4                gets
                0x000000000000026c                putstr
                0x00000000000002ac                puts
                0x00000000000002c8                putdx
                0x00000000000003c0                putx
                0x00000000000003c8                putd
                0x00000000000003d0                printf
                0x00000000000004cc                strncmp
                0x0000000000000500                strcmp
                0x0000000000000508                strlen
                0x0000000000000528                memcpy
                0x000000000000054c                memset
                0x0000000000000568                strtok
                0x0000000000000608                atoi
                0x000000000000065c                xtoi
                0x000000000000069c                mac
                0x00000000000006a4                __umulsi3
                0x00000000000006d8                __mulsi3
                0x0000000000000728                __udiv_umod_si3
                0x000000000000077c                __udivsi3
                0x0000000000000784                __umodsi3
                0x000000000000078c                __div_mod_si3
                0x0000000000000810                __divsi3
                0x0000000000000818                __modsi3
                0x0000000000000820                usleep
 src/banner.o(.text)
 .text          0x0000000000000884       0x70 src/banner.o
                0x0000000000000884                banner
 src/main.o(.text)
 .text          0x00000000000008f4       0x24 src/main.o
                0x00000000000008f4                success
                0x0000000000000900                failure
                0x000000000000090c                OK
 src/tests/start.o(.text)
 .text          0x0000000000000918      0x1bc src/tests/start.o
                0x000000000000091c                start
                0x00000000000009a0                lui_ret
                0x00000000000009a8                auipc_ret
                0x00000000000009b0                j_ret
                0x00000000000009b8                jal_ret
                0x00000000000009c0                jalr_ret
                0x00000000000009c8                beq_ret
                0x00000000000009d0                bne_ret
                0x00000000000009d8                blt_ret
                0x00000000000009e0                bge_ret
                0x00000000000009e8                bltu_ret
                0x00000000000009f0                bgeu_ret
                0x00000000000009f8                lb_ret
                0x0000000000000a00                lh_ret
                0x0000000000000a08                lw_ret
                0x0000000000000a10                lbu_ret
                0x0000000000000a18                lhu_ret
                0x0000000000000a20                sb_ret
                0x0000000000000a28                sh_ret
                0x0000000000000a30                sw_ret
                0x0000000000000a38                addi_ret
                0x0000000000000a40                slti_ret
                0x0000000000000a48                xori_ret
                0x0000000000000a50                ori_ret
                0x0000000000000a58                andi_ret
                0x0000000000000a60                slli_ret
                0x0000000000000a68                srli_ret
                0x0000000000000a70                srai_ret
                0x0000000000000a78                add_ret
                0x0000000000000a80                sub_ret
                0x0000000000000a88                sll_ret
                0x0000000000000a90                slt_ret
                0x0000000000000a98                xor_ret
                0x0000000000000aa0                srl_ret
                0x0000000000000aa8                sra_ret
                0x0000000000000ab0                or_ret
                0x0000000000000ab8                and_ret
                0x0000000000000ac0                simple_ret
 *(.text)
 .text          0x0000000000000ad4      0x50c src/tests/RV32I/or.o
                0x0000000000000ad4                mytest
 .text          0x0000000000000fe0      0x508 src/tests/RV32I/xor.o
 .text          0x00000000000014e8      0x508 src/tests/RV32I/sub.o
 .text          0x00000000000019f0      0x5b4 src/tests/RV32I/sll.o
 .text          0x0000000000001fa4      0x2b4 src/tests/RV32I/lh.o
 .text          0x0000000000002258      0x368 src/tests/RV32I/bge.o
 .text          0x00000000000025c0      0x300 src/tests/RV32I/srai.o
 .text          0x00000000000028c0      0x294 src/tests/RV32I/lb.o
 .text          0x0000000000002b54      0x2fc src/tests/RV32I/srli.o
 .text          0x0000000000002e50      0x4cc src/tests/RV32I/sw.o
 .text          0x000000000000331c      0x2d4 src/tests/RV32I/lw.o
 .text          0x00000000000035f0      0x308 src/tests/RV32I/beq.o
 *fill*         0x00000000000038f8        0x0 
 .text          0x00000000000038f8       0x90 src/tests/RV32I/auipc.o
 .text          0x0000000000003988      0x2d0 src/tests/RV32I/addi.o
 .text          0x0000000000003c58      0x148 src/tests/RV32I/jalr.o
 .text          0x0000000000003da0      0x30c src/tests/RV32I/bne.o
 .text          0x00000000000040ac      0x22c src/tests/RV32I/xori.o
 .text          0x00000000000042d8      0x39c src/tests/RV32I/bgeu.o
 .text          0x0000000000004674      0x2bc src/tests/RV32I/slti.o
 .text          0x0000000000004930      0x510 src/tests/RV32I/slt.o
 .text          0x0000000000004e40      0x294 src/tests/RV32I/lbu.o
 .text          0x00000000000050d4      0x2c8 src/tests/RV32I/lhu.o
 .text          0x000000000000539c      0x4c0 src/tests/RV32I/sh.o
 .text          0x000000000000585c       0xa8 src/tests/RV32I/lui.o
 .text          0x0000000000005904      0x33c src/tests/RV32I/bltu.o
 .text          0x0000000000005c40       0x40 src/tests/RV32I/simple.o
 .text          0x0000000000005c80      0x5e4 src/tests/RV32I/sra.o
 .text          0x0000000000006264      0x2cc src/tests/RV32I/slli.o
 .text          0x0000000000006530      0x500 src/tests/RV32I/and.o
 .text          0x0000000000006a30      0x224 src/tests/RV32I/ori.o
 .text          0x0000000000006c54      0x604 src/tests/RV32I/srl.o
 .text          0x0000000000007258       0xa0 src/tests/RV32I/jal.o
 .text          0x00000000000072f8      0x528 src/tests/RV32I/add.o
 .text          0x0000000000007820      0x43c src/tests/RV32I/sb.o
 .text          0x0000000000007c5c      0x208 src/tests/RV32I/andi.o
 .text          0x0000000000007e64       0x84 src/tests/RV32I/j.o
 .text          0x0000000000007ee8      0x308 src/tests/RV32I/blt.o
                0x00000000000081f0                end = .
                0x00000000000081f0                . = ALIGN (0x4)

.text.startup   0x00000000000081f0       0x70
 .text.startup  0x00000000000081f0       0x70 src/main.o
                0x00000000000081f0                main

.data           0x0000000000008260      0x364
 *(.sbss)
 .sbss          0x0000000000008260        0x8 src/io.o
                0x0000000000008260                utimers
                0x0000000000008264                threads
 .sbss          0x0000000000008268        0x4 src/stdio.o
 *(.rodata*)
 .rodata.str1.4
                0x000000000000826c       0xe0 src/io.o
 .rodata.str1.4
                0x000000000000834c       0x19 src/stdio.o
 *fill*         0x0000000000008365        0x3 
 .rodata        0x0000000000008368       0x40 src/stdio.o
 .rodata.str1.4
                0x00000000000083a8      0x10d src/banner.o
 *fill*         0x00000000000084b5        0x3 
 .rodata.str1.4
                0x00000000000084b8       0x9a src/main.o
 *(.data)
 .data          0x0000000000008552        0x0 src/io.o
 .data          0x0000000000008552        0x0 src/boot.o
 .data          0x0000000000008552        0x0 src/stdio.o
 .data          0x0000000000008552        0x0 src/banner.o
 .data          0x0000000000008552        0x0 src/main.o
 .data          0x0000000000008552        0x0 src/tests/start.o
 *fill*         0x0000000000008552        0x2 
 .data          0x0000000000008554        0x0 src/tests/RV32I/or.o
 .data          0x0000000000008554        0x0 src/tests/RV32I/xor.o
 .data          0x0000000000008554        0x0 src/tests/RV32I/sub.o
 .data          0x0000000000008554        0x0 src/tests/RV32I/sll.o
 .data          0x0000000000008554        0x8 src/tests/RV32I/lh.o
 .data          0x000000000000855c        0x0 src/tests/RV32I/bge.o
 .data          0x000000000000855c        0x0 src/tests/RV32I/srai.o
 .data          0x000000000000855c        0x4 src/tests/RV32I/lb.o
 .data          0x0000000000008560        0x0 src/tests/RV32I/srli.o
 .data          0x0000000000008560       0x28 src/tests/RV32I/sw.o
 .data          0x0000000000008588       0x10 src/tests/RV32I/lw.o
 .data          0x0000000000008598        0x0 src/tests/RV32I/beq.o
 .data          0x0000000000008598        0x0 src/tests/RV32I/auipc.o
 .data          0x0000000000008598        0x0 src/tests/RV32I/addi.o
 .data          0x0000000000008598        0x0 src/tests/RV32I/jalr.o
 .data          0x0000000000008598        0x0 src/tests/RV32I/bne.o
 .data          0x0000000000008598        0x0 src/tests/RV32I/xori.o
 .data          0x0000000000008598        0x0 src/tests/RV32I/bgeu.o
 .data          0x0000000000008598        0x0 src/tests/RV32I/slti.o
 .data          0x0000000000008598        0x0 src/tests/RV32I/slt.o
 .data          0x0000000000008598        0x4 src/tests/RV32I/lbu.o
 .data          0x000000000000859c        0x8 src/tests/RV32I/lhu.o
 .data          0x00000000000085a4       0x14 src/tests/RV32I/sh.o
 .data          0x00000000000085b8        0x0 src/tests/RV32I/lui.o
 .data          0x00000000000085b8        0x0 src/tests/RV32I/bltu.o
 .data          0x00000000000085b8        0x0 src/tests/RV32I/simple.o
 .data          0x00000000000085b8        0x0 src/tests/RV32I/sra.o
 .data          0x00000000000085b8        0x0 src/tests/RV32I/slli.o
 .data          0x00000000000085b8        0x0 src/tests/RV32I/and.o
 .data          0x00000000000085b8        0x0 src/tests/RV32I/ori.o
 .data          0x00000000000085b8        0x0 src/tests/RV32I/srl.o
 .data          0x00000000000085b8        0x0 src/tests/RV32I/jal.o
 .data          0x00000000000085b8        0x0 src/tests/RV32I/add.o
 .data          0x00000000000085b8        0xa src/tests/RV32I/sb.o
 *fill*         0x00000000000085c2        0x2 
 .data          0x00000000000085c4        0x0 src/tests/RV32I/andi.o
 .data          0x00000000000085c4        0x0 src/tests/RV32I/j.o
 .data          0x00000000000085c4        0x0 src/tests/RV32I/blt.o
 *(.bss)
 .bss           0x00000000000085c4        0x0 src/io.o
 .bss           0x00000000000085c4        0x0 src/boot.o
 .bss           0x00000000000085c4        0x0 src/stdio.o
 .bss           0x00000000000085c4        0x0 src/banner.o
 .bss           0x00000000000085c4        0x0 src/main.o
 .bss           0x00000000000085c4        0x0 src/tests/start.o
 .bss           0x00000000000085c4        0x0 src/tests/RV32I/or.o
 .bss           0x00000000000085c4        0x0 src/tests/RV32I/xor.o
 .bss           0x00000000000085c4        0x0 src/tests/RV32I/sub.o
 .bss           0x00000000000085c4        0x0 src/tests/RV32I/sll.o
 .bss           0x00000000000085c4        0x0 src/tests/RV32I/lh.o
 .bss           0x00000000000085c4        0x0 src/tests/RV32I/bge.o
 .bss           0x00000000000085c4        0x0 src/tests/RV32I/srai.o
 .bss           0x00000000000085c4        0x0 src/tests/RV32I/lb.o
 .bss           0x00000000000085c4        0x0 src/tests/RV32I/srli.o
 .bss           0x00000000000085c4        0x0 src/tests/RV32I/sw.o
 .bss           0x00000000000085c4        0x0 src/tests/RV32I/lw.o
 .bss           0x00000000000085c4        0x0 src/tests/RV32I/beq.o
 .bss           0x00000000000085c4        0x0 src/tests/RV32I/auipc.o
 .bss           0x00000000000085c4        0x0 src/tests/RV32I/addi.o
 .bss           0x00000000000085c4        0x0 src/tests/RV32I/jalr.o
 .bss           0x00000000000085c4        0x0 src/tests/RV32I/bne.o
 .bss           0x00000000000085c4        0x0 src/tests/RV32I/xori.o
 .bss           0x00000000000085c4        0x0 src/tests/RV32I/bgeu.o
 .bss           0x00000000000085c4        0x0 src/tests/RV32I/slti.o
 .bss           0x00000000000085c4        0x0 src/tests/RV32I/slt.o
 .bss           0x00000000000085c4        0x0 src/tests/RV32I/lbu.o
 .bss           0x00000000000085c4        0x0 src/tests/RV32I/lhu.o
 .bss           0x00000000000085c4        0x0 src/tests/RV32I/sh.o
 .bss           0x00000000000085c4        0x0 src/tests/RV32I/lui.o
 .bss           0x00000000000085c4        0x0 src/tests/RV32I/bltu.o
 .bss           0x00000000000085c4        0x0 src/tests/RV32I/simple.o
 .bss           0x00000000000085c4        0x0 src/tests/RV32I/sra.o
 .bss           0x00000000000085c4        0x0 src/tests/RV32I/slli.o
 .bss           0x00000000000085c4        0x0 src/tests/RV32I/and.o
 .bss           0x00000000000085c4        0x0 src/tests/RV32I/ori.o
 .bss           0x00000000000085c4        0x0 src/tests/RV32I/srl.o
 .bss           0x00000000000085c4        0x0 src/tests/RV32I/jal.o
 .bss           0x00000000000085c4        0x0 src/tests/RV32I/add.o
 .bss           0x00000000000085c4        0x0 src/tests/RV32I/sb.o
 .bss           0x00000000000085c4        0x0 src/tests/RV32I/andi.o
 .bss           0x00000000000085c4        0x0 src/tests/RV32I/j.o
 .bss           0x00000000000085c4        0x0 src/tests/RV32I/blt.o
 *(.rela*)
 .rela.text     0x00000000000085c4        0x0 src/io.o
 *(COMMON)
LOAD src/boot.o
LOAD src/stdio.o
LOAD src/main.o
LOAD src/io.o
LOAD src/banner.o
LOAD src/tests/start.o
LOAD src/tests/RV32I/or.o
LOAD src/tests/RV32I/xor.o
LOAD src/tests/RV32I/sub.o
LOAD src/tests/RV32I/sll.o
LOAD src/tests/RV32I/lh.o
LOAD src/tests/RV32I/bge.o
LOAD src/tests/RV32I/srai.o
LOAD src/tests/RV32I/lb.o
LOAD src/tests/RV32I/srli.o
LOAD src/tests/RV32I/sw.o
LOAD src/tests/RV32I/lw.o
LOAD src/tests/RV32I/beq.o
LOAD src/tests/RV32I/auipc.o
LOAD src/tests/RV32I/addi.o
LOAD src/tests/RV32I/jalr.o
LOAD src/tests/RV32I/bne.o
LOAD src/tests/RV32I/xori.o
LOAD src/tests/RV32I/bgeu.o
LOAD src/tests/RV32I/slti.o
LOAD src/tests/RV32I/slt.o
LOAD src/tests/RV32I/lbu.o
LOAD src/tests/RV32I/lhu.o
LOAD src/tests/RV32I/sh.o
LOAD src/tests/RV32I/lui.o
LOAD src/tests/RV32I/bltu.o
LOAD src/tests/RV32I/simple.o
LOAD src/tests/RV32I/sra.o
LOAD src/tests/RV32I/slli.o
LOAD src/tests/RV32I/and.o
LOAD src/tests/RV32I/ori.o
LOAD src/tests/RV32I/srl.o
LOAD src/tests/RV32I/jal.o
LOAD src/tests/RV32I/add.o
LOAD src/tests/RV32I/sb.o
LOAD src/tests/RV32I/andi.o
LOAD src/tests/RV32I/j.o
LOAD src/tests/RV32I/blt.o
OUTPUT(src/darksocv.o elf32-littleriscv)

.comment        0x0000000000000000       0x12
 .comment       0x0000000000000000       0x12 src/io.o
                                         0x13 (size before relaxing)
 .comment       0x0000000000000012       0x13 src/boot.o
 .comment       0x0000000000000012       0x13 src/stdio.o
 .comment       0x0000000000000012       0x13 src/banner.o
 .comment       0x0000000000000012       0x13 src/main.o

.riscv.attributes
                0x0000000000000000       0x1c
 .riscv.attributes
                0x0000000000000000       0x1c src/io.o
 .riscv.attributes
                0x000000000000001c       0x1c src/boot.o
 .riscv.attributes
                0x0000000000000038       0x1c src/stdio.o
 .riscv.attributes
                0x0000000000000054       0x1c src/banner.o
 .riscv.attributes
                0x0000000000000070       0x1c src/main.o
 .riscv.attributes
                0x000000000000008c       0x1a src/tests/start.o
 .riscv.attributes
                0x00000000000000a6       0x1a src/tests/RV32I/or.o
 .riscv.attributes
                0x00000000000000c0       0x1a src/tests/RV32I/xor.o
 .riscv.attributes
                0x00000000000000da       0x1a src/tests/RV32I/sub.o
 .riscv.attributes
                0x00000000000000f4       0x1a src/tests/RV32I/sll.o
 .riscv.attributes
                0x000000000000010e       0x1a src/tests/RV32I/lh.o
 .riscv.attributes
                0x0000000000000128       0x1a src/tests/RV32I/bge.o
 .riscv.attributes
                0x0000000000000142       0x1a src/tests/RV32I/srai.o
 .riscv.attributes
                0x000000000000015c       0x1a src/tests/RV32I/lb.o
 .riscv.attributes
                0x0000000000000176       0x1a src/tests/RV32I/srli.o
 .riscv.attributes
                0x0000000000000190       0x1a src/tests/RV32I/sw.o
 .riscv.attributes
                0x00000000000001aa       0x1a src/tests/RV32I/lw.o
 .riscv.attributes
                0x00000000000001c4       0x1a src/tests/RV32I/beq.o
 .riscv.attributes
                0x00000000000001de       0x1a src/tests/RV32I/auipc.o
 .riscv.attributes
                0x00000000000001f8       0x1a src/tests/RV32I/addi.o
 .riscv.attributes
                0x0000000000000212       0x1a src/tests/RV32I/jalr.o
 .riscv.attributes
                0x000000000000022c       0x1a src/tests/RV32I/bne.o
 .riscv.attributes
                0x0000000000000246       0x1a src/tests/RV32I/xori.o
 .riscv.attributes
                0x0000000000000260       0x1a src/tests/RV32I/bgeu.o
 .riscv.attributes
                0x000000000000027a       0x1a src/tests/RV32I/slti.o
 .riscv.attributes
                0x0000000000000294       0x1a src/tests/RV32I/slt.o
 .riscv.attributes
                0x00000000000002ae       0x1a src/tests/RV32I/lbu.o
 .riscv.attributes
                0x00000000000002c8       0x1a src/tests/RV32I/lhu.o
 .riscv.attributes
                0x00000000000002e2       0x1a src/tests/RV32I/sh.o
 .riscv.attributes
                0x00000000000002fc       0x1a src/tests/RV32I/lui.o
 .riscv.attributes
                0x0000000000000316       0x1a src/tests/RV32I/bltu.o
 .riscv.attributes
                0x0000000000000330       0x1a src/tests/RV32I/simple.o
 .riscv.attributes
                0x000000000000034a       0x1a src/tests/RV32I/sra.o
 .riscv.attributes
                0x0000000000000364       0x1a src/tests/RV32I/slli.o
 .riscv.attributes
                0x000000000000037e       0x1a src/tests/RV32I/and.o
 .riscv.attributes
                0x0000000000000398       0x1a src/tests/RV32I/ori.o
 .riscv.attributes
                0x00000000000003b2       0x1a src/tests/RV32I/srl.o
 .riscv.attributes
                0x00000000000003cc       0x1a src/tests/RV32I/jal.o
 .riscv.attributes
                0x00000000000003e6       0x1a src/tests/RV32I/add.o
 .riscv.attributes
                0x0000000000000400       0x1a src/tests/RV32I/sb.o
 .riscv.attributes
                0x000000000000041a       0x1a src/tests/RV32I/andi.o
 .riscv.attributes
                0x0000000000000434       0x1a src/tests/RV32I/j.o
 .riscv.attributes
                0x000000000000044e       0x1a src/tests/RV32I/blt.o
