
darksocv.o:     file format elf32-littleriscv


Disassembly of section .text:

00000000 <boot>:
       0:	00009737          	lui	a4,0x9
       4:	a1c72783          	lw	a5,-1508(a4) # 8a1c <threads>
       8:	fe010113          	addi	sp,sp,-32
       c:	00812c23          	sw	s0,24(sp)
      10:	00178693          	addi	a3,a5,1
      14:	0017f793          	andi	a5,a5,1
      18:	00112e23          	sw	ra,28(sp)
      1c:	00912a23          	sw	s1,20(sp)
      20:	01212823          	sw	s2,16(sp)
      24:	a0d72e23          	sw	a3,-1508(a4)
      28:	00f12623          	sw	a5,12(sp)
      2c:	00009437          	lui	s0,0x9
      30:	04078463          	beqz	a5,78 <boot+0x78>
      34:	800007b7          	lui	a5,0x80000
      38:	000f46b7          	lui	a3,0xf4
      3c:	00078793          	mv	a5,a5
      40:	23f68693          	addi	a3,a3,575 # f423f <tdat10+0xeb426>
      44:	f8000613          	li	a2,-128
      48:	a1842703          	lw	a4,-1512(s0) # 8a18 <utimers>
      4c:	fff70593          	addi	a1,a4,-1
      50:	a0b42c23          	sw	a1,-1512(s0)
      54:	00071e63          	bnez	a4,70 <boot+0x70>
      58:	0087d703          	lhu	a4,8(a5) # 80000008 <io+0x8>
      5c:	00170713          	addi	a4,a4,1
      60:	01071713          	slli	a4,a4,0x10
      64:	01075713          	srli	a4,a4,0x10
      68:	00e79423          	sh	a4,8(a5)
      6c:	a0d42c23          	sw	a3,-1512(s0)
      70:	00c781a3          	sb	a2,3(a5)
      74:	fd5ff06f          	j	48 <boot+0x48>
      78:	000094b7          	lui	s1,0x9
      7c:	031000ef          	jal	ra,8ac <banner>
      80:	01c10693          	addi	a3,sp,28
      84:	a1840613          	addi	a2,s0,-1512
      88:	00000593          	li	a1,0
      8c:	b0448513          	addi	a0,s1,-1276 # 8b04 <nxt.0+0xe4>
      90:	368000ef          	jal	ra,3f8 <printf>
      94:	7e8080ef          	jal	ra,887c <main>
      98:	fe5ff06f          	j	7c <boot+0x7c>

0000009c <board_name>:
      9c:	04050c63          	beqz	a0,f4 <board_name+0x58>
      a0:	00100793          	li	a5,1
      a4:	04f50e63          	beq	a0,a5,100 <board_name+0x64>
      a8:	00200793          	li	a5,2
      ac:	06f50063          	beq	a0,a5,10c <board_name+0x70>
      b0:	00300793          	li	a5,3
      b4:	06f50263          	beq	a0,a5,118 <board_name+0x7c>
      b8:	00400793          	li	a5,4
      bc:	06f50463          	beq	a0,a5,124 <board_name+0x88>
      c0:	00500793          	li	a5,5
      c4:	06f50663          	beq	a0,a5,130 <board_name+0x94>
      c8:	00600793          	li	a5,6
      cc:	06f50863          	beq	a0,a5,13c <board_name+0xa0>
      d0:	00700793          	li	a5,7
      d4:	06f50a63          	beq	a0,a5,148 <board_name+0xac>
      d8:	00800793          	li	a5,8
      dc:	06f50c63          	beq	a0,a5,154 <board_name+0xb8>
      e0:	00900793          	li	a5,9
      e4:	06f50e63          	beq	a0,a5,160 <board_name+0xc4>
      e8:	00009537          	lui	a0,0x9
      ec:	afc50513          	addi	a0,a0,-1284 # 8afc <nxt.0+0xdc>
      f0:	00008067          	ret
      f4:	00009537          	lui	a0,0x9
      f8:	a5050513          	addi	a0,a0,-1456 # 8a50 <nxt.0+0x30>
      fc:	00008067          	ret
     100:	00009537          	lui	a0,0x9
     104:	a6050513          	addi	a0,a0,-1440 # 8a60 <nxt.0+0x40>
     108:	00008067          	ret
     10c:	00009537          	lui	a0,0x9
     110:	a7850513          	addi	a0,a0,-1416 # 8a78 <nxt.0+0x58>
     114:	00008067          	ret
     118:	00009537          	lui	a0,0x9
     11c:	a8c50513          	addi	a0,a0,-1396 # 8a8c <nxt.0+0x6c>
     120:	00008067          	ret
     124:	00009537          	lui	a0,0x9
     128:	aa050513          	addi	a0,a0,-1376 # 8aa0 <nxt.0+0x80>
     12c:	00008067          	ret
     130:	00009537          	lui	a0,0x9
     134:	ab450513          	addi	a0,a0,-1356 # 8ab4 <nxt.0+0x94>
     138:	00008067          	ret
     13c:	00009537          	lui	a0,0x9
     140:	acc50513          	addi	a0,a0,-1332 # 8acc <nxt.0+0xac>
     144:	00008067          	ret
     148:	00009537          	lui	a0,0x9
     14c:	a3850513          	addi	a0,a0,-1480 # 8a38 <nxt.0+0x18>
     150:	00008067          	ret
     154:	00009537          	lui	a0,0x9
     158:	ae050513          	addi	a0,a0,-1312 # 8ae0 <nxt.0+0xc0>
     15c:	00008067          	ret
     160:	00009537          	lui	a0,0x9
     164:	a2450513          	addi	a0,a0,-1500 # 8a24 <nxt.0+0x4>
     168:	00008067          	ret

0000016c <getchar>:
     16c:	800007b7          	lui	a5,0x80000
     170:	00078793          	mv	a5,a5
     174:	0047c703          	lbu	a4,4(a5) # 80000004 <io+0x4>
     178:	00277713          	andi	a4,a4,2
     17c:	fe070ce3          	beqz	a4,174 <getchar+0x8>
     180:	0057c503          	lbu	a0,5(a5)
     184:	0ff57513          	andi	a0,a0,255
     188:	00008067          	ret

0000018c <putchar>:
     18c:	800007b7          	lui	a5,0x80000
     190:	00a00713          	li	a4,10
     194:	00078793          	mv	a5,a5
     198:	00e51c63          	bne	a0,a4,1b0 <putchar+0x24>
     19c:	0047c703          	lbu	a4,4(a5) # 80000004 <io+0x4>
     1a0:	00177713          	andi	a4,a4,1
     1a4:	fe071ce3          	bnez	a4,19c <putchar+0x10>
     1a8:	00d00713          	li	a4,13
     1ac:	00e782a3          	sb	a4,5(a5)
     1b0:	0047c703          	lbu	a4,4(a5)
     1b4:	00177713          	andi	a4,a4,1
     1b8:	fe071ce3          	bnez	a4,1b0 <putchar+0x24>
     1bc:	0ff57713          	andi	a4,a0,255
     1c0:	00e782a3          	sb	a4,5(a5)
     1c4:	00070513          	mv	a0,a4
     1c8:	00008067          	ret

000001cc <gets>:
     1cc:	fd010113          	addi	sp,sp,-48
     1d0:	02812423          	sw	s0,40(sp)
     1d4:	02912223          	sw	s1,36(sp)
     1d8:	01312e23          	sw	s3,28(sp)
     1dc:	01512a23          	sw	s5,20(sp)
     1e0:	01612823          	sw	s6,16(sp)
     1e4:	01712623          	sw	s7,12(sp)
     1e8:	02112623          	sw	ra,44(sp)
     1ec:	03212023          	sw	s2,32(sp)
     1f0:	01412c23          	sw	s4,24(sp)
     1f4:	00050493          	mv	s1,a0
     1f8:	00058993          	mv	s3,a1
     1fc:	00050413          	mv	s0,a0
     200:	00a00a93          	li	s5,10
     204:	00d00b13          	li	s6,13
     208:	00800b93          	li	s7,8
     20c:	fff98a13          	addi	s4,s3,-1
     210:	000a0863          	beqz	s4,220 <gets+0x54>
     214:	f59ff0ef          	jal	ra,16c <getchar>
     218:	00050913          	mv	s2,a0
     21c:	05551463          	bne	a0,s5,264 <gets+0x98>
     220:	00a00513          	li	a0,10
     224:	f69ff0ef          	jal	ra,18c <putchar>
     228:	00040023          	sb	zero,0(s0)
     22c:	00941463          	bne	s0,s1,234 <gets+0x68>
     230:	00000493          	li	s1,0
     234:	02c12083          	lw	ra,44(sp)
     238:	02812403          	lw	s0,40(sp)
     23c:	02012903          	lw	s2,32(sp)
     240:	01c12983          	lw	s3,28(sp)
     244:	01812a03          	lw	s4,24(sp)
     248:	01412a83          	lw	s5,20(sp)
     24c:	01012b03          	lw	s6,16(sp)
     250:	00c12b83          	lw	s7,12(sp)
     254:	00048513          	mv	a0,s1
     258:	02412483          	lw	s1,36(sp)
     25c:	03010113          	addi	sp,sp,48
     260:	00008067          	ret
     264:	fb650ee3          	beq	a0,s6,220 <gets+0x54>
     268:	f25ff0ef          	jal	ra,18c <putchar>
     26c:	01791e63          	bne	s2,s7,288 <gets+0xbc>
     270:	00940863          	beq	s0,s1,280 <gets+0xb4>
     274:	fe040fa3          	sb	zero,-1(s0)
     278:	00098a13          	mv	s4,s3
     27c:	fff40413          	addi	s0,s0,-1
     280:	000a0993          	mv	s3,s4
     284:	f89ff06f          	j	20c <gets+0x40>
     288:	01240023          	sb	s2,0(s0)
     28c:	00140413          	addi	s0,s0,1
     290:	ff1ff06f          	j	280 <gets+0xb4>

00000294 <putstr>:
     294:	ff010113          	addi	sp,sp,-16
     298:	00812423          	sw	s0,8(sp)
     29c:	00112623          	sw	ra,12(sp)
     2a0:	00050413          	mv	s0,a0
     2a4:	00051663          	bnez	a0,2b0 <putstr+0x1c>
     2a8:	00009437          	lui	s0,0x9
     2ac:	b2840413          	addi	s0,s0,-1240 # 8b28 <nxt.0+0x108>
     2b0:	00044503          	lbu	a0,0(s0)
     2b4:	00051a63          	bnez	a0,2c8 <putstr+0x34>
     2b8:	00c12083          	lw	ra,12(sp)
     2bc:	00812403          	lw	s0,8(sp)
     2c0:	01010113          	addi	sp,sp,16
     2c4:	00008067          	ret
     2c8:	00140413          	addi	s0,s0,1
     2cc:	ec1ff0ef          	jal	ra,18c <putchar>
     2d0:	fe1ff06f          	j	2b0 <putstr+0x1c>

000002d4 <puts>:
     2d4:	ff010113          	addi	sp,sp,-16
     2d8:	00112623          	sw	ra,12(sp)
     2dc:	fb9ff0ef          	jal	ra,294 <putstr>
     2e0:	00c12083          	lw	ra,12(sp)
     2e4:	00a00513          	li	a0,10
     2e8:	01010113          	addi	sp,sp,16
     2ec:	ea1ff06f          	j	18c <putchar>

000002f0 <putdx>:
     2f0:	fa010113          	addi	sp,sp,-96
     2f4:	05412423          	sw	s4,72(sp)
     2f8:	00058a13          	mv	s4,a1
     2fc:	000095b7          	lui	a1,0x9
     300:	04812c23          	sw	s0,88(sp)
     304:	04912a23          	sw	s1,84(sp)
     308:	b4458413          	addi	s0,a1,-1212 # 8b44 <nxt.0+0x124>
     30c:	02c00613          	li	a2,44
     310:	b4458593          	addi	a1,a1,-1212
     314:	00050493          	mv	s1,a0
     318:	01410513          	addi	a0,sp,20
     31c:	04112e23          	sw	ra,92(sp)
     320:	05212823          	sw	s2,80(sp)
     324:	05312623          	sw	s3,76(sp)
     328:	05512223          	sw	s5,68(sp)
     32c:	224000ef          	jal	ra,550 <memcpy>
     330:	02c40593          	addi	a1,s0,44
     334:	01400613          	li	a2,20
     338:	00010513          	mv	a0,sp
     33c:	214000ef          	jal	ra,550 <memcpy>
     340:	00010413          	mv	s0,sp
     344:	000a0463          	beqz	s4,34c <putdx+0x5c>
     348:	01410413          	addi	s0,sp,20
     34c:	00009937          	lui	s2,0x9
     350:	01800993          	li	s3,24
     354:	00100a93          	li	s5,1
     358:	b3090913          	addi	s2,s2,-1232 # 8b30 <nxt.0+0x110>
     35c:	00042583          	lw	a1,0(s0)
     360:	02059463          	bnez	a1,388 <putdx+0x98>
     364:	05c12083          	lw	ra,92(sp)
     368:	05812403          	lw	s0,88(sp)
     36c:	05412483          	lw	s1,84(sp)
     370:	05012903          	lw	s2,80(sp)
     374:	04c12983          	lw	s3,76(sp)
     378:	04812a03          	lw	s4,72(sp)
     37c:	04412a83          	lw	s5,68(sp)
     380:	06010113          	addi	sp,sp,96
     384:	00008067          	ret
     388:	01558463          	beq	a1,s5,390 <putdx+0xa0>
     38c:	02b4e263          	bltu	s1,a1,3b0 <putdx+0xc0>
     390:	020a0663          	beqz	s4,3bc <putdx+0xcc>
     394:	00048513          	mv	a0,s1
     398:	40c000ef          	jal	ra,7a4 <__udivsi3>
     39c:	00a00593          	li	a1,10
     3a0:	40c000ef          	jal	ra,7ac <__umodsi3>
     3a4:	00a90533          	add	a0,s2,a0
     3a8:	00054503          	lbu	a0,0(a0)
     3ac:	de1ff0ef          	jal	ra,18c <putchar>
     3b0:	ff898993          	addi	s3,s3,-8
     3b4:	00440413          	addi	s0,s0,4
     3b8:	fa5ff06f          	j	35c <putdx+0x6c>
     3bc:	00498793          	addi	a5,s3,4
     3c0:	00f4d7b3          	srl	a5,s1,a5
     3c4:	00f7f793          	andi	a5,a5,15
     3c8:	00f907b3          	add	a5,s2,a5
     3cc:	0007c503          	lbu	a0,0(a5)
     3d0:	dbdff0ef          	jal	ra,18c <putchar>
     3d4:	0134d7b3          	srl	a5,s1,s3
     3d8:	00f7f793          	andi	a5,a5,15
     3dc:	00f907b3          	add	a5,s2,a5
     3e0:	0007c503          	lbu	a0,0(a5)
     3e4:	fc9ff06f          	j	3ac <putdx+0xbc>

000003e8 <putx>:
     3e8:	00000593          	li	a1,0
     3ec:	f05ff06f          	j	2f0 <putdx>

000003f0 <putd>:
     3f0:	00100593          	li	a1,1
     3f4:	efdff06f          	j	2f0 <putdx>

000003f8 <printf>:
     3f8:	fb010113          	addi	sp,sp,-80
     3fc:	04f12223          	sw	a5,68(sp)
     400:	03410793          	addi	a5,sp,52
     404:	02812423          	sw	s0,40(sp)
     408:	03212023          	sw	s2,32(sp)
     40c:	01312e23          	sw	s3,28(sp)
     410:	01412c23          	sw	s4,24(sp)
     414:	01512a23          	sw	s5,20(sp)
     418:	02112623          	sw	ra,44(sp)
     41c:	02912223          	sw	s1,36(sp)
     420:	00050413          	mv	s0,a0
     424:	02b12a23          	sw	a1,52(sp)
     428:	02c12c23          	sw	a2,56(sp)
     42c:	02d12e23          	sw	a3,60(sp)
     430:	04e12023          	sw	a4,64(sp)
     434:	05012423          	sw	a6,72(sp)
     438:	05112623          	sw	a7,76(sp)
     43c:	00f12623          	sw	a5,12(sp)
     440:	02500913          	li	s2,37
     444:	07300993          	li	s3,115
     448:	07800a13          	li	s4,120
     44c:	06400a93          	li	s5,100
     450:	00044503          	lbu	a0,0(s0)
     454:	02051463          	bnez	a0,47c <printf+0x84>
     458:	02c12083          	lw	ra,44(sp)
     45c:	02812403          	lw	s0,40(sp)
     460:	02412483          	lw	s1,36(sp)
     464:	02012903          	lw	s2,32(sp)
     468:	01c12983          	lw	s3,28(sp)
     46c:	01812a03          	lw	s4,24(sp)
     470:	01412a83          	lw	s5,20(sp)
     474:	05010113          	addi	sp,sp,80
     478:	00008067          	ret
     47c:	00140493          	addi	s1,s0,1
     480:	07251463          	bne	a0,s2,4e8 <printf+0xf0>
     484:	00144503          	lbu	a0,1(s0)
     488:	03351063          	bne	a0,s3,4a8 <printf+0xb0>
     48c:	00c12783          	lw	a5,12(sp)
     490:	0007a503          	lw	a0,0(a5)
     494:	00478713          	addi	a4,a5,4
     498:	00e12623          	sw	a4,12(sp)
     49c:	df9ff0ef          	jal	ra,294 <putstr>
     4a0:	00148413          	addi	s0,s1,1
     4a4:	fadff06f          	j	450 <printf+0x58>
     4a8:	01451e63          	bne	a0,s4,4c4 <printf+0xcc>
     4ac:	00c12783          	lw	a5,12(sp)
     4b0:	0007a503          	lw	a0,0(a5)
     4b4:	00478713          	addi	a4,a5,4
     4b8:	00e12623          	sw	a4,12(sp)
     4bc:	f2dff0ef          	jal	ra,3e8 <putx>
     4c0:	fe1ff06f          	j	4a0 <printf+0xa8>
     4c4:	01551e63          	bne	a0,s5,4e0 <printf+0xe8>
     4c8:	00c12783          	lw	a5,12(sp)
     4cc:	0007a503          	lw	a0,0(a5)
     4d0:	00478713          	addi	a4,a5,4
     4d4:	00e12623          	sw	a4,12(sp)
     4d8:	f19ff0ef          	jal	ra,3f0 <putd>
     4dc:	fc5ff06f          	j	4a0 <printf+0xa8>
     4e0:	cadff0ef          	jal	ra,18c <putchar>
     4e4:	fbdff06f          	j	4a0 <printf+0xa8>
     4e8:	ca5ff0ef          	jal	ra,18c <putchar>
     4ec:	00040493          	mv	s1,s0
     4f0:	fb1ff06f          	j	4a0 <printf+0xa8>

000004f4 <strncmp>:
     4f4:	fff60613          	addi	a2,a2,-1
     4f8:	00000793          	li	a5,0
     4fc:	00f50733          	add	a4,a0,a5
     500:	00074683          	lbu	a3,0(a4)
     504:	00f58733          	add	a4,a1,a5
     508:	00074703          	lbu	a4,0(a4)
     50c:	00c78a63          	beq	a5,a2,520 <strncmp+0x2c>
     510:	00068863          	beqz	a3,520 <strncmp+0x2c>
     514:	00070663          	beqz	a4,520 <strncmp+0x2c>
     518:	00178793          	addi	a5,a5,1
     51c:	fee680e3          	beq	a3,a4,4fc <strncmp+0x8>
     520:	40e68533          	sub	a0,a3,a4
     524:	00008067          	ret

00000528 <strcmp>:
     528:	fff00613          	li	a2,-1
     52c:	fc9ff06f          	j	4f4 <strncmp>

00000530 <strlen>:
     530:	00050793          	mv	a5,a0
     534:	00000513          	li	a0,0
     538:	00a78733          	add	a4,a5,a0
     53c:	00074703          	lbu	a4,0(a4)
     540:	00071463          	bnez	a4,548 <strlen+0x18>
     544:	00008067          	ret
     548:	00150513          	addi	a0,a0,1
     54c:	fedff06f          	j	538 <strlen+0x8>

00000550 <memcpy>:
     550:	00000793          	li	a5,0
     554:	00c79463          	bne	a5,a2,55c <memcpy+0xc>
     558:	00008067          	ret
     55c:	00f58733          	add	a4,a1,a5
     560:	00074683          	lbu	a3,0(a4)
     564:	00f50733          	add	a4,a0,a5
     568:	00178793          	addi	a5,a5,1
     56c:	00d70023          	sb	a3,0(a4)
     570:	fe5ff06f          	j	554 <memcpy+0x4>

00000574 <memset>:
     574:	00c50633          	add	a2,a0,a2
     578:	00050793          	mv	a5,a0
     57c:	00c79463          	bne	a5,a2,584 <memset+0x10>
     580:	00008067          	ret
     584:	00178793          	addi	a5,a5,1
     588:	feb78fa3          	sb	a1,-1(a5)
     58c:	ff1ff06f          	j	57c <memset+0x8>

00000590 <strtok>:
     590:	fe010113          	addi	sp,sp,-32
     594:	00812c23          	sw	s0,24(sp)
     598:	00050413          	mv	s0,a0
     59c:	00058513          	mv	a0,a1
     5a0:	01212823          	sw	s2,16(sp)
     5a4:	01312623          	sw	s3,12(sp)
     5a8:	00112e23          	sw	ra,28(sp)
     5ac:	00912a23          	sw	s1,20(sp)
     5b0:	00058913          	mv	s2,a1
     5b4:	f7dff0ef          	jal	ra,530 <strlen>
     5b8:	00050993          	mv	s3,a0
     5bc:	00041863          	bnez	s0,5cc <strtok+0x3c>
     5c0:	000097b7          	lui	a5,0x9
     5c4:	a207a403          	lw	s0,-1504(a5) # 8a20 <nxt.0>
     5c8:	04040063          	beqz	s0,608 <strtok+0x78>
     5cc:	00040493          	mv	s1,s0
     5d0:	0004c783          	lbu	a5,0(s1)
     5d4:	00079863          	bnez	a5,5e4 <strtok+0x54>
     5d8:	000097b7          	lui	a5,0x9
     5dc:	a207a023          	sw	zero,-1504(a5) # 8a20 <nxt.0>
     5e0:	0280006f          	j	608 <strtok+0x78>
     5e4:	00098613          	mv	a2,s3
     5e8:	00090593          	mv	a1,s2
     5ec:	00048513          	mv	a0,s1
     5f0:	f05ff0ef          	jal	ra,4f4 <strncmp>
     5f4:	00148793          	addi	a5,s1,1
     5f8:	02051863          	bnez	a0,628 <strtok+0x98>
     5fc:	00009737          	lui	a4,0x9
     600:	00048023          	sb	zero,0(s1)
     604:	a2f72023          	sw	a5,-1504(a4) # 8a20 <nxt.0>
     608:	01c12083          	lw	ra,28(sp)
     60c:	00040513          	mv	a0,s0
     610:	01812403          	lw	s0,24(sp)
     614:	01412483          	lw	s1,20(sp)
     618:	01012903          	lw	s2,16(sp)
     61c:	00c12983          	lw	s3,12(sp)
     620:	02010113          	addi	sp,sp,32
     624:	00008067          	ret
     628:	00078493          	mv	s1,a5
     62c:	fa5ff06f          	j	5d0 <strtok+0x40>

00000630 <atoi>:
     630:	00050713          	mv	a4,a0
     634:	00000693          	li	a3,0
     638:	00000513          	li	a0,0
     63c:	02d00613          	li	a2,45
     640:	00071a63          	bnez	a4,654 <atoi+0x24>
     644:	02069c63          	bnez	a3,67c <atoi+0x4c>
     648:	00008067          	ret
     64c:	00100693          	li	a3,1
     650:	0240006f          	j	674 <atoi+0x44>
     654:	00074783          	lbu	a5,0(a4)
     658:	fe0786e3          	beqz	a5,644 <atoi+0x14>
     65c:	fec788e3          	beq	a5,a2,64c <atoi+0x1c>
     660:	00351593          	slli	a1,a0,0x3
     664:	fd078793          	addi	a5,a5,-48
     668:	00b787b3          	add	a5,a5,a1
     66c:	00151513          	slli	a0,a0,0x1
     670:	00a78533          	add	a0,a5,a0
     674:	00170713          	addi	a4,a4,1
     678:	fc9ff06f          	j	640 <atoi+0x10>
     67c:	40a00533          	neg	a0,a0
     680:	00008067          	ret

00000684 <xtoi>:
     684:	00050713          	mv	a4,a0
     688:	03900693          	li	a3,57
     68c:	00000513          	li	a0,0
     690:	00070663          	beqz	a4,69c <xtoi+0x18>
     694:	00074783          	lbu	a5,0(a4)
     698:	00079463          	bnez	a5,6a0 <xtoi+0x1c>
     69c:	00008067          	ret
     6a0:	00451513          	slli	a0,a0,0x4
     6a4:	00f6ea63          	bltu	a3,a5,6b8 <xtoi+0x34>
     6a8:	fd078793          	addi	a5,a5,-48
     6ac:	00a78533          	add	a0,a5,a0
     6b0:	00170713          	addi	a4,a4,1
     6b4:	fddff06f          	j	690 <xtoi+0xc>
     6b8:	05f7f793          	andi	a5,a5,95
     6bc:	fc978793          	addi	a5,a5,-55
     6c0:	fedff06f          	j	6ac <xtoi+0x28>

000006c4 <mac>:
     6c4:	857f                	0x857f
     6c6:	00c5                	addi	ra,ra,17
     6c8:	00008067          	ret

000006cc <__umulsi3>:
     6cc:	00050793          	mv	a5,a0
     6d0:	00b57663          	bgeu	a0,a1,6dc <__umulsi3+0x10>
     6d4:	00058793          	mv	a5,a1
     6d8:	00050593          	mv	a1,a0
     6dc:	00000513          	li	a0,0
     6e0:	00059463          	bnez	a1,6e8 <__umulsi3+0x1c>
     6e4:	00008067          	ret
     6e8:	0015f713          	andi	a4,a1,1
     6ec:	00070463          	beqz	a4,6f4 <__umulsi3+0x28>
     6f0:	00f50533          	add	a0,a0,a5
     6f4:	00179793          	slli	a5,a5,0x1
     6f8:	0015d593          	srli	a1,a1,0x1
     6fc:	fe5ff06f          	j	6e0 <__umulsi3+0x14>

00000700 <__mulsi3>:
     700:	ff010113          	addi	sp,sp,-16
     704:	00912223          	sw	s1,4(sp)
     708:	00112623          	sw	ra,12(sp)
     70c:	00812423          	sw	s0,8(sp)
     710:	00000493          	li	s1,0
     714:	00055663          	bgez	a0,720 <__mulsi3+0x20>
     718:	40a00533          	neg	a0,a0
     71c:	00100493          	li	s1,1
     720:	00000413          	li	s0,0
     724:	0005d663          	bgez	a1,730 <__mulsi3+0x30>
     728:	40b005b3          	neg	a1,a1
     72c:	00100413          	li	s0,1
     730:	f9dff0ef          	jal	ra,6cc <__umulsi3>
     734:	00848463          	beq	s1,s0,73c <__mulsi3+0x3c>
     738:	40a00533          	neg	a0,a0
     73c:	00c12083          	lw	ra,12(sp)
     740:	00812403          	lw	s0,8(sp)
     744:	00412483          	lw	s1,4(sp)
     748:	01010113          	addi	sp,sp,16
     74c:	00008067          	ret

00000750 <__udiv_umod_si3>:
     750:	00050793          	mv	a5,a0
     754:	00100713          	li	a4,1
     758:	00058513          	mv	a0,a1
     75c:	00059863          	bnez	a1,76c <__udiv_umod_si3+0x1c>
     760:	00008067          	ret
     764:	00171713          	slli	a4,a4,0x1
     768:	00151513          	slli	a0,a0,0x1
     76c:	fef56ce3          	bltu	a0,a5,764 <__udiv_umod_si3+0x14>
     770:	00050693          	mv	a3,a0
     774:	00000513          	li	a0,0
     778:	00078463          	beqz	a5,780 <__udiv_umod_si3+0x30>
     77c:	00071863          	bnez	a4,78c <__udiv_umod_si3+0x3c>
     780:	fe0610e3          	bnez	a2,760 <__udiv_umod_si3+0x10>
     784:	00078513          	mv	a0,a5
     788:	fd9ff06f          	j	760 <__udiv_umod_si3+0x10>
     78c:	00d7e663          	bltu	a5,a3,798 <__udiv_umod_si3+0x48>
     790:	40d787b3          	sub	a5,a5,a3
     794:	00e50533          	add	a0,a0,a4
     798:	00175713          	srli	a4,a4,0x1
     79c:	0016d693          	srli	a3,a3,0x1
     7a0:	fd9ff06f          	j	778 <__udiv_umod_si3+0x28>

000007a4 <__udivsi3>:
     7a4:	00100613          	li	a2,1
     7a8:	fa9ff06f          	j	750 <__udiv_umod_si3>

000007ac <__umodsi3>:
     7ac:	00000613          	li	a2,0
     7b0:	fa1ff06f          	j	750 <__udiv_umod_si3>

000007b4 <__div_mod_si3>:
     7b4:	06058e63          	beqz	a1,830 <__div_mod_si3+0x7c>
     7b8:	ff010113          	addi	sp,sp,-16
     7bc:	00812423          	sw	s0,8(sp)
     7c0:	00912223          	sw	s1,4(sp)
     7c4:	00112623          	sw	ra,12(sp)
     7c8:	01212023          	sw	s2,0(sp)
     7cc:	00060413          	mv	s0,a2
     7d0:	00000493          	li	s1,0
     7d4:	00055663          	bgez	a0,7e0 <__div_mod_si3+0x2c>
     7d8:	40a00533          	neg	a0,a0
     7dc:	00100493          	li	s1,1
     7e0:	00000913          	li	s2,0
     7e4:	0005d663          	bgez	a1,7f0 <__div_mod_si3+0x3c>
     7e8:	40b005b3          	neg	a1,a1
     7ec:	00100913          	li	s2,1
     7f0:	00040613          	mv	a2,s0
     7f4:	f5dff0ef          	jal	ra,750 <__udiv_umod_si3>
     7f8:	00050593          	mv	a1,a0
     7fc:	02040463          	beqz	s0,824 <__div_mod_si3+0x70>
     800:	01248463          	beq	s1,s2,808 <__div_mod_si3+0x54>
     804:	40a005b3          	neg	a1,a0
     808:	00c12083          	lw	ra,12(sp)
     80c:	00812403          	lw	s0,8(sp)
     810:	00412483          	lw	s1,4(sp)
     814:	00012903          	lw	s2,0(sp)
     818:	00058513          	mv	a0,a1
     81c:	01010113          	addi	sp,sp,16
     820:	00008067          	ret
     824:	fe0482e3          	beqz	s1,808 <__div_mod_si3+0x54>
     828:	40a005b3          	neg	a1,a0
     82c:	fddff06f          	j	808 <__div_mod_si3+0x54>
     830:	00058513          	mv	a0,a1
     834:	00008067          	ret

00000838 <__divsi3>:
     838:	00100613          	li	a2,1
     83c:	f79ff06f          	j	7b4 <__div_mod_si3>

00000840 <__modsi3>:
     840:	00000613          	li	a2,0
     844:	f71ff06f          	j	7b4 <__div_mod_si3>

00000848 <usleep>:
     848:	000097b7          	lui	a5,0x9
     84c:	a1c7a703          	lw	a4,-1508(a5) # 8a1c <threads>
     850:	00100793          	li	a5,1
     854:	00e7dc63          	bge	a5,a4,86c <usleep+0x24>
     858:	fff00713          	li	a4,-1
     85c:	000097b7          	lui	a5,0x9
     860:	fff50513          	addi	a0,a0,-1
     864:	02e51263          	bne	a0,a4,888 <usleep+0x40>
     868:	00008067          	ret
     86c:	800007b7          	lui	a5,0x80000
     870:	fff00693          	li	a3,-1
     874:	00078793          	mv	a5,a5
     878:	f8000613          	li	a2,-128
     87c:	fff50513          	addi	a0,a0,-1
     880:	00d51c63          	bne	a0,a3,898 <usleep+0x50>
     884:	00008067          	ret
     888:	a187a683          	lw	a3,-1512(a5) # 7ffffa18 <io+0xfffffa18>
     88c:	a187a603          	lw	a2,-1512(a5)
     890:	fed60ee3          	beq	a2,a3,88c <usleep+0x44>
     894:	fcdff06f          	j	860 <usleep+0x18>
     898:	00c781a3          	sb	a2,3(a5)
     89c:	0037c703          	lbu	a4,3(a5)
     8a0:	0ff77713          	andi	a4,a4,255
     8a4:	fe070ce3          	beqz	a4,89c <usleep+0x54>
     8a8:	fd5ff06f          	j	87c <usleep+0x34>

000008ac <banner>:
     8ac:	ee010113          	addi	sp,sp,-288
     8b0:	000095b7          	lui	a1,0x9
     8b4:	10d00613          	li	a2,269
     8b8:	b8458593          	addi	a1,a1,-1148 # 8b84 <nxt.0+0x164>
     8bc:	00010513          	mv	a0,sp
     8c0:	10112e23          	sw	ra,284(sp)
     8c4:	10812c23          	sw	s0,280(sp)
     8c8:	10912a23          	sw	s1,276(sp)
     8cc:	11212823          	sw	s2,272(sp)
     8d0:	c81ff0ef          	jal	ra,550 <memcpy>
     8d4:	00a00513          	li	a0,10
     8d8:	8b5ff0ef          	jal	ra,18c <putchar>
     8dc:	00010413          	mv	s0,sp
     8e0:	00044903          	lbu	s2,0(s0)
     8e4:	00091e63          	bnez	s2,900 <banner+0x54>
     8e8:	11c12083          	lw	ra,284(sp)
     8ec:	11812403          	lw	s0,280(sp)
     8f0:	11412483          	lw	s1,276(sp)
     8f4:	11012903          	lw	s2,272(sp)
     8f8:	12010113          	addi	sp,sp,288
     8fc:	00008067          	ret
     900:	00144483          	lbu	s1,1(s0)
     904:	00240413          	addi	s0,s0,2
     908:	fc048ce3          	beqz	s1,8e0 <banner+0x34>
     90c:	00090513          	mv	a0,s2
     910:	87dff0ef          	jal	ra,18c <putchar>
     914:	fff48493          	addi	s1,s1,-1
     918:	ff1ff06f          	j	908 <banner+0x5c>

0000091c <success>:
     91c:	00009537          	lui	a0,0x9
     920:	d8450513          	addi	a0,a0,-636 # 8d84 <nxt.0+0x364>
     924:	971ff06f          	j	294 <putstr>

00000928 <failure>:
     928:	00009537          	lui	a0,0x9
     92c:	d9850513          	addi	a0,a0,-616 # 8d98 <nxt.0+0x378>
     930:	965ff06f          	j	294 <putstr>

00000934 <OK>:
     934:	00009537          	lui	a0,0x9
     938:	da450513          	addi	a0,a0,-604 # 8da4 <nxt.0+0x384>
     93c:	959ff06f          	j	294 <putstr>

00000940 <reset_vec>:
     940:	0040006f          	j	944 <start>

00000944 <start>:
     944:	00000093          	li	ra,0
     948:	00000113          	li	sp,0
     94c:	00000193          	li	gp,0
     950:	00000213          	li	tp,0
     954:	00000293          	li	t0,0
     958:	00000313          	li	t1,0
     95c:	00000393          	li	t2,0
     960:	00000413          	li	s0,0
     964:	00000493          	li	s1,0
     968:	00000513          	li	a0,0
     96c:	00000593          	li	a1,0
     970:	00000613          	li	a2,0
     974:	00000693          	li	a3,0
     978:	00000713          	li	a4,0
     97c:	00000793          	li	a5,0
     980:	00000813          	li	a6,0
     984:	00000893          	li	a7,0
     988:	00000913          	li	s2,0
     98c:	00000993          	li	s3,0
     990:	00000a13          	li	s4,0
     994:	00000a93          	li	s5,0
     998:	00000b13          	li	s6,0
     99c:	00000b93          	li	s7,0
     9a0:	00000c13          	li	s8,0
     9a4:	00000c93          	li	s9,0
     9a8:	00000d13          	li	s10,0
     9ac:	00000d93          	li	s11,0
     9b0:	00000e13          	li	t3,0
     9b4:	00000e93          	li	t4,0
     9b8:	00000f13          	li	t5,0
     9bc:	00000f93          	li	t6,0
     9c0:	3e800093          	li	ra,1000
     9c4:	3dd0506f          	j	65a0 <lui>

000009c8 <lui_ret>:
     9c8:	3e800093          	li	ra,1000
     9cc:	41d0306f          	j	45e8 <auipc>

000009d0 <auipc_ret>:
     9d0:	3e800093          	li	ra,1000
     9d4:	7300706f          	j	8104 <j>

000009d8 <j_ret>:
     9d8:	3e800093          	li	ra,1000
     9dc:	2690606f          	j	7444 <jal>

000009e0 <jal_ret>:
     9e0:	3e800093          	li	ra,1000
     9e4:	7c50306f          	j	49a8 <jalr>

000009e8 <jalr_ret>:
     9e8:	3e800093          	li	ra,1000
     9ec:	0c50306f          	j	42b0 <beq>

000009f0 <beq_ret>:
     9f0:	3e800093          	li	ra,1000
     9f4:	12c0406f          	j	4b20 <bne>

000009f8 <bne_ret>:
     9f8:	3e800093          	li	ra,1000
     9fc:	34d0706f          	j	8548 <blt>

00000a00 <blt_ret>:
     a00:	3e800093          	li	ra,1000
     a04:	7b00706f          	j	81b4 <bge>

00000a08 <bge_ret>:
     a08:	3e800093          	li	ra,1000
     a0c:	42c0206f          	j	2e38 <bltu>

00000a10 <bltu_ret>:
     a10:	3e800093          	li	ra,1000
     a14:	6a00406f          	j	50b4 <bgeu>

00000a18 <bgeu_ret>:
     a18:	3e800093          	li	ra,1000
     a1c:	34d0106f          	j	2568 <lb>

00000a20 <lb_ret>:
     a20:	3e800093          	li	ra,1000
     a24:	6050106f          	j	2828 <lh>

00000a28 <lh_ret>:
     a28:	3e800093          	li	ra,1000
     a2c:	5840306f          	j	3fb0 <lw>

00000a30 <lw_ret>:
     a30:	3e800093          	li	ra,1000
     a34:	5b80506f          	j	5fec <lbu>

00000a38 <lbu_ret>:
     a38:	3e800093          	li	ra,1000
     a3c:	0710506f          	j	62ac <lhu>

00000a40 <lhu_ret>:
     a40:	3e800093          	li	ra,1000
     a44:	0200706f          	j	7a64 <sb>

00000a48 <sb_ret>:
     a48:	3e800093          	li	ra,1000
     a4c:	31d0006f          	j	1568 <sh>

00000a50 <sh_ret>:
     a50:	3e800093          	li	ra,1000
     a54:	0640306f          	j	3ab8 <sw>

00000a58 <sw_ret>:
     a58:	3e800093          	li	ra,1000
     a5c:	44d0306f          	j	46a8 <addi>

00000a60 <addi_ret>:
     a60:	3e800093          	li	ra,1000
     a64:	7400206f          	j	31a4 <slti>

00000a68 <slti_ret>:
     a68:	3e800093          	li	ra,1000
     a6c:	3ec0406f          	j	4e58 <xori>

00000a70 <xori_ret>:
     a70:	3e800093          	li	ra,1000
     a74:	7800606f          	j	71f4 <ori>

00000a78 <ori_ret>:
     a78:	3e800093          	li	ra,1000
     a7c:	4500706f          	j	7ecc <andi>

00000a80 <andi_ret>:
     a80:	3e800093          	li	ra,1000
     a84:	20d0206f          	j	3490 <slli>

00000a88 <slli_ret>:
     a88:	3e800093          	li	ra,1000
     a8c:	5010206f          	j	378c <srli>

00000a90 <srli_ret>:
     a90:	3e800093          	li	ra,1000
     a94:	0740206f          	j	2b08 <srai>

00000a98 <srai_ret>:
     a98:	3e800093          	li	ra,1000
     a9c:	2750606f          	j	7510 <add>

00000aa0 <add_ret>:
     aa0:	3e800093          	li	ra,1000
     aa4:	7b10006f          	j	1a54 <sub>

00000aa8 <sub_ret>:
     aa8:	3e800093          	li	ra,1000
     aac:	4dc0106f          	j	1f88 <sll>

00000ab0 <sll_ret>:
     ab0:	3e800093          	li	ra,1000
     ab4:	7fd0406f          	j	5ab0 <slt>

00000ab8 <slt_ret>:
     ab8:	3e800093          	li	ra,1000
     abc:	5780006f          	j	1034 <xor>

00000ac0 <xor_ret>:
     ac0:	3e800093          	li	ra,1000
     ac4:	1bd0406f          	j	5480 <srl>

00000ac8 <srl_ret>:
     ac8:	3e800093          	li	ra,1000
     acc:	3ed0506f          	j	66b8 <sra>

00000ad0 <sra_ret>:
     ad0:	3e800093          	li	ra,1000
     ad4:	0280006f          	j	afc <or>

00000ad8 <or_ret>:
     ad8:	3e800093          	li	ra,1000
     adc:	1ec0606f          	j	6cc8 <and>

00000ae0 <and_ret>:
     ae0:	3e800093          	li	ra,1000
     ae4:	3910506f          	j	6674 <simple>

00000ae8 <simple_ret>:
     ae8:	00009137          	lui	sp,0x9
     aec:	deadc1b7          	lui	gp,0xdeadc
     af0:	eef18193          	addi	gp,gp,-273 # deadbeef <io+0x5eadbeef>
     af4:	00018213          	mv	tp,gp
     af8:	e25ff0ef          	jal	ra,91c <success>

00000afc <or>:
     afc:	00001537          	lui	a0,0x1
     b00:	b1c50513          	addi	a0,a0,-1252 # b1c <.test_name>

00000b04 <loop>:
     b04:	f90ff0ef          	jal	ra,294 <putstr>

00000b08 <.prname_next>:
     b08:	00050583          	lb	a1,0(a0)
     b0c:	00058a63          	beqz	a1,b20 <.prname_done>
     b10:	00b62023          	sw	a1,0(a2)
     b14:	00150513          	addi	a0,a0,1
     b18:	ff1ff06f          	j	b08 <.prname_next>

00000b1c <.test_name>:
     b1c:	0000726f          	jal	tp,7b1c <test_6>

00000b20 <.prname_done>:
     b20:	02e00593          	li	a1,46
     b24:	00b62023          	sw	a1,0(a2)
     b28:	00b62023          	sw	a1,0(a2)

00000b2c <test_2>:
     b2c:	ff0100b7          	lui	ra,0xff010
     b30:	f0008093          	addi	ra,ra,-256 # ff00ff00 <io+0x7f00ff00>
     b34:	0f0f1137          	lui	sp,0xf0f1
     b38:	f0f10113          	addi	sp,sp,-241 # f0f0f0f <tdat10+0xf0e80f6>
     b3c:	0020e1b3          	or	gp,ra,sp
     b40:	ff100eb7          	lui	t4,0xff100
     b44:	f0fe8e93          	addi	t4,t4,-241 # ff0fff0f <io+0x7f0fff0f>
     b48:	00200e13          	li	t3,2
     b4c:	4bd19263          	bne	gp,t4,ff0 <fail>

00000b50 <test_3>:
     b50:	0ff010b7          	lui	ra,0xff01
     b54:	ff008093          	addi	ra,ra,-16 # ff00ff0 <tdat10+0xfef81d7>
     b58:	f0f0f137          	lui	sp,0xf0f0f
     b5c:	0f010113          	addi	sp,sp,240 # f0f0f0f0 <io+0x70f0f0f0>
     b60:	0020e1b3          	or	gp,ra,sp
     b64:	fff10eb7          	lui	t4,0xfff10
     b68:	ff0e8e93          	addi	t4,t4,-16 # fff0fff0 <io+0x7ff0fff0>
     b6c:	00300e13          	li	t3,3
     b70:	49d19063          	bne	gp,t4,ff0 <fail>

00000b74 <test_4>:
     b74:	00ff00b7          	lui	ra,0xff0
     b78:	0ff08093          	addi	ra,ra,255 # ff00ff <tdat10+0xfe72e6>
     b7c:	0f0f1137          	lui	sp,0xf0f1
     b80:	f0f10113          	addi	sp,sp,-241 # f0f0f0f <tdat10+0xf0e80f6>
     b84:	0020e1b3          	or	gp,ra,sp
     b88:	0fff1eb7          	lui	t4,0xfff1
     b8c:	fffe8e93          	addi	t4,t4,-1 # fff0fff <tdat10+0xffe81e6>
     b90:	00400e13          	li	t3,4
     b94:	45d19e63          	bne	gp,t4,ff0 <fail>

00000b98 <test_5>:
     b98:	f00ff0b7          	lui	ra,0xf00ff
     b9c:	00f08093          	addi	ra,ra,15 # f00ff00f <io+0x700ff00f>
     ba0:	f0f0f137          	lui	sp,0xf0f0f
     ba4:	0f010113          	addi	sp,sp,240 # f0f0f0f0 <io+0x70f0f0f0>
     ba8:	0020e1b3          	or	gp,ra,sp
     bac:	f0fffeb7          	lui	t4,0xf0fff
     bb0:	0ffe8e93          	addi	t4,t4,255 # f0fff0ff <io+0x70fff0ff>
     bb4:	00500e13          	li	t3,5
     bb8:	43d19c63          	bne	gp,t4,ff0 <fail>

00000bbc <test_6>:
     bbc:	ff0100b7          	lui	ra,0xff010
     bc0:	f0008093          	addi	ra,ra,-256 # ff00ff00 <io+0x7f00ff00>
     bc4:	0f0f1137          	lui	sp,0xf0f1
     bc8:	f0f10113          	addi	sp,sp,-241 # f0f0f0f <tdat10+0xf0e80f6>
     bcc:	0020e0b3          	or	ra,ra,sp
     bd0:	ff100eb7          	lui	t4,0xff100
     bd4:	f0fe8e93          	addi	t4,t4,-241 # ff0fff0f <io+0x7f0fff0f>
     bd8:	00600e13          	li	t3,6
     bdc:	41d09a63          	bne	ra,t4,ff0 <fail>

00000be0 <test_7>:
     be0:	ff0100b7          	lui	ra,0xff010
     be4:	f0008093          	addi	ra,ra,-256 # ff00ff00 <io+0x7f00ff00>
     be8:	0f0f1137          	lui	sp,0xf0f1
     bec:	f0f10113          	addi	sp,sp,-241 # f0f0f0f <tdat10+0xf0e80f6>
     bf0:	0020e133          	or	sp,ra,sp
     bf4:	ff100eb7          	lui	t4,0xff100
     bf8:	f0fe8e93          	addi	t4,t4,-241 # ff0fff0f <io+0x7f0fff0f>
     bfc:	00700e13          	li	t3,7
     c00:	3fd11863          	bne	sp,t4,ff0 <fail>

00000c04 <test_8>:
     c04:	ff0100b7          	lui	ra,0xff010
     c08:	f0008093          	addi	ra,ra,-256 # ff00ff00 <io+0x7f00ff00>
     c0c:	0010e0b3          	or	ra,ra,ra
     c10:	ff010eb7          	lui	t4,0xff010
     c14:	f00e8e93          	addi	t4,t4,-256 # ff00ff00 <io+0x7f00ff00>
     c18:	00800e13          	li	t3,8
     c1c:	3dd09a63          	bne	ra,t4,ff0 <fail>

00000c20 <test_9>:
     c20:	00000213          	li	tp,0
     c24:	ff0100b7          	lui	ra,0xff010
     c28:	f0008093          	addi	ra,ra,-256 # ff00ff00 <io+0x7f00ff00>
     c2c:	0f0f1137          	lui	sp,0xf0f1
     c30:	f0f10113          	addi	sp,sp,-241 # f0f0f0f <tdat10+0xf0e80f6>
     c34:	0020e1b3          	or	gp,ra,sp
     c38:	00018313          	mv	t1,gp
     c3c:	00120213          	addi	tp,tp,1 # 1 <boot+0x1>
     c40:	00200293          	li	t0,2
     c44:	fe5210e3          	bne	tp,t0,c24 <test_9+0x4>
     c48:	ff100eb7          	lui	t4,0xff100
     c4c:	f0fe8e93          	addi	t4,t4,-241 # ff0fff0f <io+0x7f0fff0f>
     c50:	00900e13          	li	t3,9
     c54:	39d31e63          	bne	t1,t4,ff0 <fail>

00000c58 <test_10>:
     c58:	00000213          	li	tp,0
     c5c:	0ff010b7          	lui	ra,0xff01
     c60:	ff008093          	addi	ra,ra,-16 # ff00ff0 <tdat10+0xfef81d7>
     c64:	f0f0f137          	lui	sp,0xf0f0f
     c68:	0f010113          	addi	sp,sp,240 # f0f0f0f0 <io+0x70f0f0f0>
     c6c:	0020e1b3          	or	gp,ra,sp
     c70:	00000013          	nop
     c74:	00018313          	mv	t1,gp
     c78:	00120213          	addi	tp,tp,1 # 1 <boot+0x1>
     c7c:	00200293          	li	t0,2
     c80:	fc521ee3          	bne	tp,t0,c5c <test_10+0x4>
     c84:	fff10eb7          	lui	t4,0xfff10
     c88:	ff0e8e93          	addi	t4,t4,-16 # fff0fff0 <io+0x7ff0fff0>
     c8c:	00a00e13          	li	t3,10
     c90:	37d31063          	bne	t1,t4,ff0 <fail>

00000c94 <test_11>:
     c94:	00000213          	li	tp,0
     c98:	00ff00b7          	lui	ra,0xff0
     c9c:	0ff08093          	addi	ra,ra,255 # ff00ff <tdat10+0xfe72e6>
     ca0:	0f0f1137          	lui	sp,0xf0f1
     ca4:	f0f10113          	addi	sp,sp,-241 # f0f0f0f <tdat10+0xf0e80f6>
     ca8:	0020e1b3          	or	gp,ra,sp
     cac:	00000013          	nop
     cb0:	00000013          	nop
     cb4:	00018313          	mv	t1,gp
     cb8:	00120213          	addi	tp,tp,1 # 1 <boot+0x1>
     cbc:	00200293          	li	t0,2
     cc0:	fc521ce3          	bne	tp,t0,c98 <test_11+0x4>
     cc4:	0fff1eb7          	lui	t4,0xfff1
     cc8:	fffe8e93          	addi	t4,t4,-1 # fff0fff <tdat10+0xffe81e6>
     ccc:	00b00e13          	li	t3,11
     cd0:	33d31063          	bne	t1,t4,ff0 <fail>

00000cd4 <test_12>:
     cd4:	00000213          	li	tp,0
     cd8:	ff0100b7          	lui	ra,0xff010
     cdc:	f0008093          	addi	ra,ra,-256 # ff00ff00 <io+0x7f00ff00>
     ce0:	0f0f1137          	lui	sp,0xf0f1
     ce4:	f0f10113          	addi	sp,sp,-241 # f0f0f0f <tdat10+0xf0e80f6>
     ce8:	0020e1b3          	or	gp,ra,sp
     cec:	00120213          	addi	tp,tp,1 # 1 <boot+0x1>
     cf0:	00200293          	li	t0,2
     cf4:	fe5212e3          	bne	tp,t0,cd8 <test_12+0x4>
     cf8:	ff100eb7          	lui	t4,0xff100
     cfc:	f0fe8e93          	addi	t4,t4,-241 # ff0fff0f <io+0x7f0fff0f>
     d00:	00c00e13          	li	t3,12
     d04:	2fd19663          	bne	gp,t4,ff0 <fail>

00000d08 <test_13>:
     d08:	00000213          	li	tp,0
     d0c:	0ff010b7          	lui	ra,0xff01
     d10:	ff008093          	addi	ra,ra,-16 # ff00ff0 <tdat10+0xfef81d7>
     d14:	f0f0f137          	lui	sp,0xf0f0f
     d18:	0f010113          	addi	sp,sp,240 # f0f0f0f0 <io+0x70f0f0f0>
     d1c:	00000013          	nop
     d20:	0020e1b3          	or	gp,ra,sp
     d24:	00120213          	addi	tp,tp,1 # 1 <boot+0x1>
     d28:	00200293          	li	t0,2
     d2c:	fe5210e3          	bne	tp,t0,d0c <test_13+0x4>
     d30:	fff10eb7          	lui	t4,0xfff10
     d34:	ff0e8e93          	addi	t4,t4,-16 # fff0fff0 <io+0x7ff0fff0>
     d38:	00d00e13          	li	t3,13
     d3c:	2bd19a63          	bne	gp,t4,ff0 <fail>

00000d40 <test_14>:
     d40:	00000213          	li	tp,0
     d44:	00ff00b7          	lui	ra,0xff0
     d48:	0ff08093          	addi	ra,ra,255 # ff00ff <tdat10+0xfe72e6>
     d4c:	0f0f1137          	lui	sp,0xf0f1
     d50:	f0f10113          	addi	sp,sp,-241 # f0f0f0f <tdat10+0xf0e80f6>
     d54:	00000013          	nop
     d58:	00000013          	nop
     d5c:	0020e1b3          	or	gp,ra,sp
     d60:	00120213          	addi	tp,tp,1 # 1 <boot+0x1>
     d64:	00200293          	li	t0,2
     d68:	fc521ee3          	bne	tp,t0,d44 <test_14+0x4>
     d6c:	0fff1eb7          	lui	t4,0xfff1
     d70:	fffe8e93          	addi	t4,t4,-1 # fff0fff <tdat10+0xffe81e6>
     d74:	00e00e13          	li	t3,14
     d78:	27d19c63          	bne	gp,t4,ff0 <fail>

00000d7c <test_15>:
     d7c:	00000213          	li	tp,0
     d80:	ff0100b7          	lui	ra,0xff010
     d84:	f0008093          	addi	ra,ra,-256 # ff00ff00 <io+0x7f00ff00>
     d88:	00000013          	nop
     d8c:	0f0f1137          	lui	sp,0xf0f1
     d90:	f0f10113          	addi	sp,sp,-241 # f0f0f0f <tdat10+0xf0e80f6>
     d94:	0020e1b3          	or	gp,ra,sp
     d98:	00120213          	addi	tp,tp,1 # 1 <boot+0x1>
     d9c:	00200293          	li	t0,2
     da0:	fe5210e3          	bne	tp,t0,d80 <test_15+0x4>
     da4:	ff100eb7          	lui	t4,0xff100
     da8:	f0fe8e93          	addi	t4,t4,-241 # ff0fff0f <io+0x7f0fff0f>
     dac:	00f00e13          	li	t3,15
     db0:	25d19063          	bne	gp,t4,ff0 <fail>

00000db4 <test_16>:
     db4:	00000213          	li	tp,0
     db8:	0ff010b7          	lui	ra,0xff01
     dbc:	ff008093          	addi	ra,ra,-16 # ff00ff0 <tdat10+0xfef81d7>
     dc0:	00000013          	nop
     dc4:	f0f0f137          	lui	sp,0xf0f0f
     dc8:	0f010113          	addi	sp,sp,240 # f0f0f0f0 <io+0x70f0f0f0>
     dcc:	00000013          	nop
     dd0:	0020e1b3          	or	gp,ra,sp
     dd4:	00120213          	addi	tp,tp,1 # 1 <boot+0x1>
     dd8:	00200293          	li	t0,2
     ddc:	fc521ee3          	bne	tp,t0,db8 <test_16+0x4>
     de0:	fff10eb7          	lui	t4,0xfff10
     de4:	ff0e8e93          	addi	t4,t4,-16 # fff0fff0 <io+0x7ff0fff0>
     de8:	01000e13          	li	t3,16
     dec:	21d19263          	bne	gp,t4,ff0 <fail>

00000df0 <test_17>:
     df0:	00000213          	li	tp,0
     df4:	00ff00b7          	lui	ra,0xff0
     df8:	0ff08093          	addi	ra,ra,255 # ff00ff <tdat10+0xfe72e6>
     dfc:	00000013          	nop
     e00:	00000013          	nop
     e04:	0f0f1137          	lui	sp,0xf0f1
     e08:	f0f10113          	addi	sp,sp,-241 # f0f0f0f <tdat10+0xf0e80f6>
     e0c:	0020e1b3          	or	gp,ra,sp
     e10:	00120213          	addi	tp,tp,1 # 1 <boot+0x1>
     e14:	00200293          	li	t0,2
     e18:	fc521ee3          	bne	tp,t0,df4 <test_17+0x4>
     e1c:	0fff1eb7          	lui	t4,0xfff1
     e20:	fffe8e93          	addi	t4,t4,-1 # fff0fff <tdat10+0xffe81e6>
     e24:	01100e13          	li	t3,17
     e28:	1dd19463          	bne	gp,t4,ff0 <fail>

00000e2c <test_18>:
     e2c:	00000213          	li	tp,0
     e30:	0f0f1137          	lui	sp,0xf0f1
     e34:	f0f10113          	addi	sp,sp,-241 # f0f0f0f <tdat10+0xf0e80f6>
     e38:	ff0100b7          	lui	ra,0xff010
     e3c:	f0008093          	addi	ra,ra,-256 # ff00ff00 <io+0x7f00ff00>
     e40:	0020e1b3          	or	gp,ra,sp
     e44:	00120213          	addi	tp,tp,1 # 1 <boot+0x1>
     e48:	00200293          	li	t0,2
     e4c:	fe5212e3          	bne	tp,t0,e30 <test_18+0x4>
     e50:	ff100eb7          	lui	t4,0xff100
     e54:	f0fe8e93          	addi	t4,t4,-241 # ff0fff0f <io+0x7f0fff0f>
     e58:	01200e13          	li	t3,18
     e5c:	19d19a63          	bne	gp,t4,ff0 <fail>

00000e60 <test_19>:
     e60:	00000213          	li	tp,0
     e64:	f0f0f137          	lui	sp,0xf0f0f
     e68:	0f010113          	addi	sp,sp,240 # f0f0f0f0 <io+0x70f0f0f0>
     e6c:	0ff010b7          	lui	ra,0xff01
     e70:	ff008093          	addi	ra,ra,-16 # ff00ff0 <tdat10+0xfef81d7>
     e74:	00000013          	nop
     e78:	0020e1b3          	or	gp,ra,sp
     e7c:	00120213          	addi	tp,tp,1 # 1 <boot+0x1>
     e80:	00200293          	li	t0,2
     e84:	fe5210e3          	bne	tp,t0,e64 <test_19+0x4>
     e88:	fff10eb7          	lui	t4,0xfff10
     e8c:	ff0e8e93          	addi	t4,t4,-16 # fff0fff0 <io+0x7ff0fff0>
     e90:	01300e13          	li	t3,19
     e94:	15d19e63          	bne	gp,t4,ff0 <fail>

00000e98 <test_20>:
     e98:	00000213          	li	tp,0
     e9c:	0f0f1137          	lui	sp,0xf0f1
     ea0:	f0f10113          	addi	sp,sp,-241 # f0f0f0f <tdat10+0xf0e80f6>
     ea4:	00ff00b7          	lui	ra,0xff0
     ea8:	0ff08093          	addi	ra,ra,255 # ff00ff <tdat10+0xfe72e6>
     eac:	00000013          	nop
     eb0:	00000013          	nop
     eb4:	0020e1b3          	or	gp,ra,sp
     eb8:	00120213          	addi	tp,tp,1 # 1 <boot+0x1>
     ebc:	00200293          	li	t0,2
     ec0:	fc521ee3          	bne	tp,t0,e9c <test_20+0x4>
     ec4:	0fff1eb7          	lui	t4,0xfff1
     ec8:	fffe8e93          	addi	t4,t4,-1 # fff0fff <tdat10+0xffe81e6>
     ecc:	01400e13          	li	t3,20
     ed0:	13d19063          	bne	gp,t4,ff0 <fail>

00000ed4 <test_21>:
     ed4:	00000213          	li	tp,0
     ed8:	0f0f1137          	lui	sp,0xf0f1
     edc:	f0f10113          	addi	sp,sp,-241 # f0f0f0f <tdat10+0xf0e80f6>
     ee0:	00000013          	nop
     ee4:	ff0100b7          	lui	ra,0xff010
     ee8:	f0008093          	addi	ra,ra,-256 # ff00ff00 <io+0x7f00ff00>
     eec:	0020e1b3          	or	gp,ra,sp
     ef0:	00120213          	addi	tp,tp,1 # 1 <boot+0x1>
     ef4:	00200293          	li	t0,2
     ef8:	fe5210e3          	bne	tp,t0,ed8 <test_21+0x4>
     efc:	ff100eb7          	lui	t4,0xff100
     f00:	f0fe8e93          	addi	t4,t4,-241 # ff0fff0f <io+0x7f0fff0f>
     f04:	01500e13          	li	t3,21
     f08:	0fd19463          	bne	gp,t4,ff0 <fail>

00000f0c <test_22>:
     f0c:	00000213          	li	tp,0
     f10:	f0f0f137          	lui	sp,0xf0f0f
     f14:	0f010113          	addi	sp,sp,240 # f0f0f0f0 <io+0x70f0f0f0>
     f18:	00000013          	nop
     f1c:	0ff010b7          	lui	ra,0xff01
     f20:	ff008093          	addi	ra,ra,-16 # ff00ff0 <tdat10+0xfef81d7>
     f24:	00000013          	nop
     f28:	0020e1b3          	or	gp,ra,sp
     f2c:	00120213          	addi	tp,tp,1 # 1 <boot+0x1>
     f30:	00200293          	li	t0,2
     f34:	fc521ee3          	bne	tp,t0,f10 <test_22+0x4>
     f38:	fff10eb7          	lui	t4,0xfff10
     f3c:	ff0e8e93          	addi	t4,t4,-16 # fff0fff0 <io+0x7ff0fff0>
     f40:	01600e13          	li	t3,22
     f44:	0bd19663          	bne	gp,t4,ff0 <fail>

00000f48 <test_23>:
     f48:	00000213          	li	tp,0
     f4c:	0f0f1137          	lui	sp,0xf0f1
     f50:	f0f10113          	addi	sp,sp,-241 # f0f0f0f <tdat10+0xf0e80f6>
     f54:	00000013          	nop
     f58:	00000013          	nop
     f5c:	00ff00b7          	lui	ra,0xff0
     f60:	0ff08093          	addi	ra,ra,255 # ff00ff <tdat10+0xfe72e6>
     f64:	0020e1b3          	or	gp,ra,sp
     f68:	00120213          	addi	tp,tp,1 # 1 <boot+0x1>
     f6c:	00200293          	li	t0,2
     f70:	fc521ee3          	bne	tp,t0,f4c <test_23+0x4>
     f74:	0fff1eb7          	lui	t4,0xfff1
     f78:	fffe8e93          	addi	t4,t4,-1 # fff0fff <tdat10+0xffe81e6>
     f7c:	01700e13          	li	t3,23
     f80:	07d19863          	bne	gp,t4,ff0 <fail>

00000f84 <test_24>:
     f84:	ff0100b7          	lui	ra,0xff010
     f88:	f0008093          	addi	ra,ra,-256 # ff00ff00 <io+0x7f00ff00>
     f8c:	00106133          	or	sp,zero,ra
     f90:	ff010eb7          	lui	t4,0xff010
     f94:	f00e8e93          	addi	t4,t4,-256 # ff00ff00 <io+0x7f00ff00>
     f98:	01800e13          	li	t3,24
     f9c:	05d11a63          	bne	sp,t4,ff0 <fail>

00000fa0 <test_25>:
     fa0:	00ff00b7          	lui	ra,0xff0
     fa4:	0ff08093          	addi	ra,ra,255 # ff00ff <tdat10+0xfe72e6>
     fa8:	0000e133          	or	sp,ra,zero
     fac:	00ff0eb7          	lui	t4,0xff0
     fb0:	0ffe8e93          	addi	t4,t4,255 # ff00ff <tdat10+0xfe72e6>
     fb4:	01900e13          	li	t3,25
     fb8:	03d11c63          	bne	sp,t4,ff0 <fail>

00000fbc <test_26>:
     fbc:	000060b3          	or	ra,zero,zero
     fc0:	00000e93          	li	t4,0
     fc4:	01a00e13          	li	t3,26
     fc8:	03d09463          	bne	ra,t4,ff0 <fail>

00000fcc <test_27>:
     fcc:	111110b7          	lui	ra,0x11111
     fd0:	11108093          	addi	ra,ra,273 # 11111111 <tdat10+0x111082f8>
     fd4:	22222137          	lui	sp,0x22222
     fd8:	22210113          	addi	sp,sp,546 # 22222222 <tdat10+0x22219409>
     fdc:	0020e033          	or	zero,ra,sp
     fe0:	00000e93          	li	t4,0
     fe4:	01b00e13          	li	t3,27
     fe8:	01d01463          	bne	zero,t4,ff0 <fail>
     fec:	03c01c63          	bne	zero,t3,1024 <pass>

00000ff0 <fail>:
     ff0:	939ff0ef          	jal	ra,928 <failure>
     ff4:	10000537          	lui	a0,0x10000
     ff8:	04500593          	li	a1,69
     ffc:	05200613          	li	a2,82
    1000:	04f00693          	li	a3,79
    1004:	00a00713          	li	a4,10
    1008:	00b52023          	sw	a1,0(a0) # 10000000 <tdat10+0xfff71e7>
    100c:	00c52023          	sw	a2,0(a0)
    1010:	00c52023          	sw	a2,0(a0)
    1014:	00d52023          	sw	a3,0(a0)
    1018:	00c52023          	sw	a2,0(a0)
    101c:	00e52023          	sw	a4,0(a0)
    1020:	00100073          	ebreak

00001024 <pass>:
    1024:	00009137          	lui	sp,0x9
    1028:	90dff0ef          	jal	ra,934 <OK>
    102c:	00000013          	nop
    1030:	aa9ff06f          	j	ad8 <or_ret>

00001034 <xor>:
    1034:	00001537          	lui	a0,0x1
    1038:	05450513          	addi	a0,a0,84 # 1054 <.test_name>

0000103c <loop>:
    103c:	a58ff0ef          	jal	ra,294 <putstr>

00001040 <.prname_next>:
    1040:	00050583          	lb	a1,0(a0)
    1044:	00058a63          	beqz	a1,1058 <.prname_done>
    1048:	00b62023          	sw	a1,0(a2)
    104c:	00150513          	addi	a0,a0,1
    1050:	ff1ff06f          	j	1040 <.prname_next>

00001054 <.test_name>:
    1054:	6f78                	flw	fa4,92(a4)
    1056:	0072                	c.slli	zero,0x1c

00001058 <.prname_done>:
    1058:	02e00593          	li	a1,46
    105c:	00b62023          	sw	a1,0(a2)
    1060:	00b62023          	sw	a1,0(a2)

00001064 <test_2>:
    1064:	ff0100b7          	lui	ra,0xff010
    1068:	f0008093          	addi	ra,ra,-256 # ff00ff00 <io+0x7f00ff00>
    106c:	0f0f1137          	lui	sp,0xf0f1
    1070:	f0f10113          	addi	sp,sp,-241 # f0f0f0f <tdat10+0xf0e80f6>
    1074:	0020c1b3          	xor	gp,ra,sp
    1078:	f00ffeb7          	lui	t4,0xf00ff
    107c:	00fe8e93          	addi	t4,t4,15 # f00ff00f <io+0x700ff00f>
    1080:	00200e13          	li	t3,2
    1084:	4bd19063          	bne	gp,t4,1524 <fail>

00001088 <test_3>:
    1088:	0ff010b7          	lui	ra,0xff01
    108c:	ff008093          	addi	ra,ra,-16 # ff00ff0 <tdat10+0xfef81d7>
    1090:	f0f0f137          	lui	sp,0xf0f0f
    1094:	0f010113          	addi	sp,sp,240 # f0f0f0f0 <io+0x70f0f0f0>
    1098:	0020c1b3          	xor	gp,ra,sp
    109c:	ff010eb7          	lui	t4,0xff010
    10a0:	f00e8e93          	addi	t4,t4,-256 # ff00ff00 <io+0x7f00ff00>
    10a4:	00300e13          	li	t3,3
    10a8:	47d19e63          	bne	gp,t4,1524 <fail>

000010ac <test_4>:
    10ac:	00ff00b7          	lui	ra,0xff0
    10b0:	0ff08093          	addi	ra,ra,255 # ff00ff <tdat10+0xfe72e6>
    10b4:	0f0f1137          	lui	sp,0xf0f1
    10b8:	f0f10113          	addi	sp,sp,-241 # f0f0f0f <tdat10+0xf0e80f6>
    10bc:	0020c1b3          	xor	gp,ra,sp
    10c0:	0ff01eb7          	lui	t4,0xff01
    10c4:	ff0e8e93          	addi	t4,t4,-16 # ff00ff0 <tdat10+0xfef81d7>
    10c8:	00400e13          	li	t3,4
    10cc:	45d19c63          	bne	gp,t4,1524 <fail>

000010d0 <test_5>:
    10d0:	f00ff0b7          	lui	ra,0xf00ff
    10d4:	00f08093          	addi	ra,ra,15 # f00ff00f <io+0x700ff00f>
    10d8:	f0f0f137          	lui	sp,0xf0f0f
    10dc:	0f010113          	addi	sp,sp,240 # f0f0f0f0 <io+0x70f0f0f0>
    10e0:	0020c1b3          	xor	gp,ra,sp
    10e4:	00ff0eb7          	lui	t4,0xff0
    10e8:	0ffe8e93          	addi	t4,t4,255 # ff00ff <tdat10+0xfe72e6>
    10ec:	00500e13          	li	t3,5
    10f0:	43d19a63          	bne	gp,t4,1524 <fail>

000010f4 <test_6>:
    10f4:	ff0100b7          	lui	ra,0xff010
    10f8:	f0008093          	addi	ra,ra,-256 # ff00ff00 <io+0x7f00ff00>
    10fc:	0f0f1137          	lui	sp,0xf0f1
    1100:	f0f10113          	addi	sp,sp,-241 # f0f0f0f <tdat10+0xf0e80f6>
    1104:	0020c0b3          	xor	ra,ra,sp
    1108:	f00ffeb7          	lui	t4,0xf00ff
    110c:	00fe8e93          	addi	t4,t4,15 # f00ff00f <io+0x700ff00f>
    1110:	00600e13          	li	t3,6
    1114:	41d09863          	bne	ra,t4,1524 <fail>

00001118 <test_7>:
    1118:	ff0100b7          	lui	ra,0xff010
    111c:	f0008093          	addi	ra,ra,-256 # ff00ff00 <io+0x7f00ff00>
    1120:	0f0f1137          	lui	sp,0xf0f1
    1124:	f0f10113          	addi	sp,sp,-241 # f0f0f0f <tdat10+0xf0e80f6>
    1128:	0020c133          	xor	sp,ra,sp
    112c:	f00ffeb7          	lui	t4,0xf00ff
    1130:	00fe8e93          	addi	t4,t4,15 # f00ff00f <io+0x700ff00f>
    1134:	00700e13          	li	t3,7
    1138:	3fd11663          	bne	sp,t4,1524 <fail>

0000113c <test_8>:
    113c:	ff0100b7          	lui	ra,0xff010
    1140:	f0008093          	addi	ra,ra,-256 # ff00ff00 <io+0x7f00ff00>
    1144:	0010c0b3          	xor	ra,ra,ra
    1148:	00000e93          	li	t4,0
    114c:	00800e13          	li	t3,8
    1150:	3dd09a63          	bne	ra,t4,1524 <fail>

00001154 <test_9>:
    1154:	00000213          	li	tp,0
    1158:	ff0100b7          	lui	ra,0xff010
    115c:	f0008093          	addi	ra,ra,-256 # ff00ff00 <io+0x7f00ff00>
    1160:	0f0f1137          	lui	sp,0xf0f1
    1164:	f0f10113          	addi	sp,sp,-241 # f0f0f0f <tdat10+0xf0e80f6>
    1168:	0020c1b3          	xor	gp,ra,sp
    116c:	00018313          	mv	t1,gp
    1170:	00120213          	addi	tp,tp,1 # 1 <boot+0x1>
    1174:	00200293          	li	t0,2
    1178:	fe5210e3          	bne	tp,t0,1158 <test_9+0x4>
    117c:	f00ffeb7          	lui	t4,0xf00ff
    1180:	00fe8e93          	addi	t4,t4,15 # f00ff00f <io+0x700ff00f>
    1184:	00900e13          	li	t3,9
    1188:	39d31e63          	bne	t1,t4,1524 <fail>

0000118c <test_10>:
    118c:	00000213          	li	tp,0
    1190:	0ff010b7          	lui	ra,0xff01
    1194:	ff008093          	addi	ra,ra,-16 # ff00ff0 <tdat10+0xfef81d7>
    1198:	f0f0f137          	lui	sp,0xf0f0f
    119c:	0f010113          	addi	sp,sp,240 # f0f0f0f0 <io+0x70f0f0f0>
    11a0:	0020c1b3          	xor	gp,ra,sp
    11a4:	00000013          	nop
    11a8:	00018313          	mv	t1,gp
    11ac:	00120213          	addi	tp,tp,1 # 1 <boot+0x1>
    11b0:	00200293          	li	t0,2
    11b4:	fc521ee3          	bne	tp,t0,1190 <test_10+0x4>
    11b8:	ff010eb7          	lui	t4,0xff010
    11bc:	f00e8e93          	addi	t4,t4,-256 # ff00ff00 <io+0x7f00ff00>
    11c0:	00a00e13          	li	t3,10
    11c4:	37d31063          	bne	t1,t4,1524 <fail>

000011c8 <test_11>:
    11c8:	00000213          	li	tp,0
    11cc:	00ff00b7          	lui	ra,0xff0
    11d0:	0ff08093          	addi	ra,ra,255 # ff00ff <tdat10+0xfe72e6>
    11d4:	0f0f1137          	lui	sp,0xf0f1
    11d8:	f0f10113          	addi	sp,sp,-241 # f0f0f0f <tdat10+0xf0e80f6>
    11dc:	0020c1b3          	xor	gp,ra,sp
    11e0:	00000013          	nop
    11e4:	00000013          	nop
    11e8:	00018313          	mv	t1,gp
    11ec:	00120213          	addi	tp,tp,1 # 1 <boot+0x1>
    11f0:	00200293          	li	t0,2
    11f4:	fc521ce3          	bne	tp,t0,11cc <test_11+0x4>
    11f8:	0ff01eb7          	lui	t4,0xff01
    11fc:	ff0e8e93          	addi	t4,t4,-16 # ff00ff0 <tdat10+0xfef81d7>
    1200:	00b00e13          	li	t3,11
    1204:	33d31063          	bne	t1,t4,1524 <fail>

00001208 <test_12>:
    1208:	00000213          	li	tp,0
    120c:	ff0100b7          	lui	ra,0xff010
    1210:	f0008093          	addi	ra,ra,-256 # ff00ff00 <io+0x7f00ff00>
    1214:	0f0f1137          	lui	sp,0xf0f1
    1218:	f0f10113          	addi	sp,sp,-241 # f0f0f0f <tdat10+0xf0e80f6>
    121c:	0020c1b3          	xor	gp,ra,sp
    1220:	00120213          	addi	tp,tp,1 # 1 <boot+0x1>
    1224:	00200293          	li	t0,2
    1228:	fe5212e3          	bne	tp,t0,120c <test_12+0x4>
    122c:	f00ffeb7          	lui	t4,0xf00ff
    1230:	00fe8e93          	addi	t4,t4,15 # f00ff00f <io+0x700ff00f>
    1234:	00c00e13          	li	t3,12
    1238:	2fd19663          	bne	gp,t4,1524 <fail>

0000123c <test_13>:
    123c:	00000213          	li	tp,0
    1240:	0ff010b7          	lui	ra,0xff01
    1244:	ff008093          	addi	ra,ra,-16 # ff00ff0 <tdat10+0xfef81d7>
    1248:	f0f0f137          	lui	sp,0xf0f0f
    124c:	0f010113          	addi	sp,sp,240 # f0f0f0f0 <io+0x70f0f0f0>
    1250:	00000013          	nop
    1254:	0020c1b3          	xor	gp,ra,sp
    1258:	00120213          	addi	tp,tp,1 # 1 <boot+0x1>
    125c:	00200293          	li	t0,2
    1260:	fe5210e3          	bne	tp,t0,1240 <test_13+0x4>
    1264:	ff010eb7          	lui	t4,0xff010
    1268:	f00e8e93          	addi	t4,t4,-256 # ff00ff00 <io+0x7f00ff00>
    126c:	00d00e13          	li	t3,13
    1270:	2bd19a63          	bne	gp,t4,1524 <fail>

00001274 <test_14>:
    1274:	00000213          	li	tp,0
    1278:	00ff00b7          	lui	ra,0xff0
    127c:	0ff08093          	addi	ra,ra,255 # ff00ff <tdat10+0xfe72e6>
    1280:	0f0f1137          	lui	sp,0xf0f1
    1284:	f0f10113          	addi	sp,sp,-241 # f0f0f0f <tdat10+0xf0e80f6>
    1288:	00000013          	nop
    128c:	00000013          	nop
    1290:	0020c1b3          	xor	gp,ra,sp
    1294:	00120213          	addi	tp,tp,1 # 1 <boot+0x1>
    1298:	00200293          	li	t0,2
    129c:	fc521ee3          	bne	tp,t0,1278 <test_14+0x4>
    12a0:	0ff01eb7          	lui	t4,0xff01
    12a4:	ff0e8e93          	addi	t4,t4,-16 # ff00ff0 <tdat10+0xfef81d7>
    12a8:	00e00e13          	li	t3,14
    12ac:	27d19c63          	bne	gp,t4,1524 <fail>

000012b0 <test_15>:
    12b0:	00000213          	li	tp,0
    12b4:	ff0100b7          	lui	ra,0xff010
    12b8:	f0008093          	addi	ra,ra,-256 # ff00ff00 <io+0x7f00ff00>
    12bc:	00000013          	nop
    12c0:	0f0f1137          	lui	sp,0xf0f1
    12c4:	f0f10113          	addi	sp,sp,-241 # f0f0f0f <tdat10+0xf0e80f6>
    12c8:	0020c1b3          	xor	gp,ra,sp
    12cc:	00120213          	addi	tp,tp,1 # 1 <boot+0x1>
    12d0:	00200293          	li	t0,2
    12d4:	fe5210e3          	bne	tp,t0,12b4 <test_15+0x4>
    12d8:	f00ffeb7          	lui	t4,0xf00ff
    12dc:	00fe8e93          	addi	t4,t4,15 # f00ff00f <io+0x700ff00f>
    12e0:	00f00e13          	li	t3,15
    12e4:	25d19063          	bne	gp,t4,1524 <fail>

000012e8 <test_16>:
    12e8:	00000213          	li	tp,0
    12ec:	0ff010b7          	lui	ra,0xff01
    12f0:	ff008093          	addi	ra,ra,-16 # ff00ff0 <tdat10+0xfef81d7>
    12f4:	00000013          	nop
    12f8:	f0f0f137          	lui	sp,0xf0f0f
    12fc:	0f010113          	addi	sp,sp,240 # f0f0f0f0 <io+0x70f0f0f0>
    1300:	00000013          	nop
    1304:	0020c1b3          	xor	gp,ra,sp
    1308:	00120213          	addi	tp,tp,1 # 1 <boot+0x1>
    130c:	00200293          	li	t0,2
    1310:	fc521ee3          	bne	tp,t0,12ec <test_16+0x4>
    1314:	ff010eb7          	lui	t4,0xff010
    1318:	f00e8e93          	addi	t4,t4,-256 # ff00ff00 <io+0x7f00ff00>
    131c:	01000e13          	li	t3,16
    1320:	21d19263          	bne	gp,t4,1524 <fail>

00001324 <test_17>:
    1324:	00000213          	li	tp,0
    1328:	00ff00b7          	lui	ra,0xff0
    132c:	0ff08093          	addi	ra,ra,255 # ff00ff <tdat10+0xfe72e6>
    1330:	00000013          	nop
    1334:	00000013          	nop
    1338:	0f0f1137          	lui	sp,0xf0f1
    133c:	f0f10113          	addi	sp,sp,-241 # f0f0f0f <tdat10+0xf0e80f6>
    1340:	0020c1b3          	xor	gp,ra,sp
    1344:	00120213          	addi	tp,tp,1 # 1 <boot+0x1>
    1348:	00200293          	li	t0,2
    134c:	fc521ee3          	bne	tp,t0,1328 <test_17+0x4>
    1350:	0ff01eb7          	lui	t4,0xff01
    1354:	ff0e8e93          	addi	t4,t4,-16 # ff00ff0 <tdat10+0xfef81d7>
    1358:	01100e13          	li	t3,17
    135c:	1dd19463          	bne	gp,t4,1524 <fail>

00001360 <test_18>:
    1360:	00000213          	li	tp,0
    1364:	0f0f1137          	lui	sp,0xf0f1
    1368:	f0f10113          	addi	sp,sp,-241 # f0f0f0f <tdat10+0xf0e80f6>
    136c:	ff0100b7          	lui	ra,0xff010
    1370:	f0008093          	addi	ra,ra,-256 # ff00ff00 <io+0x7f00ff00>
    1374:	0020c1b3          	xor	gp,ra,sp
    1378:	00120213          	addi	tp,tp,1 # 1 <boot+0x1>
    137c:	00200293          	li	t0,2
    1380:	fe5212e3          	bne	tp,t0,1364 <test_18+0x4>
    1384:	f00ffeb7          	lui	t4,0xf00ff
    1388:	00fe8e93          	addi	t4,t4,15 # f00ff00f <io+0x700ff00f>
    138c:	01200e13          	li	t3,18
    1390:	19d19a63          	bne	gp,t4,1524 <fail>

00001394 <test_19>:
    1394:	00000213          	li	tp,0
    1398:	f0f0f137          	lui	sp,0xf0f0f
    139c:	0f010113          	addi	sp,sp,240 # f0f0f0f0 <io+0x70f0f0f0>
    13a0:	0ff010b7          	lui	ra,0xff01
    13a4:	ff008093          	addi	ra,ra,-16 # ff00ff0 <tdat10+0xfef81d7>
    13a8:	00000013          	nop
    13ac:	0020c1b3          	xor	gp,ra,sp
    13b0:	00120213          	addi	tp,tp,1 # 1 <boot+0x1>
    13b4:	00200293          	li	t0,2
    13b8:	fe5210e3          	bne	tp,t0,1398 <test_19+0x4>
    13bc:	ff010eb7          	lui	t4,0xff010
    13c0:	f00e8e93          	addi	t4,t4,-256 # ff00ff00 <io+0x7f00ff00>
    13c4:	01300e13          	li	t3,19
    13c8:	15d19e63          	bne	gp,t4,1524 <fail>

000013cc <test_20>:
    13cc:	00000213          	li	tp,0
    13d0:	0f0f1137          	lui	sp,0xf0f1
    13d4:	f0f10113          	addi	sp,sp,-241 # f0f0f0f <tdat10+0xf0e80f6>
    13d8:	00ff00b7          	lui	ra,0xff0
    13dc:	0ff08093          	addi	ra,ra,255 # ff00ff <tdat10+0xfe72e6>
    13e0:	00000013          	nop
    13e4:	00000013          	nop
    13e8:	0020c1b3          	xor	gp,ra,sp
    13ec:	00120213          	addi	tp,tp,1 # 1 <boot+0x1>
    13f0:	00200293          	li	t0,2
    13f4:	fc521ee3          	bne	tp,t0,13d0 <test_20+0x4>
    13f8:	0ff01eb7          	lui	t4,0xff01
    13fc:	ff0e8e93          	addi	t4,t4,-16 # ff00ff0 <tdat10+0xfef81d7>
    1400:	01400e13          	li	t3,20
    1404:	13d19063          	bne	gp,t4,1524 <fail>

00001408 <test_21>:
    1408:	00000213          	li	tp,0
    140c:	0f0f1137          	lui	sp,0xf0f1
    1410:	f0f10113          	addi	sp,sp,-241 # f0f0f0f <tdat10+0xf0e80f6>
    1414:	00000013          	nop
    1418:	ff0100b7          	lui	ra,0xff010
    141c:	f0008093          	addi	ra,ra,-256 # ff00ff00 <io+0x7f00ff00>
    1420:	0020c1b3          	xor	gp,ra,sp
    1424:	00120213          	addi	tp,tp,1 # 1 <boot+0x1>
    1428:	00200293          	li	t0,2
    142c:	fe5210e3          	bne	tp,t0,140c <test_21+0x4>
    1430:	f00ffeb7          	lui	t4,0xf00ff
    1434:	00fe8e93          	addi	t4,t4,15 # f00ff00f <io+0x700ff00f>
    1438:	01500e13          	li	t3,21
    143c:	0fd19463          	bne	gp,t4,1524 <fail>

00001440 <test_22>:
    1440:	00000213          	li	tp,0
    1444:	f0f0f137          	lui	sp,0xf0f0f
    1448:	0f010113          	addi	sp,sp,240 # f0f0f0f0 <io+0x70f0f0f0>
    144c:	00000013          	nop
    1450:	0ff010b7          	lui	ra,0xff01
    1454:	ff008093          	addi	ra,ra,-16 # ff00ff0 <tdat10+0xfef81d7>
    1458:	00000013          	nop
    145c:	0020c1b3          	xor	gp,ra,sp
    1460:	00120213          	addi	tp,tp,1 # 1 <boot+0x1>
    1464:	00200293          	li	t0,2
    1468:	fc521ee3          	bne	tp,t0,1444 <test_22+0x4>
    146c:	ff010eb7          	lui	t4,0xff010
    1470:	f00e8e93          	addi	t4,t4,-256 # ff00ff00 <io+0x7f00ff00>
    1474:	01600e13          	li	t3,22
    1478:	0bd19663          	bne	gp,t4,1524 <fail>

0000147c <test_23>:
    147c:	00000213          	li	tp,0
    1480:	0f0f1137          	lui	sp,0xf0f1
    1484:	f0f10113          	addi	sp,sp,-241 # f0f0f0f <tdat10+0xf0e80f6>
    1488:	00000013          	nop
    148c:	00000013          	nop
    1490:	00ff00b7          	lui	ra,0xff0
    1494:	0ff08093          	addi	ra,ra,255 # ff00ff <tdat10+0xfe72e6>
    1498:	0020c1b3          	xor	gp,ra,sp
    149c:	00120213          	addi	tp,tp,1 # 1 <boot+0x1>
    14a0:	00200293          	li	t0,2
    14a4:	fc521ee3          	bne	tp,t0,1480 <test_23+0x4>
    14a8:	0ff01eb7          	lui	t4,0xff01
    14ac:	ff0e8e93          	addi	t4,t4,-16 # ff00ff0 <tdat10+0xfef81d7>
    14b0:	01700e13          	li	t3,23
    14b4:	07d19863          	bne	gp,t4,1524 <fail>

000014b8 <test_24>:
    14b8:	ff0100b7          	lui	ra,0xff010
    14bc:	f0008093          	addi	ra,ra,-256 # ff00ff00 <io+0x7f00ff00>
    14c0:	00104133          	xor	sp,zero,ra
    14c4:	ff010eb7          	lui	t4,0xff010
    14c8:	f00e8e93          	addi	t4,t4,-256 # ff00ff00 <io+0x7f00ff00>
    14cc:	01800e13          	li	t3,24
    14d0:	05d11a63          	bne	sp,t4,1524 <fail>

000014d4 <test_25>:
    14d4:	00ff00b7          	lui	ra,0xff0
    14d8:	0ff08093          	addi	ra,ra,255 # ff00ff <tdat10+0xfe72e6>
    14dc:	0000c133          	xor	sp,ra,zero
    14e0:	00ff0eb7          	lui	t4,0xff0
    14e4:	0ffe8e93          	addi	t4,t4,255 # ff00ff <tdat10+0xfe72e6>
    14e8:	01900e13          	li	t3,25
    14ec:	03d11c63          	bne	sp,t4,1524 <fail>

000014f0 <test_26>:
    14f0:	000040b3          	xor	ra,zero,zero
    14f4:	00000e93          	li	t4,0
    14f8:	01a00e13          	li	t3,26
    14fc:	03d09463          	bne	ra,t4,1524 <fail>

00001500 <test_27>:
    1500:	111110b7          	lui	ra,0x11111
    1504:	11108093          	addi	ra,ra,273 # 11111111 <tdat10+0x111082f8>
    1508:	22222137          	lui	sp,0x22222
    150c:	22210113          	addi	sp,sp,546 # 22222222 <tdat10+0x22219409>
    1510:	0020c033          	xor	zero,ra,sp
    1514:	00000e93          	li	t4,0
    1518:	01b00e13          	li	t3,27
    151c:	01d01463          	bne	zero,t4,1524 <fail>
    1520:	03c01c63          	bne	zero,t3,1558 <pass>

00001524 <fail>:
    1524:	c04ff0ef          	jal	ra,928 <failure>
    1528:	10000537          	lui	a0,0x10000
    152c:	04500593          	li	a1,69
    1530:	05200613          	li	a2,82
    1534:	04f00693          	li	a3,79
    1538:	00a00713          	li	a4,10
    153c:	00b52023          	sw	a1,0(a0) # 10000000 <tdat10+0xfff71e7>
    1540:	00c52023          	sw	a2,0(a0)
    1544:	00c52023          	sw	a2,0(a0)
    1548:	00d52023          	sw	a3,0(a0)
    154c:	00c52023          	sw	a2,0(a0)
    1550:	00e52023          	sw	a4,0(a0)
    1554:	00100073          	ebreak

00001558 <pass>:
    1558:	00009137          	lui	sp,0x9
    155c:	bd8ff0ef          	jal	ra,934 <OK>
    1560:	00000013          	nop
    1564:	d5cff06f          	j	ac0 <xor_ret>

00001568 <sh>:
    1568:	00001537          	lui	a0,0x1
    156c:	58850513          	addi	a0,a0,1416 # 1588 <.test_name>

00001570 <loop>:
    1570:	d25fe0ef          	jal	ra,294 <putstr>

00001574 <.prname_next>:
    1574:	00050583          	lb	a1,0(a0)
    1578:	00058a63          	beqz	a1,158c <.prname_done>
    157c:	00b62023          	sw	a1,0(a2)
    1580:	00150513          	addi	a0,a0,1
    1584:	ff1ff06f          	j	1574 <.prname_next>

00001588 <.test_name>:
    1588:	00006873          	csrrsi	a6,ustatus,0

0000158c <.prname_done>:
    158c:	02e00593          	li	a1,46
    1590:	00b62023          	sw	a1,0(a2)
    1594:	00b62023          	sw	a1,0(a2)

00001598 <test_2>:
    1598:	00008097          	auipc	ra,0x8
    159c:	81408093          	addi	ra,ra,-2028 # 8dac <tdat>
    15a0:	0aa00113          	li	sp,170
    15a4:	00209023          	sh	sp,0(ra)
    15a8:	00009183          	lh	gp,0(ra)
    15ac:	0aa00e93          	li	t4,170
    15b0:	00200e13          	li	t3,2
    15b4:	45d19e63          	bne	gp,t4,1a10 <fail>

000015b8 <test_3>:
    15b8:	00007097          	auipc	ra,0x7
    15bc:	7f408093          	addi	ra,ra,2036 # 8dac <tdat>
    15c0:	ffffb137          	lui	sp,0xffffb
    15c4:	a0010113          	addi	sp,sp,-1536 # ffffaa00 <io+0x7fffaa00>
    15c8:	00209123          	sh	sp,2(ra)
    15cc:	00209183          	lh	gp,2(ra)
    15d0:	ffffbeb7          	lui	t4,0xffffb
    15d4:	a00e8e93          	addi	t4,t4,-1536 # ffffaa00 <io+0x7fffaa00>
    15d8:	00300e13          	li	t3,3
    15dc:	43d19a63          	bne	gp,t4,1a10 <fail>

000015e0 <test_4>:
    15e0:	00007097          	auipc	ra,0x7
    15e4:	7cc08093          	addi	ra,ra,1996 # 8dac <tdat>
    15e8:	beef1137          	lui	sp,0xbeef1
    15ec:	aa010113          	addi	sp,sp,-1376 # beef0aa0 <io+0x3eef0aa0>
    15f0:	00209223          	sh	sp,4(ra)
    15f4:	0040a183          	lw	gp,4(ra)
    15f8:	beef1eb7          	lui	t4,0xbeef1
    15fc:	aa0e8e93          	addi	t4,t4,-1376 # beef0aa0 <io+0x3eef0aa0>
    1600:	00400e13          	li	t3,4
    1604:	41d19663          	bne	gp,t4,1a10 <fail>

00001608 <test_5>:
    1608:	00007097          	auipc	ra,0x7
    160c:	7a408093          	addi	ra,ra,1956 # 8dac <tdat>
    1610:	ffffa137          	lui	sp,0xffffa
    1614:	00a10113          	addi	sp,sp,10 # ffffa00a <io+0x7fffa00a>
    1618:	00209323          	sh	sp,6(ra)
    161c:	00609183          	lh	gp,6(ra)
    1620:	ffffaeb7          	lui	t4,0xffffa
    1624:	00ae8e93          	addi	t4,t4,10 # ffffa00a <io+0x7fffa00a>
    1628:	00500e13          	li	t3,5
    162c:	3fd19263          	bne	gp,t4,1a10 <fail>

00001630 <test_6>:
    1630:	00007097          	auipc	ra,0x7
    1634:	78a08093          	addi	ra,ra,1930 # 8dba <tdat8>
    1638:	0aa00113          	li	sp,170
    163c:	fe209d23          	sh	sp,-6(ra)
    1640:	ffa09183          	lh	gp,-6(ra)
    1644:	0aa00e93          	li	t4,170
    1648:	00600e13          	li	t3,6
    164c:	3dd19263          	bne	gp,t4,1a10 <fail>

00001650 <test_7>:
    1650:	00007097          	auipc	ra,0x7
    1654:	76a08093          	addi	ra,ra,1898 # 8dba <tdat8>
    1658:	ffffb137          	lui	sp,0xffffb
    165c:	a0010113          	addi	sp,sp,-1536 # ffffaa00 <io+0x7fffaa00>
    1660:	fe209e23          	sh	sp,-4(ra)
    1664:	ffc09183          	lh	gp,-4(ra)
    1668:	ffffbeb7          	lui	t4,0xffffb
    166c:	a00e8e93          	addi	t4,t4,-1536 # ffffaa00 <io+0x7fffaa00>
    1670:	00700e13          	li	t3,7
    1674:	39d19e63          	bne	gp,t4,1a10 <fail>

00001678 <test_8>:
    1678:	00007097          	auipc	ra,0x7
    167c:	74208093          	addi	ra,ra,1858 # 8dba <tdat8>
    1680:	00001137          	lui	sp,0x1
    1684:	aa010113          	addi	sp,sp,-1376 # aa0 <add_ret>
    1688:	fe209f23          	sh	sp,-2(ra)
    168c:	ffe09183          	lh	gp,-2(ra)
    1690:	00001eb7          	lui	t4,0x1
    1694:	aa0e8e93          	addi	t4,t4,-1376 # aa0 <add_ret>
    1698:	00800e13          	li	t3,8
    169c:	37d19a63          	bne	gp,t4,1a10 <fail>

000016a0 <test_9>:
    16a0:	00007097          	auipc	ra,0x7
    16a4:	71a08093          	addi	ra,ra,1818 # 8dba <tdat8>
    16a8:	ffffa137          	lui	sp,0xffffa
    16ac:	00a10113          	addi	sp,sp,10 # ffffa00a <io+0x7fffa00a>
    16b0:	00209023          	sh	sp,0(ra)
    16b4:	00009183          	lh	gp,0(ra)
    16b8:	ffffaeb7          	lui	t4,0xffffa
    16bc:	00ae8e93          	addi	t4,t4,10 # ffffa00a <io+0x7fffa00a>
    16c0:	00900e13          	li	t3,9
    16c4:	35d19663          	bne	gp,t4,1a10 <fail>

000016c8 <test_10>:
    16c8:	00007097          	auipc	ra,0x7
    16cc:	6f408093          	addi	ra,ra,1780 # 8dbc <tdat9>
    16d0:	12345137          	lui	sp,0x12345
    16d4:	67810113          	addi	sp,sp,1656 # 12345678 <tdat10+0x1233c85f>
    16d8:	fe008213          	addi	tp,ra,-32
    16dc:	02221023          	sh	sp,32(tp) # 20 <boot+0x20>
    16e0:	00009183          	lh	gp,0(ra)
    16e4:	00005eb7          	lui	t4,0x5
    16e8:	678e8e93          	addi	t4,t4,1656 # 5678 <test_18>
    16ec:	00a00e13          	li	t3,10
    16f0:	33d19063          	bne	gp,t4,1a10 <fail>

000016f4 <test_11>:
    16f4:	00007097          	auipc	ra,0x7
    16f8:	6c808093          	addi	ra,ra,1736 # 8dbc <tdat9>
    16fc:	00003137          	lui	sp,0x3
    1700:	09810113          	addi	sp,sp,152 # 3098 <test_17+0x14>
    1704:	ffb08093          	addi	ra,ra,-5
    1708:	002093a3          	sh	sp,7(ra)
    170c:	00007217          	auipc	tp,0x7
    1710:	6b220213          	addi	tp,tp,1714 # 8dbe <tdat10>
    1714:	00021183          	lh	gp,0(tp) # 0 <boot>
    1718:	00003eb7          	lui	t4,0x3
    171c:	098e8e93          	addi	t4,t4,152 # 3098 <test_17+0x14>
    1720:	00b00e13          	li	t3,11
    1724:	2fd19663          	bne	gp,t4,1a10 <fail>

00001728 <test_12>:
    1728:	00c00e13          	li	t3,12
    172c:	00000213          	li	tp,0
    1730:	ffffd0b7          	lui	ra,0xffffd
    1734:	cdd08093          	addi	ra,ra,-803 # ffffccdd <io+0x7fffccdd>
    1738:	00007117          	auipc	sp,0x7
    173c:	67410113          	addi	sp,sp,1652 # 8dac <tdat>
    1740:	00111023          	sh	ra,0(sp)
    1744:	00011183          	lh	gp,0(sp)
    1748:	ffffdeb7          	lui	t4,0xffffd
    174c:	cdde8e93          	addi	t4,t4,-803 # ffffccdd <io+0x7fffccdd>
    1750:	2dd19063          	bne	gp,t4,1a10 <fail>
    1754:	00120213          	addi	tp,tp,1 # 1 <boot+0x1>
    1758:	00200293          	li	t0,2
    175c:	fc521ae3          	bne	tp,t0,1730 <test_12+0x8>

00001760 <test_13>:
    1760:	00d00e13          	li	t3,13
    1764:	00000213          	li	tp,0
    1768:	ffffc0b7          	lui	ra,0xffffc
    176c:	ccd08093          	addi	ra,ra,-819 # ffffbccd <io+0x7fffbccd>
    1770:	00007117          	auipc	sp,0x7
    1774:	63c10113          	addi	sp,sp,1596 # 8dac <tdat>
    1778:	00000013          	nop
    177c:	00111123          	sh	ra,2(sp)
    1780:	00211183          	lh	gp,2(sp)
    1784:	ffffceb7          	lui	t4,0xffffc
    1788:	ccde8e93          	addi	t4,t4,-819 # ffffbccd <io+0x7fffbccd>
    178c:	29d19263          	bne	gp,t4,1a10 <fail>
    1790:	00120213          	addi	tp,tp,1 # 1 <boot+0x1>
    1794:	00200293          	li	t0,2
    1798:	fc5218e3          	bne	tp,t0,1768 <test_13+0x8>

0000179c <test_14>:
    179c:	00e00e13          	li	t3,14
    17a0:	00000213          	li	tp,0
    17a4:	ffffc0b7          	lui	ra,0xffffc
    17a8:	bcc08093          	addi	ra,ra,-1076 # ffffbbcc <io+0x7fffbbcc>
    17ac:	00007117          	auipc	sp,0x7
    17b0:	60010113          	addi	sp,sp,1536 # 8dac <tdat>
    17b4:	00000013          	nop
    17b8:	00000013          	nop
    17bc:	00111223          	sh	ra,4(sp)
    17c0:	00411183          	lh	gp,4(sp)
    17c4:	ffffceb7          	lui	t4,0xffffc
    17c8:	bcce8e93          	addi	t4,t4,-1076 # ffffbbcc <io+0x7fffbbcc>
    17cc:	25d19263          	bne	gp,t4,1a10 <fail>
    17d0:	00120213          	addi	tp,tp,1 # 1 <boot+0x1>
    17d4:	00200293          	li	t0,2
    17d8:	fc5216e3          	bne	tp,t0,17a4 <test_14+0x8>

000017dc <test_15>:
    17dc:	00f00e13          	li	t3,15
    17e0:	00000213          	li	tp,0
    17e4:	ffffb0b7          	lui	ra,0xffffb
    17e8:	bbc08093          	addi	ra,ra,-1092 # ffffabbc <io+0x7fffabbc>
    17ec:	00000013          	nop
    17f0:	00007117          	auipc	sp,0x7
    17f4:	5bc10113          	addi	sp,sp,1468 # 8dac <tdat>
    17f8:	00111323          	sh	ra,6(sp)
    17fc:	00611183          	lh	gp,6(sp)
    1800:	ffffbeb7          	lui	t4,0xffffb
    1804:	bbce8e93          	addi	t4,t4,-1092 # ffffabbc <io+0x7fffabbc>
    1808:	21d19463          	bne	gp,t4,1a10 <fail>
    180c:	00120213          	addi	tp,tp,1 # 1 <boot+0x1>
    1810:	00200293          	li	t0,2
    1814:	fc5218e3          	bne	tp,t0,17e4 <test_15+0x8>

00001818 <test_16>:
    1818:	01000e13          	li	t3,16
    181c:	00000213          	li	tp,0
    1820:	ffffb0b7          	lui	ra,0xffffb
    1824:	abb08093          	addi	ra,ra,-1349 # ffffaabb <io+0x7fffaabb>
    1828:	00000013          	nop
    182c:	00007117          	auipc	sp,0x7
    1830:	58010113          	addi	sp,sp,1408 # 8dac <tdat>
    1834:	00000013          	nop
    1838:	00111423          	sh	ra,8(sp)
    183c:	00811183          	lh	gp,8(sp)
    1840:	ffffbeb7          	lui	t4,0xffffb
    1844:	abbe8e93          	addi	t4,t4,-1349 # ffffaabb <io+0x7fffaabb>
    1848:	1dd19463          	bne	gp,t4,1a10 <fail>
    184c:	00120213          	addi	tp,tp,1 # 1 <boot+0x1>
    1850:	00200293          	li	t0,2
    1854:	fc5216e3          	bne	tp,t0,1820 <test_16+0x8>

00001858 <test_17>:
    1858:	01100e13          	li	t3,17
    185c:	00000213          	li	tp,0
    1860:	ffffe0b7          	lui	ra,0xffffe
    1864:	aab08093          	addi	ra,ra,-1365 # ffffdaab <io+0x7fffdaab>
    1868:	00000013          	nop
    186c:	00000013          	nop
    1870:	00007117          	auipc	sp,0x7
    1874:	53c10113          	addi	sp,sp,1340 # 8dac <tdat>
    1878:	00111523          	sh	ra,10(sp)
    187c:	00a11183          	lh	gp,10(sp)
    1880:	ffffeeb7          	lui	t4,0xffffe
    1884:	aabe8e93          	addi	t4,t4,-1365 # ffffdaab <io+0x7fffdaab>
    1888:	19d19463          	bne	gp,t4,1a10 <fail>
    188c:	00120213          	addi	tp,tp,1 # 1 <boot+0x1>
    1890:	00200293          	li	t0,2
    1894:	fc5216e3          	bne	tp,t0,1860 <test_17+0x8>

00001898 <test_18>:
    1898:	01200e13          	li	t3,18
    189c:	00000213          	li	tp,0
    18a0:	00007117          	auipc	sp,0x7
    18a4:	50c10113          	addi	sp,sp,1292 # 8dac <tdat>
    18a8:	000020b7          	lui	ra,0x2
    18ac:	23308093          	addi	ra,ra,563 # 2233 <test_25+0x17>
    18b0:	00111023          	sh	ra,0(sp)
    18b4:	00011183          	lh	gp,0(sp)
    18b8:	00002eb7          	lui	t4,0x2
    18bc:	233e8e93          	addi	t4,t4,563 # 2233 <test_25+0x17>
    18c0:	15d19863          	bne	gp,t4,1a10 <fail>
    18c4:	00120213          	addi	tp,tp,1 # 1 <boot+0x1>
    18c8:	00200293          	li	t0,2
    18cc:	fc521ae3          	bne	tp,t0,18a0 <test_18+0x8>

000018d0 <test_19>:
    18d0:	01300e13          	li	t3,19
    18d4:	00000213          	li	tp,0
    18d8:	00007117          	auipc	sp,0x7
    18dc:	4d410113          	addi	sp,sp,1236 # 8dac <tdat>
    18e0:	000010b7          	lui	ra,0x1
    18e4:	22308093          	addi	ra,ra,547 # 1223 <test_12+0x1b>
    18e8:	00000013          	nop
    18ec:	00111123          	sh	ra,2(sp)
    18f0:	00211183          	lh	gp,2(sp)
    18f4:	00001eb7          	lui	t4,0x1
    18f8:	223e8e93          	addi	t4,t4,547 # 1223 <test_12+0x1b>
    18fc:	11d19a63          	bne	gp,t4,1a10 <fail>
    1900:	00120213          	addi	tp,tp,1 # 1 <boot+0x1>
    1904:	00200293          	li	t0,2
    1908:	fc5218e3          	bne	tp,t0,18d8 <test_19+0x8>

0000190c <test_20>:
    190c:	01400e13          	li	t3,20
    1910:	00000213          	li	tp,0
    1914:	00007117          	auipc	sp,0x7
    1918:	49810113          	addi	sp,sp,1176 # 8dac <tdat>
    191c:	000010b7          	lui	ra,0x1
    1920:	12208093          	addi	ra,ra,290 # 1122 <test_7+0xa>
    1924:	00000013          	nop
    1928:	00000013          	nop
    192c:	00111223          	sh	ra,4(sp)
    1930:	00411183          	lh	gp,4(sp)
    1934:	00001eb7          	lui	t4,0x1
    1938:	122e8e93          	addi	t4,t4,290 # 1122 <test_7+0xa>
    193c:	0dd19a63          	bne	gp,t4,1a10 <fail>
    1940:	00120213          	addi	tp,tp,1 # 1 <boot+0x1>
    1944:	00200293          	li	t0,2
    1948:	fc5216e3          	bne	tp,t0,1914 <test_20+0x8>

0000194c <test_21>:
    194c:	01500e13          	li	t3,21
    1950:	00000213          	li	tp,0
    1954:	00007117          	auipc	sp,0x7
    1958:	45810113          	addi	sp,sp,1112 # 8dac <tdat>
    195c:	00000013          	nop
    1960:	11200093          	li	ra,274
    1964:	00111323          	sh	ra,6(sp)
    1968:	00611183          	lh	gp,6(sp)
    196c:	11200e93          	li	t4,274
    1970:	0bd19063          	bne	gp,t4,1a10 <fail>
    1974:	00120213          	addi	tp,tp,1 # 1 <boot+0x1>
    1978:	00200293          	li	t0,2
    197c:	fc521ce3          	bne	tp,t0,1954 <test_21+0x8>

00001980 <test_22>:
    1980:	01600e13          	li	t3,22
    1984:	00000213          	li	tp,0
    1988:	00007117          	auipc	sp,0x7
    198c:	42410113          	addi	sp,sp,1060 # 8dac <tdat>
    1990:	00000013          	nop
    1994:	01100093          	li	ra,17
    1998:	00000013          	nop
    199c:	00111423          	sh	ra,8(sp)
    19a0:	00811183          	lh	gp,8(sp)
    19a4:	01100e93          	li	t4,17
    19a8:	07d19463          	bne	gp,t4,1a10 <fail>
    19ac:	00120213          	addi	tp,tp,1 # 1 <boot+0x1>
    19b0:	00200293          	li	t0,2
    19b4:	fc521ae3          	bne	tp,t0,1988 <test_22+0x8>

000019b8 <test_23>:
    19b8:	01700e13          	li	t3,23
    19bc:	00000213          	li	tp,0
    19c0:	00007117          	auipc	sp,0x7
    19c4:	3ec10113          	addi	sp,sp,1004 # 8dac <tdat>
    19c8:	00000013          	nop
    19cc:	00000013          	nop
    19d0:	000030b7          	lui	ra,0x3
    19d4:	00108093          	addi	ra,ra,1 # 3001 <test_13+0x21>
    19d8:	00111523          	sh	ra,10(sp)
    19dc:	00a11183          	lh	gp,10(sp)
    19e0:	00003eb7          	lui	t4,0x3
    19e4:	001e8e93          	addi	t4,t4,1 # 3001 <test_13+0x21>
    19e8:	03d19463          	bne	gp,t4,1a10 <fail>
    19ec:	00120213          	addi	tp,tp,1 # 1 <boot+0x1>
    19f0:	00200293          	li	t0,2
    19f4:	fc5216e3          	bne	tp,t0,19c0 <test_23+0x8>
    19f8:	0000c537          	lui	a0,0xc
    19fc:	eef50513          	addi	a0,a0,-273 # beef <tdat10+0x30d6>
    1a00:	00007597          	auipc	a1,0x7
    1a04:	3ac58593          	addi	a1,a1,940 # 8dac <tdat>
    1a08:	00a59323          	sh	a0,6(a1)
    1a0c:	03c01c63          	bne	zero,t3,1a44 <pass>

00001a10 <fail>:
    1a10:	f19fe0ef          	jal	ra,928 <failure>
    1a14:	10000537          	lui	a0,0x10000
    1a18:	04500593          	li	a1,69
    1a1c:	05200613          	li	a2,82
    1a20:	04f00693          	li	a3,79
    1a24:	00a00713          	li	a4,10
    1a28:	00b52023          	sw	a1,0(a0) # 10000000 <tdat10+0xfff71e7>
    1a2c:	00c52023          	sw	a2,0(a0)
    1a30:	00c52023          	sw	a2,0(a0)
    1a34:	00d52023          	sw	a3,0(a0)
    1a38:	00c52023          	sw	a2,0(a0)
    1a3c:	00e52023          	sw	a4,0(a0)
    1a40:	00100073          	ebreak

00001a44 <pass>:
    1a44:	00009137          	lui	sp,0x9
    1a48:	eedfe0ef          	jal	ra,934 <OK>
    1a4c:	00000013          	nop
    1a50:	800ff06f          	j	a50 <sh_ret>

00001a54 <sub>:
    1a54:	00002537          	lui	a0,0x2
    1a58:	a7450513          	addi	a0,a0,-1420 # 1a74 <.test_name>

00001a5c <loop>:
    1a5c:	839fe0ef          	jal	ra,294 <putstr>

00001a60 <.prname_next>:
    1a60:	00050583          	lb	a1,0(a0)
    1a64:	00058a63          	beqz	a1,1a78 <.prname_done>
    1a68:	00b62023          	sw	a1,0(a2)
    1a6c:	00150513          	addi	a0,a0,1
    1a70:	ff1ff06f          	j	1a60 <.prname_next>

00001a74 <.test_name>:
    1a74:	00627573          	csrrci	a0,0x6,4

00001a78 <.prname_done>:
    1a78:	02e00593          	li	a1,46
    1a7c:	00b62023          	sw	a1,0(a2)
    1a80:	00b62023          	sw	a1,0(a2)

00001a84 <test_2>:
    1a84:	00000093          	li	ra,0
    1a88:	00000113          	li	sp,0
    1a8c:	402081b3          	sub	gp,ra,sp
    1a90:	00000e93          	li	t4,0
    1a94:	00200e13          	li	t3,2
    1a98:	4bd19663          	bne	gp,t4,1f44 <fail>

00001a9c <test_3>:
    1a9c:	00100093          	li	ra,1
    1aa0:	00100113          	li	sp,1
    1aa4:	402081b3          	sub	gp,ra,sp
    1aa8:	00000e93          	li	t4,0
    1aac:	00300e13          	li	t3,3
    1ab0:	49d19a63          	bne	gp,t4,1f44 <fail>

00001ab4 <test_4>:
    1ab4:	00300093          	li	ra,3
    1ab8:	00700113          	li	sp,7
    1abc:	402081b3          	sub	gp,ra,sp
    1ac0:	ffc00e93          	li	t4,-4
    1ac4:	00400e13          	li	t3,4
    1ac8:	47d19e63          	bne	gp,t4,1f44 <fail>

00001acc <test_5>:
    1acc:	00000093          	li	ra,0
    1ad0:	ffff8137          	lui	sp,0xffff8
    1ad4:	402081b3          	sub	gp,ra,sp
    1ad8:	00008eb7          	lui	t4,0x8
    1adc:	00500e13          	li	t3,5
    1ae0:	47d19263          	bne	gp,t4,1f44 <fail>

00001ae4 <test_6>:
    1ae4:	800000b7          	lui	ra,0x80000
    1ae8:	00000113          	li	sp,0
    1aec:	402081b3          	sub	gp,ra,sp
    1af0:	80000eb7          	lui	t4,0x80000
    1af4:	00600e13          	li	t3,6
    1af8:	45d19663          	bne	gp,t4,1f44 <fail>

00001afc <test_7>:
    1afc:	800000b7          	lui	ra,0x80000
    1b00:	ffff8137          	lui	sp,0xffff8
    1b04:	402081b3          	sub	gp,ra,sp
    1b08:	80008eb7          	lui	t4,0x80008
    1b0c:	00700e13          	li	t3,7
    1b10:	43d19a63          	bne	gp,t4,1f44 <fail>

00001b14 <test_8>:
    1b14:	00000093          	li	ra,0
    1b18:	00008137          	lui	sp,0x8
    1b1c:	fff10113          	addi	sp,sp,-1 # 7fff <test_9+0x27>
    1b20:	402081b3          	sub	gp,ra,sp
    1b24:	ffff8eb7          	lui	t4,0xffff8
    1b28:	001e8e93          	addi	t4,t4,1 # ffff8001 <io+0x7fff8001>
    1b2c:	00800e13          	li	t3,8
    1b30:	41d19a63          	bne	gp,t4,1f44 <fail>

00001b34 <test_9>:
    1b34:	800000b7          	lui	ra,0x80000
    1b38:	fff08093          	addi	ra,ra,-1 # 7fffffff <io+0xffffffff>
    1b3c:	00000113          	li	sp,0
    1b40:	402081b3          	sub	gp,ra,sp
    1b44:	80000eb7          	lui	t4,0x80000
    1b48:	fffe8e93          	addi	t4,t4,-1 # 7fffffff <io+0xffffffff>
    1b4c:	00900e13          	li	t3,9
    1b50:	3fd19a63          	bne	gp,t4,1f44 <fail>

00001b54 <test_10>:
    1b54:	800000b7          	lui	ra,0x80000
    1b58:	fff08093          	addi	ra,ra,-1 # 7fffffff <io+0xffffffff>
    1b5c:	00008137          	lui	sp,0x8
    1b60:	fff10113          	addi	sp,sp,-1 # 7fff <test_9+0x27>
    1b64:	402081b3          	sub	gp,ra,sp
    1b68:	7fff8eb7          	lui	t4,0x7fff8
    1b6c:	00a00e13          	li	t3,10
    1b70:	3dd19a63          	bne	gp,t4,1f44 <fail>

00001b74 <test_11>:
    1b74:	800000b7          	lui	ra,0x80000
    1b78:	00008137          	lui	sp,0x8
    1b7c:	fff10113          	addi	sp,sp,-1 # 7fff <test_9+0x27>
    1b80:	402081b3          	sub	gp,ra,sp
    1b84:	7fff8eb7          	lui	t4,0x7fff8
    1b88:	001e8e93          	addi	t4,t4,1 # 7fff8001 <tdat10+0x7ffef1e8>
    1b8c:	00b00e13          	li	t3,11
    1b90:	3bd19a63          	bne	gp,t4,1f44 <fail>

00001b94 <test_12>:
    1b94:	800000b7          	lui	ra,0x80000
    1b98:	fff08093          	addi	ra,ra,-1 # 7fffffff <io+0xffffffff>
    1b9c:	ffff8137          	lui	sp,0xffff8
    1ba0:	402081b3          	sub	gp,ra,sp
    1ba4:	80008eb7          	lui	t4,0x80008
    1ba8:	fffe8e93          	addi	t4,t4,-1 # 80007fff <io+0x7fff>
    1bac:	00c00e13          	li	t3,12
    1bb0:	39d19a63          	bne	gp,t4,1f44 <fail>

00001bb4 <test_13>:
    1bb4:	00000093          	li	ra,0
    1bb8:	fff00113          	li	sp,-1
    1bbc:	402081b3          	sub	gp,ra,sp
    1bc0:	00100e93          	li	t4,1
    1bc4:	00d00e13          	li	t3,13
    1bc8:	37d19e63          	bne	gp,t4,1f44 <fail>

00001bcc <test_14>:
    1bcc:	fff00093          	li	ra,-1
    1bd0:	00100113          	li	sp,1
    1bd4:	402081b3          	sub	gp,ra,sp
    1bd8:	ffe00e93          	li	t4,-2
    1bdc:	00e00e13          	li	t3,14
    1be0:	37d19263          	bne	gp,t4,1f44 <fail>

00001be4 <test_15>:
    1be4:	fff00093          	li	ra,-1
    1be8:	fff00113          	li	sp,-1
    1bec:	402081b3          	sub	gp,ra,sp
    1bf0:	00000e93          	li	t4,0
    1bf4:	00f00e13          	li	t3,15
    1bf8:	35d19663          	bne	gp,t4,1f44 <fail>

00001bfc <test_16>:
    1bfc:	00d00093          	li	ra,13
    1c00:	00b00113          	li	sp,11
    1c04:	402080b3          	sub	ra,ra,sp
    1c08:	00200e93          	li	t4,2
    1c0c:	01000e13          	li	t3,16
    1c10:	33d09a63          	bne	ra,t4,1f44 <fail>

00001c14 <test_17>:
    1c14:	00e00093          	li	ra,14
    1c18:	00b00113          	li	sp,11
    1c1c:	40208133          	sub	sp,ra,sp
    1c20:	00300e93          	li	t4,3
    1c24:	01100e13          	li	t3,17
    1c28:	31d11e63          	bne	sp,t4,1f44 <fail>

00001c2c <test_18>:
    1c2c:	00d00093          	li	ra,13
    1c30:	401080b3          	sub	ra,ra,ra
    1c34:	00000e93          	li	t4,0
    1c38:	01200e13          	li	t3,18
    1c3c:	31d09463          	bne	ra,t4,1f44 <fail>

00001c40 <test_19>:
    1c40:	00000213          	li	tp,0
    1c44:	00d00093          	li	ra,13
    1c48:	00b00113          	li	sp,11
    1c4c:	402081b3          	sub	gp,ra,sp
    1c50:	00018313          	mv	t1,gp
    1c54:	00120213          	addi	tp,tp,1 # 1 <boot+0x1>
    1c58:	00200293          	li	t0,2
    1c5c:	fe5214e3          	bne	tp,t0,1c44 <test_19+0x4>
    1c60:	00200e93          	li	t4,2
    1c64:	01300e13          	li	t3,19
    1c68:	2dd31e63          	bne	t1,t4,1f44 <fail>

00001c6c <test_20>:
    1c6c:	00000213          	li	tp,0
    1c70:	00e00093          	li	ra,14
    1c74:	00b00113          	li	sp,11
    1c78:	402081b3          	sub	gp,ra,sp
    1c7c:	00000013          	nop
    1c80:	00018313          	mv	t1,gp
    1c84:	00120213          	addi	tp,tp,1 # 1 <boot+0x1>
    1c88:	00200293          	li	t0,2
    1c8c:	fe5212e3          	bne	tp,t0,1c70 <test_20+0x4>
    1c90:	00300e93          	li	t4,3
    1c94:	01400e13          	li	t3,20
    1c98:	2bd31663          	bne	t1,t4,1f44 <fail>

00001c9c <test_21>:
    1c9c:	00000213          	li	tp,0
    1ca0:	00f00093          	li	ra,15
    1ca4:	00b00113          	li	sp,11
    1ca8:	402081b3          	sub	gp,ra,sp
    1cac:	00000013          	nop
    1cb0:	00000013          	nop
    1cb4:	00018313          	mv	t1,gp
    1cb8:	00120213          	addi	tp,tp,1 # 1 <boot+0x1>
    1cbc:	00200293          	li	t0,2
    1cc0:	fe5210e3          	bne	tp,t0,1ca0 <test_21+0x4>
    1cc4:	00400e93          	li	t4,4
    1cc8:	01500e13          	li	t3,21
    1ccc:	27d31c63          	bne	t1,t4,1f44 <fail>

00001cd0 <test_22>:
    1cd0:	00000213          	li	tp,0
    1cd4:	00d00093          	li	ra,13
    1cd8:	00b00113          	li	sp,11
    1cdc:	402081b3          	sub	gp,ra,sp
    1ce0:	00120213          	addi	tp,tp,1 # 1 <boot+0x1>
    1ce4:	00200293          	li	t0,2
    1ce8:	fe5216e3          	bne	tp,t0,1cd4 <test_22+0x4>
    1cec:	00200e93          	li	t4,2
    1cf0:	01600e13          	li	t3,22
    1cf4:	25d19863          	bne	gp,t4,1f44 <fail>

00001cf8 <test_23>:
    1cf8:	00000213          	li	tp,0
    1cfc:	00e00093          	li	ra,14
    1d00:	00b00113          	li	sp,11
    1d04:	00000013          	nop
    1d08:	402081b3          	sub	gp,ra,sp
    1d0c:	00120213          	addi	tp,tp,1 # 1 <boot+0x1>
    1d10:	00200293          	li	t0,2
    1d14:	fe5214e3          	bne	tp,t0,1cfc <test_23+0x4>
    1d18:	00300e93          	li	t4,3
    1d1c:	01700e13          	li	t3,23
    1d20:	23d19263          	bne	gp,t4,1f44 <fail>

00001d24 <test_24>:
    1d24:	00000213          	li	tp,0
    1d28:	00f00093          	li	ra,15
    1d2c:	00b00113          	li	sp,11
    1d30:	00000013          	nop
    1d34:	00000013          	nop
    1d38:	402081b3          	sub	gp,ra,sp
    1d3c:	00120213          	addi	tp,tp,1 # 1 <boot+0x1>
    1d40:	00200293          	li	t0,2
    1d44:	fe5212e3          	bne	tp,t0,1d28 <test_24+0x4>
    1d48:	00400e93          	li	t4,4
    1d4c:	01800e13          	li	t3,24
    1d50:	1fd19a63          	bne	gp,t4,1f44 <fail>

00001d54 <test_25>:
    1d54:	00000213          	li	tp,0
    1d58:	00d00093          	li	ra,13
    1d5c:	00000013          	nop
    1d60:	00b00113          	li	sp,11
    1d64:	402081b3          	sub	gp,ra,sp
    1d68:	00120213          	addi	tp,tp,1 # 1 <boot+0x1>
    1d6c:	00200293          	li	t0,2
    1d70:	fe5214e3          	bne	tp,t0,1d58 <test_25+0x4>
    1d74:	00200e93          	li	t4,2
    1d78:	01900e13          	li	t3,25
    1d7c:	1dd19463          	bne	gp,t4,1f44 <fail>

00001d80 <test_26>:
    1d80:	00000213          	li	tp,0
    1d84:	00e00093          	li	ra,14
    1d88:	00000013          	nop
    1d8c:	00b00113          	li	sp,11
    1d90:	00000013          	nop
    1d94:	402081b3          	sub	gp,ra,sp
    1d98:	00120213          	addi	tp,tp,1 # 1 <boot+0x1>
    1d9c:	00200293          	li	t0,2
    1da0:	fe5212e3          	bne	tp,t0,1d84 <test_26+0x4>
    1da4:	00300e93          	li	t4,3
    1da8:	01a00e13          	li	t3,26
    1dac:	19d19c63          	bne	gp,t4,1f44 <fail>

00001db0 <test_27>:
    1db0:	00000213          	li	tp,0
    1db4:	00f00093          	li	ra,15
    1db8:	00000013          	nop
    1dbc:	00000013          	nop
    1dc0:	00b00113          	li	sp,11
    1dc4:	402081b3          	sub	gp,ra,sp
    1dc8:	00120213          	addi	tp,tp,1 # 1 <boot+0x1>
    1dcc:	00200293          	li	t0,2
    1dd0:	fe5212e3          	bne	tp,t0,1db4 <test_27+0x4>
    1dd4:	00400e93          	li	t4,4
    1dd8:	01b00e13          	li	t3,27
    1ddc:	17d19463          	bne	gp,t4,1f44 <fail>

00001de0 <test_28>:
    1de0:	00000213          	li	tp,0
    1de4:	00b00113          	li	sp,11
    1de8:	00d00093          	li	ra,13
    1dec:	402081b3          	sub	gp,ra,sp
    1df0:	00120213          	addi	tp,tp,1 # 1 <boot+0x1>
    1df4:	00200293          	li	t0,2
    1df8:	fe5216e3          	bne	tp,t0,1de4 <test_28+0x4>
    1dfc:	00200e93          	li	t4,2
    1e00:	01c00e13          	li	t3,28
    1e04:	15d19063          	bne	gp,t4,1f44 <fail>

00001e08 <test_29>:
    1e08:	00000213          	li	tp,0
    1e0c:	00b00113          	li	sp,11
    1e10:	00e00093          	li	ra,14
    1e14:	00000013          	nop
    1e18:	402081b3          	sub	gp,ra,sp
    1e1c:	00120213          	addi	tp,tp,1 # 1 <boot+0x1>
    1e20:	00200293          	li	t0,2
    1e24:	fe5214e3          	bne	tp,t0,1e0c <test_29+0x4>
    1e28:	00300e93          	li	t4,3
    1e2c:	01d00e13          	li	t3,29
    1e30:	11d19a63          	bne	gp,t4,1f44 <fail>

00001e34 <test_30>:
    1e34:	00000213          	li	tp,0
    1e38:	00b00113          	li	sp,11
    1e3c:	00f00093          	li	ra,15
    1e40:	00000013          	nop
    1e44:	00000013          	nop
    1e48:	402081b3          	sub	gp,ra,sp
    1e4c:	00120213          	addi	tp,tp,1 # 1 <boot+0x1>
    1e50:	00200293          	li	t0,2
    1e54:	fe5212e3          	bne	tp,t0,1e38 <test_30+0x4>
    1e58:	00400e93          	li	t4,4
    1e5c:	01e00e13          	li	t3,30
    1e60:	0fd19263          	bne	gp,t4,1f44 <fail>

00001e64 <test_31>:
    1e64:	00000213          	li	tp,0
    1e68:	00b00113          	li	sp,11
    1e6c:	00000013          	nop
    1e70:	00d00093          	li	ra,13
    1e74:	402081b3          	sub	gp,ra,sp
    1e78:	00120213          	addi	tp,tp,1 # 1 <boot+0x1>
    1e7c:	00200293          	li	t0,2
    1e80:	fe5214e3          	bne	tp,t0,1e68 <test_31+0x4>
    1e84:	00200e93          	li	t4,2
    1e88:	01f00e13          	li	t3,31
    1e8c:	0bd19c63          	bne	gp,t4,1f44 <fail>

00001e90 <test_32>:
    1e90:	00000213          	li	tp,0
    1e94:	00b00113          	li	sp,11
    1e98:	00000013          	nop
    1e9c:	00e00093          	li	ra,14
    1ea0:	00000013          	nop
    1ea4:	402081b3          	sub	gp,ra,sp
    1ea8:	00120213          	addi	tp,tp,1 # 1 <boot+0x1>
    1eac:	00200293          	li	t0,2
    1eb0:	fe5212e3          	bne	tp,t0,1e94 <test_32+0x4>
    1eb4:	00300e93          	li	t4,3
    1eb8:	02000e13          	li	t3,32
    1ebc:	09d19463          	bne	gp,t4,1f44 <fail>

00001ec0 <test_33>:
    1ec0:	00000213          	li	tp,0
    1ec4:	00b00113          	li	sp,11
    1ec8:	00000013          	nop
    1ecc:	00000013          	nop
    1ed0:	00f00093          	li	ra,15
    1ed4:	402081b3          	sub	gp,ra,sp
    1ed8:	00120213          	addi	tp,tp,1 # 1 <boot+0x1>
    1edc:	00200293          	li	t0,2
    1ee0:	fe5212e3          	bne	tp,t0,1ec4 <test_33+0x4>
    1ee4:	00400e93          	li	t4,4
    1ee8:	02100e13          	li	t3,33
    1eec:	05d19c63          	bne	gp,t4,1f44 <fail>

00001ef0 <test_34>:
    1ef0:	ff100093          	li	ra,-15
    1ef4:	40100133          	neg	sp,ra
    1ef8:	00f00e93          	li	t4,15
    1efc:	02200e13          	li	t3,34
    1f00:	05d11263          	bne	sp,t4,1f44 <fail>

00001f04 <test_35>:
    1f04:	02000093          	li	ra,32
    1f08:	40008133          	sub	sp,ra,zero
    1f0c:	02000e93          	li	t4,32
    1f10:	02300e13          	li	t3,35
    1f14:	03d11863          	bne	sp,t4,1f44 <fail>

00001f18 <test_36>:
    1f18:	400000b3          	neg	ra,zero
    1f1c:	00000e93          	li	t4,0
    1f20:	02400e13          	li	t3,36
    1f24:	03d09063          	bne	ra,t4,1f44 <fail>

00001f28 <test_37>:
    1f28:	01000093          	li	ra,16
    1f2c:	01e00113          	li	sp,30
    1f30:	40208033          	sub	zero,ra,sp
    1f34:	00000e93          	li	t4,0
    1f38:	02500e13          	li	t3,37
    1f3c:	01d01463          	bne	zero,t4,1f44 <fail>
    1f40:	03c01c63          	bne	zero,t3,1f78 <pass>

00001f44 <fail>:
    1f44:	9e5fe0ef          	jal	ra,928 <failure>
    1f48:	10000537          	lui	a0,0x10000
    1f4c:	04500593          	li	a1,69
    1f50:	05200613          	li	a2,82
    1f54:	04f00693          	li	a3,79
    1f58:	00a00713          	li	a4,10
    1f5c:	00b52023          	sw	a1,0(a0) # 10000000 <tdat10+0xfff71e7>
    1f60:	00c52023          	sw	a2,0(a0)
    1f64:	00c52023          	sw	a2,0(a0)
    1f68:	00d52023          	sw	a3,0(a0)
    1f6c:	00c52023          	sw	a2,0(a0)
    1f70:	00e52023          	sw	a4,0(a0)
    1f74:	00100073          	ebreak

00001f78 <pass>:
    1f78:	00009137          	lui	sp,0x9
    1f7c:	9b9fe0ef          	jal	ra,934 <OK>
    1f80:	00000013          	nop
    1f84:	b25fe06f          	j	aa8 <sub_ret>

00001f88 <sll>:
    1f88:	00002537          	lui	a0,0x2
    1f8c:	fa850513          	addi	a0,a0,-88 # 1fa8 <.test_name>

00001f90 <loop>:
    1f90:	b04fe0ef          	jal	ra,294 <putstr>

00001f94 <.prname_next>:
    1f94:	00050583          	lb	a1,0(a0)
    1f98:	00058a63          	beqz	a1,1fac <.prname_done>
    1f9c:	00b62023          	sw	a1,0(a2)
    1fa0:	00150513          	addi	a0,a0,1
    1fa4:	ff1ff06f          	j	1f94 <.prname_next>

00001fa8 <.test_name>:
    1fa8:	006c6c73          	csrrsi	s8,0x6,24

00001fac <.prname_done>:
    1fac:	02e00593          	li	a1,46
    1fb0:	00b62023          	sw	a1,0(a2)
    1fb4:	00b62023          	sw	a1,0(a2)

00001fb8 <test_2>:
    1fb8:	00100093          	li	ra,1
    1fbc:	00000113          	li	sp,0
    1fc0:	002091b3          	sll	gp,ra,sp
    1fc4:	00100e93          	li	t4,1
    1fc8:	00200e13          	li	t3,2
    1fcc:	55d19c63          	bne	gp,t4,2524 <fail>

00001fd0 <test_3>:
    1fd0:	00100093          	li	ra,1
    1fd4:	00100113          	li	sp,1
    1fd8:	002091b3          	sll	gp,ra,sp
    1fdc:	00200e93          	li	t4,2
    1fe0:	00300e13          	li	t3,3
    1fe4:	55d19063          	bne	gp,t4,2524 <fail>

00001fe8 <test_4>:
    1fe8:	00100093          	li	ra,1
    1fec:	00700113          	li	sp,7
    1ff0:	002091b3          	sll	gp,ra,sp
    1ff4:	08000e93          	li	t4,128
    1ff8:	00400e13          	li	t3,4
    1ffc:	53d19463          	bne	gp,t4,2524 <fail>

00002000 <test_5>:
    2000:	00100093          	li	ra,1
    2004:	00e00113          	li	sp,14
    2008:	002091b3          	sll	gp,ra,sp
    200c:	00004eb7          	lui	t4,0x4
    2010:	00500e13          	li	t3,5
    2014:	51d19863          	bne	gp,t4,2524 <fail>

00002018 <test_6>:
    2018:	00100093          	li	ra,1
    201c:	01f00113          	li	sp,31
    2020:	002091b3          	sll	gp,ra,sp
    2024:	80000eb7          	lui	t4,0x80000
    2028:	00600e13          	li	t3,6
    202c:	4fd19c63          	bne	gp,t4,2524 <fail>

00002030 <test_7>:
    2030:	fff00093          	li	ra,-1
    2034:	00000113          	li	sp,0
    2038:	002091b3          	sll	gp,ra,sp
    203c:	fff00e93          	li	t4,-1
    2040:	00700e13          	li	t3,7
    2044:	4fd19063          	bne	gp,t4,2524 <fail>

00002048 <test_8>:
    2048:	fff00093          	li	ra,-1
    204c:	00100113          	li	sp,1
    2050:	002091b3          	sll	gp,ra,sp
    2054:	ffe00e93          	li	t4,-2
    2058:	00800e13          	li	t3,8
    205c:	4dd19463          	bne	gp,t4,2524 <fail>

00002060 <test_9>:
    2060:	fff00093          	li	ra,-1
    2064:	00700113          	li	sp,7
    2068:	002091b3          	sll	gp,ra,sp
    206c:	f8000e93          	li	t4,-128
    2070:	00900e13          	li	t3,9
    2074:	4bd19863          	bne	gp,t4,2524 <fail>

00002078 <test_10>:
    2078:	fff00093          	li	ra,-1
    207c:	00e00113          	li	sp,14
    2080:	002091b3          	sll	gp,ra,sp
    2084:	ffffceb7          	lui	t4,0xffffc
    2088:	00a00e13          	li	t3,10
    208c:	49d19c63          	bne	gp,t4,2524 <fail>

00002090 <test_11>:
    2090:	fff00093          	li	ra,-1
    2094:	01f00113          	li	sp,31
    2098:	002091b3          	sll	gp,ra,sp
    209c:	80000eb7          	lui	t4,0x80000
    20a0:	00b00e13          	li	t3,11
    20a4:	49d19063          	bne	gp,t4,2524 <fail>

000020a8 <test_12>:
    20a8:	212120b7          	lui	ra,0x21212
    20ac:	12108093          	addi	ra,ra,289 # 21212121 <tdat10+0x21209308>
    20b0:	00000113          	li	sp,0
    20b4:	002091b3          	sll	gp,ra,sp
    20b8:	21212eb7          	lui	t4,0x21212
    20bc:	121e8e93          	addi	t4,t4,289 # 21212121 <tdat10+0x21209308>
    20c0:	00c00e13          	li	t3,12
    20c4:	47d19063          	bne	gp,t4,2524 <fail>

000020c8 <test_13>:
    20c8:	212120b7          	lui	ra,0x21212
    20cc:	12108093          	addi	ra,ra,289 # 21212121 <tdat10+0x21209308>
    20d0:	00100113          	li	sp,1
    20d4:	002091b3          	sll	gp,ra,sp
    20d8:	42424eb7          	lui	t4,0x42424
    20dc:	242e8e93          	addi	t4,t4,578 # 42424242 <tdat10+0x4241b429>
    20e0:	00d00e13          	li	t3,13
    20e4:	45d19063          	bne	gp,t4,2524 <fail>

000020e8 <test_14>:
    20e8:	212120b7          	lui	ra,0x21212
    20ec:	12108093          	addi	ra,ra,289 # 21212121 <tdat10+0x21209308>
    20f0:	00700113          	li	sp,7
    20f4:	002091b3          	sll	gp,ra,sp
    20f8:	90909eb7          	lui	t4,0x90909
    20fc:	080e8e93          	addi	t4,t4,128 # 90909080 <io+0x10909080>
    2100:	00e00e13          	li	t3,14
    2104:	43d19063          	bne	gp,t4,2524 <fail>

00002108 <test_15>:
    2108:	212120b7          	lui	ra,0x21212
    210c:	12108093          	addi	ra,ra,289 # 21212121 <tdat10+0x21209308>
    2110:	00e00113          	li	sp,14
    2114:	002091b3          	sll	gp,ra,sp
    2118:	48484eb7          	lui	t4,0x48484
    211c:	00f00e13          	li	t3,15
    2120:	41d19263          	bne	gp,t4,2524 <fail>

00002124 <test_16>:
    2124:	212120b7          	lui	ra,0x21212
    2128:	12108093          	addi	ra,ra,289 # 21212121 <tdat10+0x21209308>
    212c:	01f00113          	li	sp,31
    2130:	002091b3          	sll	gp,ra,sp
    2134:	80000eb7          	lui	t4,0x80000
    2138:	01000e13          	li	t3,16
    213c:	3fd19463          	bne	gp,t4,2524 <fail>

00002140 <test_17>:
    2140:	212120b7          	lui	ra,0x21212
    2144:	12108093          	addi	ra,ra,289 # 21212121 <tdat10+0x21209308>
    2148:	fe000113          	li	sp,-32
    214c:	002091b3          	sll	gp,ra,sp
    2150:	21212eb7          	lui	t4,0x21212
    2154:	121e8e93          	addi	t4,t4,289 # 21212121 <tdat10+0x21209308>
    2158:	01100e13          	li	t3,17
    215c:	3dd19463          	bne	gp,t4,2524 <fail>

00002160 <test_18>:
    2160:	212120b7          	lui	ra,0x21212
    2164:	12108093          	addi	ra,ra,289 # 21212121 <tdat10+0x21209308>
    2168:	fe100113          	li	sp,-31
    216c:	002091b3          	sll	gp,ra,sp
    2170:	42424eb7          	lui	t4,0x42424
    2174:	242e8e93          	addi	t4,t4,578 # 42424242 <tdat10+0x4241b429>
    2178:	01200e13          	li	t3,18
    217c:	3bd19463          	bne	gp,t4,2524 <fail>

00002180 <test_19>:
    2180:	212120b7          	lui	ra,0x21212
    2184:	12108093          	addi	ra,ra,289 # 21212121 <tdat10+0x21209308>
    2188:	fe700113          	li	sp,-25
    218c:	002091b3          	sll	gp,ra,sp
    2190:	90909eb7          	lui	t4,0x90909
    2194:	080e8e93          	addi	t4,t4,128 # 90909080 <io+0x10909080>
    2198:	01300e13          	li	t3,19
    219c:	39d19463          	bne	gp,t4,2524 <fail>

000021a0 <test_20>:
    21a0:	212120b7          	lui	ra,0x21212
    21a4:	12108093          	addi	ra,ra,289 # 21212121 <tdat10+0x21209308>
    21a8:	fee00113          	li	sp,-18
    21ac:	002091b3          	sll	gp,ra,sp
    21b0:	48484eb7          	lui	t4,0x48484
    21b4:	01400e13          	li	t3,20
    21b8:	37d19663          	bne	gp,t4,2524 <fail>

000021bc <test_21>:
    21bc:	212120b7          	lui	ra,0x21212
    21c0:	12008093          	addi	ra,ra,288 # 21212120 <tdat10+0x21209307>
    21c4:	fff00113          	li	sp,-1
    21c8:	002091b3          	sll	gp,ra,sp
    21cc:	00000e93          	li	t4,0
    21d0:	01500e13          	li	t3,21
    21d4:	35d19863          	bne	gp,t4,2524 <fail>

000021d8 <test_22>:
    21d8:	00100093          	li	ra,1
    21dc:	00700113          	li	sp,7
    21e0:	002090b3          	sll	ra,ra,sp
    21e4:	08000e93          	li	t4,128
    21e8:	01600e13          	li	t3,22
    21ec:	33d09c63          	bne	ra,t4,2524 <fail>

000021f0 <test_23>:
    21f0:	00100093          	li	ra,1
    21f4:	00e00113          	li	sp,14
    21f8:	00209133          	sll	sp,ra,sp
    21fc:	00004eb7          	lui	t4,0x4
    2200:	01700e13          	li	t3,23
    2204:	33d11063          	bne	sp,t4,2524 <fail>

00002208 <test_24>:
    2208:	00300093          	li	ra,3
    220c:	001090b3          	sll	ra,ra,ra
    2210:	01800e93          	li	t4,24
    2214:	01800e13          	li	t3,24
    2218:	31d09663          	bne	ra,t4,2524 <fail>

0000221c <test_25>:
    221c:	00000213          	li	tp,0
    2220:	00100093          	li	ra,1
    2224:	00700113          	li	sp,7
    2228:	002091b3          	sll	gp,ra,sp
    222c:	00018313          	mv	t1,gp
    2230:	00120213          	addi	tp,tp,1 # 1 <boot+0x1>
    2234:	00200293          	li	t0,2
    2238:	fe5214e3          	bne	tp,t0,2220 <test_25+0x4>
    223c:	08000e93          	li	t4,128
    2240:	01900e13          	li	t3,25
    2244:	2fd31063          	bne	t1,t4,2524 <fail>

00002248 <test_26>:
    2248:	00000213          	li	tp,0
    224c:	00100093          	li	ra,1
    2250:	00e00113          	li	sp,14
    2254:	002091b3          	sll	gp,ra,sp
    2258:	00000013          	nop
    225c:	00018313          	mv	t1,gp
    2260:	00120213          	addi	tp,tp,1 # 1 <boot+0x1>
    2264:	00200293          	li	t0,2
    2268:	fe5212e3          	bne	tp,t0,224c <test_26+0x4>
    226c:	00004eb7          	lui	t4,0x4
    2270:	01a00e13          	li	t3,26
    2274:	2bd31863          	bne	t1,t4,2524 <fail>

00002278 <test_27>:
    2278:	00000213          	li	tp,0
    227c:	00100093          	li	ra,1
    2280:	01f00113          	li	sp,31
    2284:	002091b3          	sll	gp,ra,sp
    2288:	00000013          	nop
    228c:	00000013          	nop
    2290:	00018313          	mv	t1,gp
    2294:	00120213          	addi	tp,tp,1 # 1 <boot+0x1>
    2298:	00200293          	li	t0,2
    229c:	fe5210e3          	bne	tp,t0,227c <test_27+0x4>
    22a0:	80000eb7          	lui	t4,0x80000
    22a4:	01b00e13          	li	t3,27
    22a8:	27d31e63          	bne	t1,t4,2524 <fail>

000022ac <test_28>:
    22ac:	00000213          	li	tp,0
    22b0:	00100093          	li	ra,1
    22b4:	00700113          	li	sp,7
    22b8:	002091b3          	sll	gp,ra,sp
    22bc:	00120213          	addi	tp,tp,1 # 1 <boot+0x1>
    22c0:	00200293          	li	t0,2
    22c4:	fe5216e3          	bne	tp,t0,22b0 <test_28+0x4>
    22c8:	08000e93          	li	t4,128
    22cc:	01c00e13          	li	t3,28
    22d0:	25d19a63          	bne	gp,t4,2524 <fail>

000022d4 <test_29>:
    22d4:	00000213          	li	tp,0
    22d8:	00100093          	li	ra,1
    22dc:	00e00113          	li	sp,14
    22e0:	00000013          	nop
    22e4:	002091b3          	sll	gp,ra,sp
    22e8:	00120213          	addi	tp,tp,1 # 1 <boot+0x1>
    22ec:	00200293          	li	t0,2
    22f0:	fe5214e3          	bne	tp,t0,22d8 <test_29+0x4>
    22f4:	00004eb7          	lui	t4,0x4
    22f8:	01d00e13          	li	t3,29
    22fc:	23d19463          	bne	gp,t4,2524 <fail>

00002300 <test_30>:
    2300:	00000213          	li	tp,0
    2304:	00100093          	li	ra,1
    2308:	01f00113          	li	sp,31
    230c:	00000013          	nop
    2310:	00000013          	nop
    2314:	002091b3          	sll	gp,ra,sp
    2318:	00120213          	addi	tp,tp,1 # 1 <boot+0x1>
    231c:	00200293          	li	t0,2
    2320:	fe5212e3          	bne	tp,t0,2304 <test_30+0x4>
    2324:	80000eb7          	lui	t4,0x80000
    2328:	01e00e13          	li	t3,30
    232c:	1fd19c63          	bne	gp,t4,2524 <fail>

00002330 <test_31>:
    2330:	00000213          	li	tp,0
    2334:	00100093          	li	ra,1
    2338:	00000013          	nop
    233c:	00700113          	li	sp,7
    2340:	002091b3          	sll	gp,ra,sp
    2344:	00120213          	addi	tp,tp,1 # 1 <boot+0x1>
    2348:	00200293          	li	t0,2
    234c:	fe5214e3          	bne	tp,t0,2334 <test_31+0x4>
    2350:	08000e93          	li	t4,128
    2354:	01f00e13          	li	t3,31
    2358:	1dd19663          	bne	gp,t4,2524 <fail>

0000235c <test_32>:
    235c:	00000213          	li	tp,0
    2360:	00100093          	li	ra,1
    2364:	00000013          	nop
    2368:	00e00113          	li	sp,14
    236c:	00000013          	nop
    2370:	002091b3          	sll	gp,ra,sp
    2374:	00120213          	addi	tp,tp,1 # 1 <boot+0x1>
    2378:	00200293          	li	t0,2
    237c:	fe5212e3          	bne	tp,t0,2360 <test_32+0x4>
    2380:	00004eb7          	lui	t4,0x4
    2384:	02000e13          	li	t3,32
    2388:	19d19e63          	bne	gp,t4,2524 <fail>

0000238c <test_33>:
    238c:	00000213          	li	tp,0
    2390:	00100093          	li	ra,1
    2394:	00000013          	nop
    2398:	00000013          	nop
    239c:	01f00113          	li	sp,31
    23a0:	002091b3          	sll	gp,ra,sp
    23a4:	00120213          	addi	tp,tp,1 # 1 <boot+0x1>
    23a8:	00200293          	li	t0,2
    23ac:	fe5212e3          	bne	tp,t0,2390 <test_33+0x4>
    23b0:	80000eb7          	lui	t4,0x80000
    23b4:	02100e13          	li	t3,33
    23b8:	17d19663          	bne	gp,t4,2524 <fail>

000023bc <test_34>:
    23bc:	00000213          	li	tp,0
    23c0:	00700113          	li	sp,7
    23c4:	00100093          	li	ra,1
    23c8:	002091b3          	sll	gp,ra,sp
    23cc:	00120213          	addi	tp,tp,1 # 1 <boot+0x1>
    23d0:	00200293          	li	t0,2
    23d4:	fe5216e3          	bne	tp,t0,23c0 <test_34+0x4>
    23d8:	08000e93          	li	t4,128
    23dc:	02200e13          	li	t3,34
    23e0:	15d19263          	bne	gp,t4,2524 <fail>

000023e4 <test_35>:
    23e4:	00000213          	li	tp,0
    23e8:	00e00113          	li	sp,14
    23ec:	00100093          	li	ra,1
    23f0:	00000013          	nop
    23f4:	002091b3          	sll	gp,ra,sp
    23f8:	00120213          	addi	tp,tp,1 # 1 <boot+0x1>
    23fc:	00200293          	li	t0,2
    2400:	fe5214e3          	bne	tp,t0,23e8 <test_35+0x4>
    2404:	00004eb7          	lui	t4,0x4
    2408:	02300e13          	li	t3,35
    240c:	11d19c63          	bne	gp,t4,2524 <fail>

00002410 <test_36>:
    2410:	00000213          	li	tp,0
    2414:	01f00113          	li	sp,31
    2418:	00100093          	li	ra,1
    241c:	00000013          	nop
    2420:	00000013          	nop
    2424:	002091b3          	sll	gp,ra,sp
    2428:	00120213          	addi	tp,tp,1 # 1 <boot+0x1>
    242c:	00200293          	li	t0,2
    2430:	fe5212e3          	bne	tp,t0,2414 <test_36+0x4>
    2434:	80000eb7          	lui	t4,0x80000
    2438:	02400e13          	li	t3,36
    243c:	0fd19463          	bne	gp,t4,2524 <fail>

00002440 <test_37>:
    2440:	00000213          	li	tp,0
    2444:	00700113          	li	sp,7
    2448:	00000013          	nop
    244c:	00100093          	li	ra,1
    2450:	002091b3          	sll	gp,ra,sp
    2454:	00120213          	addi	tp,tp,1 # 1 <boot+0x1>
    2458:	00200293          	li	t0,2
    245c:	fe5214e3          	bne	tp,t0,2444 <test_37+0x4>
    2460:	08000e93          	li	t4,128
    2464:	02500e13          	li	t3,37
    2468:	0bd19e63          	bne	gp,t4,2524 <fail>

0000246c <test_38>:
    246c:	00000213          	li	tp,0
    2470:	00e00113          	li	sp,14
    2474:	00000013          	nop
    2478:	00100093          	li	ra,1
    247c:	00000013          	nop
    2480:	002091b3          	sll	gp,ra,sp
    2484:	00120213          	addi	tp,tp,1 # 1 <boot+0x1>
    2488:	00200293          	li	t0,2
    248c:	fe5212e3          	bne	tp,t0,2470 <test_38+0x4>
    2490:	00004eb7          	lui	t4,0x4
    2494:	02600e13          	li	t3,38
    2498:	09d19663          	bne	gp,t4,2524 <fail>

0000249c <test_39>:
    249c:	00000213          	li	tp,0
    24a0:	01f00113          	li	sp,31
    24a4:	00000013          	nop
    24a8:	00000013          	nop
    24ac:	00100093          	li	ra,1
    24b0:	002091b3          	sll	gp,ra,sp
    24b4:	00120213          	addi	tp,tp,1 # 1 <boot+0x1>
    24b8:	00200293          	li	t0,2
    24bc:	fe5212e3          	bne	tp,t0,24a0 <test_39+0x4>
    24c0:	80000eb7          	lui	t4,0x80000
    24c4:	02700e13          	li	t3,39
    24c8:	05d19e63          	bne	gp,t4,2524 <fail>

000024cc <test_40>:
    24cc:	00f00093          	li	ra,15
    24d0:	00101133          	sll	sp,zero,ra
    24d4:	00000e93          	li	t4,0
    24d8:	02800e13          	li	t3,40
    24dc:	05d11463          	bne	sp,t4,2524 <fail>

000024e0 <test_41>:
    24e0:	02000093          	li	ra,32
    24e4:	00009133          	sll	sp,ra,zero
    24e8:	02000e93          	li	t4,32
    24ec:	02900e13          	li	t3,41
    24f0:	03d11a63          	bne	sp,t4,2524 <fail>

000024f4 <test_42>:
    24f4:	000010b3          	sll	ra,zero,zero
    24f8:	00000e93          	li	t4,0
    24fc:	02a00e13          	li	t3,42
    2500:	03d09263          	bne	ra,t4,2524 <fail>

00002504 <test_43>:
    2504:	40000093          	li	ra,1024
    2508:	00001137          	lui	sp,0x1
    250c:	80010113          	addi	sp,sp,-2048 # 800 <__div_mod_si3+0x4c>
    2510:	00209033          	sll	zero,ra,sp
    2514:	00000e93          	li	t4,0
    2518:	02b00e13          	li	t3,43
    251c:	01d01463          	bne	zero,t4,2524 <fail>
    2520:	03c01c63          	bne	zero,t3,2558 <pass>

00002524 <fail>:
    2524:	c04fe0ef          	jal	ra,928 <failure>
    2528:	10000537          	lui	a0,0x10000
    252c:	04500593          	li	a1,69
    2530:	05200613          	li	a2,82
    2534:	04f00693          	li	a3,79
    2538:	00a00713          	li	a4,10
    253c:	00b52023          	sw	a1,0(a0) # 10000000 <tdat10+0xfff71e7>
    2540:	00c52023          	sw	a2,0(a0)
    2544:	00c52023          	sw	a2,0(a0)
    2548:	00d52023          	sw	a3,0(a0)
    254c:	00c52023          	sw	a2,0(a0)
    2550:	00e52023          	sw	a4,0(a0)
    2554:	00100073          	ebreak

00002558 <pass>:
    2558:	00009137          	lui	sp,0x9
    255c:	bd8fe0ef          	jal	ra,934 <OK>
    2560:	00000013          	nop
    2564:	d4cfe06f          	j	ab0 <sll_ret>

00002568 <lb>:
    2568:	00002537          	lui	a0,0x2
    256c:	58850513          	addi	a0,a0,1416 # 2588 <.test_name>

00002570 <loop>:
    2570:	d25fd0ef          	jal	ra,294 <putstr>

00002574 <.prname_next>:
    2574:	00050583          	lb	a1,0(a0)
    2578:	00058a63          	beqz	a1,258c <.prname_done>
    257c:	00b62023          	sw	a1,0(a2)
    2580:	00150513          	addi	a0,a0,1
    2584:	ff1ff06f          	j	2574 <.prname_next>

00002588 <.test_name>:
    2588:	626c                	flw	fa1,68(a2)
	...

0000258c <.prname_done>:
    258c:	02e00593          	li	a1,46
    2590:	00b62023          	sw	a1,0(a2)
    2594:	00b62023          	sw	a1,0(a2)

00002598 <test_2>:
    2598:	00007097          	auipc	ra,0x7
    259c:	82808093          	addi	ra,ra,-2008 # 8dc0 <tdat>
    25a0:	00008183          	lb	gp,0(ra)
    25a4:	fff00e93          	li	t4,-1
    25a8:	00200e13          	li	t3,2
    25ac:	23d19c63          	bne	gp,t4,27e4 <fail>

000025b0 <test_3>:
    25b0:	00007097          	auipc	ra,0x7
    25b4:	81008093          	addi	ra,ra,-2032 # 8dc0 <tdat>
    25b8:	00108183          	lb	gp,1(ra)
    25bc:	00000e93          	li	t4,0
    25c0:	00300e13          	li	t3,3
    25c4:	23d19063          	bne	gp,t4,27e4 <fail>

000025c8 <test_4>:
    25c8:	00006097          	auipc	ra,0x6
    25cc:	7f808093          	addi	ra,ra,2040 # 8dc0 <tdat>
    25d0:	00208183          	lb	gp,2(ra)
    25d4:	ff000e93          	li	t4,-16
    25d8:	00400e13          	li	t3,4
    25dc:	21d19463          	bne	gp,t4,27e4 <fail>

000025e0 <test_5>:
    25e0:	00006097          	auipc	ra,0x6
    25e4:	7e008093          	addi	ra,ra,2016 # 8dc0 <tdat>
    25e8:	00308183          	lb	gp,3(ra)
    25ec:	00f00e93          	li	t4,15
    25f0:	00500e13          	li	t3,5
    25f4:	1fd19863          	bne	gp,t4,27e4 <fail>

000025f8 <test_6>:
    25f8:	00006097          	auipc	ra,0x6
    25fc:	7cb08093          	addi	ra,ra,1995 # 8dc3 <tdat4>
    2600:	ffd08183          	lb	gp,-3(ra)
    2604:	fff00e93          	li	t4,-1
    2608:	00600e13          	li	t3,6
    260c:	1dd19c63          	bne	gp,t4,27e4 <fail>

00002610 <test_7>:
    2610:	00006097          	auipc	ra,0x6
    2614:	7b308093          	addi	ra,ra,1971 # 8dc3 <tdat4>
    2618:	ffe08183          	lb	gp,-2(ra)
    261c:	00000e93          	li	t4,0
    2620:	00700e13          	li	t3,7
    2624:	1dd19063          	bne	gp,t4,27e4 <fail>

00002628 <test_8>:
    2628:	00006097          	auipc	ra,0x6
    262c:	79b08093          	addi	ra,ra,1947 # 8dc3 <tdat4>
    2630:	fff08183          	lb	gp,-1(ra)
    2634:	ff000e93          	li	t4,-16
    2638:	00800e13          	li	t3,8
    263c:	1bd19463          	bne	gp,t4,27e4 <fail>

00002640 <test_9>:
    2640:	00006097          	auipc	ra,0x6
    2644:	78308093          	addi	ra,ra,1923 # 8dc3 <tdat4>
    2648:	00008183          	lb	gp,0(ra)
    264c:	00f00e93          	li	t4,15
    2650:	00900e13          	li	t3,9
    2654:	19d19863          	bne	gp,t4,27e4 <fail>

00002658 <test_10>:
    2658:	00006097          	auipc	ra,0x6
    265c:	76808093          	addi	ra,ra,1896 # 8dc0 <tdat>
    2660:	fe008093          	addi	ra,ra,-32
    2664:	02008183          	lb	gp,32(ra)
    2668:	fff00e93          	li	t4,-1
    266c:	00a00e13          	li	t3,10
    2670:	17d19a63          	bne	gp,t4,27e4 <fail>

00002674 <test_11>:
    2674:	00006097          	auipc	ra,0x6
    2678:	74c08093          	addi	ra,ra,1868 # 8dc0 <tdat>
    267c:	ffa08093          	addi	ra,ra,-6
    2680:	00708183          	lb	gp,7(ra)
    2684:	00000e93          	li	t4,0
    2688:	00b00e13          	li	t3,11
    268c:	15d19c63          	bne	gp,t4,27e4 <fail>

00002690 <test_12>:
    2690:	00c00e13          	li	t3,12
    2694:	00000213          	li	tp,0
    2698:	00006097          	auipc	ra,0x6
    269c:	72908093          	addi	ra,ra,1833 # 8dc1 <tdat2>
    26a0:	00108183          	lb	gp,1(ra)
    26a4:	00018313          	mv	t1,gp
    26a8:	ff000e93          	li	t4,-16
    26ac:	13d31c63          	bne	t1,t4,27e4 <fail>
    26b0:	00120213          	addi	tp,tp,1 # 1 <boot+0x1>
    26b4:	00200293          	li	t0,2
    26b8:	fe5210e3          	bne	tp,t0,2698 <test_12+0x8>

000026bc <test_13>:
    26bc:	00d00e13          	li	t3,13
    26c0:	00000213          	li	tp,0
    26c4:	00006097          	auipc	ra,0x6
    26c8:	6fe08093          	addi	ra,ra,1790 # 8dc2 <tdat3>
    26cc:	00108183          	lb	gp,1(ra)
    26d0:	00000013          	nop
    26d4:	00018313          	mv	t1,gp
    26d8:	00f00e93          	li	t4,15
    26dc:	11d31463          	bne	t1,t4,27e4 <fail>
    26e0:	00120213          	addi	tp,tp,1 # 1 <boot+0x1>
    26e4:	00200293          	li	t0,2
    26e8:	fc521ee3          	bne	tp,t0,26c4 <test_13+0x8>

000026ec <test_14>:
    26ec:	00e00e13          	li	t3,14
    26f0:	00000213          	li	tp,0
    26f4:	00006097          	auipc	ra,0x6
    26f8:	6cc08093          	addi	ra,ra,1740 # 8dc0 <tdat>
    26fc:	00108183          	lb	gp,1(ra)
    2700:	00000013          	nop
    2704:	00000013          	nop
    2708:	00018313          	mv	t1,gp
    270c:	00000e93          	li	t4,0
    2710:	0dd31a63          	bne	t1,t4,27e4 <fail>
    2714:	00120213          	addi	tp,tp,1 # 1 <boot+0x1>
    2718:	00200293          	li	t0,2
    271c:	fc521ce3          	bne	tp,t0,26f4 <test_14+0x8>

00002720 <test_15>:
    2720:	00f00e13          	li	t3,15
    2724:	00000213          	li	tp,0
    2728:	00006097          	auipc	ra,0x6
    272c:	69908093          	addi	ra,ra,1689 # 8dc1 <tdat2>
    2730:	00108183          	lb	gp,1(ra)
    2734:	ff000e93          	li	t4,-16
    2738:	0bd19663          	bne	gp,t4,27e4 <fail>
    273c:	00120213          	addi	tp,tp,1 # 1 <boot+0x1>
    2740:	00200293          	li	t0,2
    2744:	fe5212e3          	bne	tp,t0,2728 <test_15+0x8>

00002748 <test_16>:
    2748:	01000e13          	li	t3,16
    274c:	00000213          	li	tp,0
    2750:	00006097          	auipc	ra,0x6
    2754:	67208093          	addi	ra,ra,1650 # 8dc2 <tdat3>
    2758:	00000013          	nop
    275c:	00108183          	lb	gp,1(ra)
    2760:	00f00e93          	li	t4,15
    2764:	09d19063          	bne	gp,t4,27e4 <fail>
    2768:	00120213          	addi	tp,tp,1 # 1 <boot+0x1>
    276c:	00200293          	li	t0,2
    2770:	fe5210e3          	bne	tp,t0,2750 <test_16+0x8>

00002774 <test_17>:
    2774:	01100e13          	li	t3,17
    2778:	00000213          	li	tp,0
    277c:	00006097          	auipc	ra,0x6
    2780:	64408093          	addi	ra,ra,1604 # 8dc0 <tdat>
    2784:	00000013          	nop
    2788:	00000013          	nop
    278c:	00108183          	lb	gp,1(ra)
    2790:	00000e93          	li	t4,0
    2794:	05d19863          	bne	gp,t4,27e4 <fail>
    2798:	00120213          	addi	tp,tp,1 # 1 <boot+0x1>
    279c:	00200293          	li	t0,2
    27a0:	fc521ee3          	bne	tp,t0,277c <test_17+0x8>

000027a4 <test_18>:
    27a4:	00006197          	auipc	gp,0x6
    27a8:	61c18193          	addi	gp,gp,1564 # 8dc0 <tdat>
    27ac:	00018103          	lb	sp,0(gp)
    27b0:	00200113          	li	sp,2
    27b4:	00200e93          	li	t4,2
    27b8:	01200e13          	li	t3,18
    27bc:	03d11463          	bne	sp,t4,27e4 <fail>

000027c0 <test_19>:
    27c0:	00006197          	auipc	gp,0x6
    27c4:	60018193          	addi	gp,gp,1536 # 8dc0 <tdat>
    27c8:	00018103          	lb	sp,0(gp)
    27cc:	00000013          	nop
    27d0:	00200113          	li	sp,2
    27d4:	00200e93          	li	t4,2
    27d8:	01300e13          	li	t3,19
    27dc:	01d11463          	bne	sp,t4,27e4 <fail>
    27e0:	03c01c63          	bne	zero,t3,2818 <pass>

000027e4 <fail>:
    27e4:	944fe0ef          	jal	ra,928 <failure>
    27e8:	10000537          	lui	a0,0x10000
    27ec:	04500593          	li	a1,69
    27f0:	05200613          	li	a2,82
    27f4:	04f00693          	li	a3,79
    27f8:	00a00713          	li	a4,10
    27fc:	00b52023          	sw	a1,0(a0) # 10000000 <tdat10+0xfff71e7>
    2800:	00c52023          	sw	a2,0(a0)
    2804:	00c52023          	sw	a2,0(a0)
    2808:	00d52023          	sw	a3,0(a0)
    280c:	00c52023          	sw	a2,0(a0)
    2810:	00e52023          	sw	a4,0(a0)
    2814:	00100073          	ebreak

00002818 <pass>:
    2818:	00009137          	lui	sp,0x9
    281c:	918fe0ef          	jal	ra,934 <OK>
    2820:	00000013          	nop
    2824:	9fcfe06f          	j	a20 <lb_ret>

00002828 <lh>:
    2828:	00003537          	lui	a0,0x3
    282c:	84850513          	addi	a0,a0,-1976 # 2848 <.test_name>

00002830 <loop>:
    2830:	a65fd0ef          	jal	ra,294 <putstr>

00002834 <.prname_next>:
    2834:	00050583          	lb	a1,0(a0)
    2838:	00058a63          	beqz	a1,284c <.prname_done>
    283c:	00b62023          	sw	a1,0(a2)
    2840:	00150513          	addi	a0,a0,1
    2844:	ff1ff06f          	j	2834 <.prname_next>

00002848 <.test_name>:
    2848:	686c                	flw	fa1,84(s0)
	...

0000284c <.prname_done>:
    284c:	02e00593          	li	a1,46
    2850:	00b62023          	sw	a1,0(a2)
    2854:	00b62023          	sw	a1,0(a2)

00002858 <test_2>:
    2858:	00006097          	auipc	ra,0x6
    285c:	56c08093          	addi	ra,ra,1388 # 8dc4 <tdat>
    2860:	00009183          	lh	gp,0(ra)
    2864:	0ff00e93          	li	t4,255
    2868:	00200e13          	li	t3,2
    286c:	25d19c63          	bne	gp,t4,2ac4 <fail>

00002870 <test_3>:
    2870:	00006097          	auipc	ra,0x6
    2874:	55408093          	addi	ra,ra,1364 # 8dc4 <tdat>
    2878:	00209183          	lh	gp,2(ra)
    287c:	f0000e93          	li	t4,-256
    2880:	00300e13          	li	t3,3
    2884:	25d19063          	bne	gp,t4,2ac4 <fail>

00002888 <test_4>:
    2888:	00006097          	auipc	ra,0x6
    288c:	53c08093          	addi	ra,ra,1340 # 8dc4 <tdat>
    2890:	00409183          	lh	gp,4(ra)
    2894:	00001eb7          	lui	t4,0x1
    2898:	ff0e8e93          	addi	t4,t4,-16 # ff0 <fail>
    289c:	00400e13          	li	t3,4
    28a0:	23d19263          	bne	gp,t4,2ac4 <fail>

000028a4 <test_5>:
    28a4:	00006097          	auipc	ra,0x6
    28a8:	52008093          	addi	ra,ra,1312 # 8dc4 <tdat>
    28ac:	00609183          	lh	gp,6(ra)
    28b0:	fffffeb7          	lui	t4,0xfffff
    28b4:	00fe8e93          	addi	t4,t4,15 # fffff00f <io+0x7ffff00f>
    28b8:	00500e13          	li	t3,5
    28bc:	21d19463          	bne	gp,t4,2ac4 <fail>

000028c0 <test_6>:
    28c0:	00006097          	auipc	ra,0x6
    28c4:	50a08093          	addi	ra,ra,1290 # 8dca <tdat4>
    28c8:	ffa09183          	lh	gp,-6(ra)
    28cc:	0ff00e93          	li	t4,255
    28d0:	00600e13          	li	t3,6
    28d4:	1fd19863          	bne	gp,t4,2ac4 <fail>

000028d8 <test_7>:
    28d8:	00006097          	auipc	ra,0x6
    28dc:	4f208093          	addi	ra,ra,1266 # 8dca <tdat4>
    28e0:	ffc09183          	lh	gp,-4(ra)
    28e4:	f0000e93          	li	t4,-256
    28e8:	00700e13          	li	t3,7
    28ec:	1dd19c63          	bne	gp,t4,2ac4 <fail>

000028f0 <test_8>:
    28f0:	00006097          	auipc	ra,0x6
    28f4:	4da08093          	addi	ra,ra,1242 # 8dca <tdat4>
    28f8:	ffe09183          	lh	gp,-2(ra)
    28fc:	00001eb7          	lui	t4,0x1
    2900:	ff0e8e93          	addi	t4,t4,-16 # ff0 <fail>
    2904:	00800e13          	li	t3,8
    2908:	1bd19e63          	bne	gp,t4,2ac4 <fail>

0000290c <test_9>:
    290c:	00006097          	auipc	ra,0x6
    2910:	4be08093          	addi	ra,ra,1214 # 8dca <tdat4>
    2914:	00009183          	lh	gp,0(ra)
    2918:	fffffeb7          	lui	t4,0xfffff
    291c:	00fe8e93          	addi	t4,t4,15 # fffff00f <io+0x7ffff00f>
    2920:	00900e13          	li	t3,9
    2924:	1bd19063          	bne	gp,t4,2ac4 <fail>

00002928 <test_10>:
    2928:	00006097          	auipc	ra,0x6
    292c:	49c08093          	addi	ra,ra,1180 # 8dc4 <tdat>
    2930:	fe008093          	addi	ra,ra,-32
    2934:	02009183          	lh	gp,32(ra)
    2938:	0ff00e93          	li	t4,255
    293c:	00a00e13          	li	t3,10
    2940:	19d19263          	bne	gp,t4,2ac4 <fail>

00002944 <test_11>:
    2944:	00006097          	auipc	ra,0x6
    2948:	48008093          	addi	ra,ra,1152 # 8dc4 <tdat>
    294c:	ffb08093          	addi	ra,ra,-5
    2950:	00709183          	lh	gp,7(ra)
    2954:	f0000e93          	li	t4,-256
    2958:	00b00e13          	li	t3,11
    295c:	17d19463          	bne	gp,t4,2ac4 <fail>

00002960 <test_12>:
    2960:	00c00e13          	li	t3,12
    2964:	00000213          	li	tp,0
    2968:	00006097          	auipc	ra,0x6
    296c:	45e08093          	addi	ra,ra,1118 # 8dc6 <tdat2>
    2970:	00209183          	lh	gp,2(ra)
    2974:	00018313          	mv	t1,gp
    2978:	00001eb7          	lui	t4,0x1
    297c:	ff0e8e93          	addi	t4,t4,-16 # ff0 <fail>
    2980:	15d31263          	bne	t1,t4,2ac4 <fail>
    2984:	00120213          	addi	tp,tp,1 # 1 <boot+0x1>
    2988:	00200293          	li	t0,2
    298c:	fc521ee3          	bne	tp,t0,2968 <test_12+0x8>

00002990 <test_13>:
    2990:	00d00e13          	li	t3,13
    2994:	00000213          	li	tp,0
    2998:	00006097          	auipc	ra,0x6
    299c:	43008093          	addi	ra,ra,1072 # 8dc8 <tdat3>
    29a0:	00209183          	lh	gp,2(ra)
    29a4:	00000013          	nop
    29a8:	00018313          	mv	t1,gp
    29ac:	fffffeb7          	lui	t4,0xfffff
    29b0:	00fe8e93          	addi	t4,t4,15 # fffff00f <io+0x7ffff00f>
    29b4:	11d31863          	bne	t1,t4,2ac4 <fail>
    29b8:	00120213          	addi	tp,tp,1 # 1 <boot+0x1>
    29bc:	00200293          	li	t0,2
    29c0:	fc521ce3          	bne	tp,t0,2998 <test_13+0x8>

000029c4 <test_14>:
    29c4:	00e00e13          	li	t3,14
    29c8:	00000213          	li	tp,0
    29cc:	00006097          	auipc	ra,0x6
    29d0:	3f808093          	addi	ra,ra,1016 # 8dc4 <tdat>
    29d4:	00209183          	lh	gp,2(ra)
    29d8:	00000013          	nop
    29dc:	00000013          	nop
    29e0:	00018313          	mv	t1,gp
    29e4:	f0000e93          	li	t4,-256
    29e8:	0dd31e63          	bne	t1,t4,2ac4 <fail>
    29ec:	00120213          	addi	tp,tp,1 # 1 <boot+0x1>
    29f0:	00200293          	li	t0,2
    29f4:	fc521ce3          	bne	tp,t0,29cc <test_14+0x8>

000029f8 <test_15>:
    29f8:	00f00e13          	li	t3,15
    29fc:	00000213          	li	tp,0
    2a00:	00006097          	auipc	ra,0x6
    2a04:	3c608093          	addi	ra,ra,966 # 8dc6 <tdat2>
    2a08:	00209183          	lh	gp,2(ra)
    2a0c:	00001eb7          	lui	t4,0x1
    2a10:	ff0e8e93          	addi	t4,t4,-16 # ff0 <fail>
    2a14:	0bd19863          	bne	gp,t4,2ac4 <fail>
    2a18:	00120213          	addi	tp,tp,1 # 1 <boot+0x1>
    2a1c:	00200293          	li	t0,2
    2a20:	fe5210e3          	bne	tp,t0,2a00 <test_15+0x8>

00002a24 <test_16>:
    2a24:	01000e13          	li	t3,16
    2a28:	00000213          	li	tp,0
    2a2c:	00006097          	auipc	ra,0x6
    2a30:	39c08093          	addi	ra,ra,924 # 8dc8 <tdat3>
    2a34:	00000013          	nop
    2a38:	00209183          	lh	gp,2(ra)
    2a3c:	fffffeb7          	lui	t4,0xfffff
    2a40:	00fe8e93          	addi	t4,t4,15 # fffff00f <io+0x7ffff00f>
    2a44:	09d19063          	bne	gp,t4,2ac4 <fail>
    2a48:	00120213          	addi	tp,tp,1 # 1 <boot+0x1>
    2a4c:	00200293          	li	t0,2
    2a50:	fc521ee3          	bne	tp,t0,2a2c <test_16+0x8>

00002a54 <test_17>:
    2a54:	01100e13          	li	t3,17
    2a58:	00000213          	li	tp,0
    2a5c:	00006097          	auipc	ra,0x6
    2a60:	36808093          	addi	ra,ra,872 # 8dc4 <tdat>
    2a64:	00000013          	nop
    2a68:	00000013          	nop
    2a6c:	00209183          	lh	gp,2(ra)
    2a70:	f0000e93          	li	t4,-256
    2a74:	05d19863          	bne	gp,t4,2ac4 <fail>
    2a78:	00120213          	addi	tp,tp,1 # 1 <boot+0x1>
    2a7c:	00200293          	li	t0,2
    2a80:	fc521ee3          	bne	tp,t0,2a5c <test_17+0x8>

00002a84 <test_18>:
    2a84:	00006197          	auipc	gp,0x6
    2a88:	34018193          	addi	gp,gp,832 # 8dc4 <tdat>
    2a8c:	00019103          	lh	sp,0(gp)
    2a90:	00200113          	li	sp,2
    2a94:	00200e93          	li	t4,2
    2a98:	01200e13          	li	t3,18
    2a9c:	03d11463          	bne	sp,t4,2ac4 <fail>

00002aa0 <test_19>:
    2aa0:	00006197          	auipc	gp,0x6
    2aa4:	32418193          	addi	gp,gp,804 # 8dc4 <tdat>
    2aa8:	00019103          	lh	sp,0(gp)
    2aac:	00000013          	nop
    2ab0:	00200113          	li	sp,2
    2ab4:	00200e93          	li	t4,2
    2ab8:	01300e13          	li	t3,19
    2abc:	01d11463          	bne	sp,t4,2ac4 <fail>
    2ac0:	03c01c63          	bne	zero,t3,2af8 <pass>

00002ac4 <fail>:
    2ac4:	e65fd0ef          	jal	ra,928 <failure>
    2ac8:	10000537          	lui	a0,0x10000
    2acc:	04500593          	li	a1,69
    2ad0:	05200613          	li	a2,82
    2ad4:	04f00693          	li	a3,79
    2ad8:	00a00713          	li	a4,10
    2adc:	00b52023          	sw	a1,0(a0) # 10000000 <tdat10+0xfff71e7>
    2ae0:	00c52023          	sw	a2,0(a0)
    2ae4:	00c52023          	sw	a2,0(a0)
    2ae8:	00d52023          	sw	a3,0(a0)
    2aec:	00c52023          	sw	a2,0(a0)
    2af0:	00e52023          	sw	a4,0(a0)
    2af4:	00100073          	ebreak

00002af8 <pass>:
    2af8:	00009137          	lui	sp,0x9
    2afc:	e39fd0ef          	jal	ra,934 <OK>
    2b00:	00000013          	nop
    2b04:	f25fd06f          	j	a28 <lh_ret>

00002b08 <srai>:
    2b08:	00003537          	lui	a0,0x3
    2b0c:	b2850513          	addi	a0,a0,-1240 # 2b28 <.test_name>

00002b10 <loop>:
    2b10:	f84fd0ef          	jal	ra,294 <putstr>

00002b14 <.prname_next>:
    2b14:	00050583          	lb	a1,0(a0)
    2b18:	00058c63          	beqz	a1,2b30 <.prname_done>
    2b1c:	00b62023          	sw	a1,0(a2)
    2b20:	00150513          	addi	a0,a0,1
    2b24:	ff1ff06f          	j	2b14 <.prname_next>

00002b28 <.test_name>:
    2b28:	69617273          	csrrci	tp,0x696,2
    2b2c:	0000                	unimp
	...

00002b30 <.prname_done>:
    2b30:	02e00593          	li	a1,46
    2b34:	00b62023          	sw	a1,0(a2)
    2b38:	00b62023          	sw	a1,0(a2)

00002b3c <test_2>:
    2b3c:	00000093          	li	ra,0
    2b40:	4000d193          	srai	gp,ra,0x0
    2b44:	00000e93          	li	t4,0
    2b48:	00200e13          	li	t3,2
    2b4c:	2bd19463          	bne	gp,t4,2df4 <fail>

00002b50 <test_3>:
    2b50:	800000b7          	lui	ra,0x80000
    2b54:	4010d193          	srai	gp,ra,0x1
    2b58:	c0000eb7          	lui	t4,0xc0000
    2b5c:	00300e13          	li	t3,3
    2b60:	29d19a63          	bne	gp,t4,2df4 <fail>

00002b64 <test_4>:
    2b64:	800000b7          	lui	ra,0x80000
    2b68:	4070d193          	srai	gp,ra,0x7
    2b6c:	ff000eb7          	lui	t4,0xff000
    2b70:	00400e13          	li	t3,4
    2b74:	29d19063          	bne	gp,t4,2df4 <fail>

00002b78 <test_5>:
    2b78:	800000b7          	lui	ra,0x80000
    2b7c:	40e0d193          	srai	gp,ra,0xe
    2b80:	fffe0eb7          	lui	t4,0xfffe0
    2b84:	00500e13          	li	t3,5
    2b88:	27d19663          	bne	gp,t4,2df4 <fail>

00002b8c <test_6>:
    2b8c:	800000b7          	lui	ra,0x80000
    2b90:	00108093          	addi	ra,ra,1 # 80000001 <io+0x1>
    2b94:	41f0d193          	srai	gp,ra,0x1f
    2b98:	fff00e93          	li	t4,-1
    2b9c:	00600e13          	li	t3,6
    2ba0:	25d19a63          	bne	gp,t4,2df4 <fail>

00002ba4 <test_7>:
    2ba4:	800000b7          	lui	ra,0x80000
    2ba8:	fff08093          	addi	ra,ra,-1 # 7fffffff <io+0xffffffff>
    2bac:	4000d193          	srai	gp,ra,0x0
    2bb0:	80000eb7          	lui	t4,0x80000
    2bb4:	fffe8e93          	addi	t4,t4,-1 # 7fffffff <io+0xffffffff>
    2bb8:	00700e13          	li	t3,7
    2bbc:	23d19c63          	bne	gp,t4,2df4 <fail>

00002bc0 <test_8>:
    2bc0:	800000b7          	lui	ra,0x80000
    2bc4:	fff08093          	addi	ra,ra,-1 # 7fffffff <io+0xffffffff>
    2bc8:	4010d193          	srai	gp,ra,0x1
    2bcc:	40000eb7          	lui	t4,0x40000
    2bd0:	fffe8e93          	addi	t4,t4,-1 # 3fffffff <tdat10+0x3fff71e6>
    2bd4:	00800e13          	li	t3,8
    2bd8:	21d19e63          	bne	gp,t4,2df4 <fail>

00002bdc <test_9>:
    2bdc:	800000b7          	lui	ra,0x80000
    2be0:	fff08093          	addi	ra,ra,-1 # 7fffffff <io+0xffffffff>
    2be4:	4070d193          	srai	gp,ra,0x7
    2be8:	01000eb7          	lui	t4,0x1000
    2bec:	fffe8e93          	addi	t4,t4,-1 # ffffff <tdat10+0xff71e6>
    2bf0:	00900e13          	li	t3,9
    2bf4:	21d19063          	bne	gp,t4,2df4 <fail>

00002bf8 <test_10>:
    2bf8:	800000b7          	lui	ra,0x80000
    2bfc:	fff08093          	addi	ra,ra,-1 # 7fffffff <io+0xffffffff>
    2c00:	40e0d193          	srai	gp,ra,0xe
    2c04:	00020eb7          	lui	t4,0x20
    2c08:	fffe8e93          	addi	t4,t4,-1 # 1ffff <tdat10+0x171e6>
    2c0c:	00a00e13          	li	t3,10
    2c10:	1fd19263          	bne	gp,t4,2df4 <fail>

00002c14 <test_11>:
    2c14:	800000b7          	lui	ra,0x80000
    2c18:	fff08093          	addi	ra,ra,-1 # 7fffffff <io+0xffffffff>
    2c1c:	41f0d193          	srai	gp,ra,0x1f
    2c20:	00000e93          	li	t4,0
    2c24:	00b00e13          	li	t3,11
    2c28:	1dd19663          	bne	gp,t4,2df4 <fail>

00002c2c <test_12>:
    2c2c:	818180b7          	lui	ra,0x81818
    2c30:	18108093          	addi	ra,ra,385 # 81818181 <io+0x1818181>
    2c34:	4000d193          	srai	gp,ra,0x0
    2c38:	81818eb7          	lui	t4,0x81818
    2c3c:	181e8e93          	addi	t4,t4,385 # 81818181 <io+0x1818181>
    2c40:	00c00e13          	li	t3,12
    2c44:	1bd19863          	bne	gp,t4,2df4 <fail>

00002c48 <test_13>:
    2c48:	818180b7          	lui	ra,0x81818
    2c4c:	18108093          	addi	ra,ra,385 # 81818181 <io+0x1818181>
    2c50:	4010d193          	srai	gp,ra,0x1
    2c54:	c0c0ceb7          	lui	t4,0xc0c0c
    2c58:	0c0e8e93          	addi	t4,t4,192 # c0c0c0c0 <io+0x40c0c0c0>
    2c5c:	00d00e13          	li	t3,13
    2c60:	19d19a63          	bne	gp,t4,2df4 <fail>

00002c64 <test_14>:
    2c64:	818180b7          	lui	ra,0x81818
    2c68:	18108093          	addi	ra,ra,385 # 81818181 <io+0x1818181>
    2c6c:	4070d193          	srai	gp,ra,0x7
    2c70:	ff030eb7          	lui	t4,0xff030
    2c74:	303e8e93          	addi	t4,t4,771 # ff030303 <io+0x7f030303>
    2c78:	00e00e13          	li	t3,14
    2c7c:	17d19c63          	bne	gp,t4,2df4 <fail>

00002c80 <test_15>:
    2c80:	818180b7          	lui	ra,0x81818
    2c84:	18108093          	addi	ra,ra,385 # 81818181 <io+0x1818181>
    2c88:	40e0d193          	srai	gp,ra,0xe
    2c8c:	fffe0eb7          	lui	t4,0xfffe0
    2c90:	606e8e93          	addi	t4,t4,1542 # fffe0606 <io+0x7ffe0606>
    2c94:	00f00e13          	li	t3,15
    2c98:	15d19e63          	bne	gp,t4,2df4 <fail>

00002c9c <test_16>:
    2c9c:	818180b7          	lui	ra,0x81818
    2ca0:	18108093          	addi	ra,ra,385 # 81818181 <io+0x1818181>
    2ca4:	41f0d193          	srai	gp,ra,0x1f
    2ca8:	fff00e93          	li	t4,-1
    2cac:	01000e13          	li	t3,16
    2cb0:	15d19263          	bne	gp,t4,2df4 <fail>

00002cb4 <test_17>:
    2cb4:	800000b7          	lui	ra,0x80000
    2cb8:	4070d093          	srai	ra,ra,0x7
    2cbc:	ff000eb7          	lui	t4,0xff000
    2cc0:	01100e13          	li	t3,17
    2cc4:	13d09863          	bne	ra,t4,2df4 <fail>

00002cc8 <test_18>:
    2cc8:	00000213          	li	tp,0
    2ccc:	800000b7          	lui	ra,0x80000
    2cd0:	4070d193          	srai	gp,ra,0x7
    2cd4:	00018313          	mv	t1,gp
    2cd8:	00120213          	addi	tp,tp,1 # 1 <boot+0x1>
    2cdc:	00200293          	li	t0,2
    2ce0:	fe5216e3          	bne	tp,t0,2ccc <test_18+0x4>
    2ce4:	ff000eb7          	lui	t4,0xff000
    2ce8:	01200e13          	li	t3,18
    2cec:	11d31463          	bne	t1,t4,2df4 <fail>

00002cf0 <test_19>:
    2cf0:	00000213          	li	tp,0
    2cf4:	800000b7          	lui	ra,0x80000
    2cf8:	40e0d193          	srai	gp,ra,0xe
    2cfc:	00000013          	nop
    2d00:	00018313          	mv	t1,gp
    2d04:	00120213          	addi	tp,tp,1 # 1 <boot+0x1>
    2d08:	00200293          	li	t0,2
    2d0c:	fe5214e3          	bne	tp,t0,2cf4 <test_19+0x4>
    2d10:	fffe0eb7          	lui	t4,0xfffe0
    2d14:	01300e13          	li	t3,19
    2d18:	0dd31e63          	bne	t1,t4,2df4 <fail>

00002d1c <test_20>:
    2d1c:	00000213          	li	tp,0
    2d20:	800000b7          	lui	ra,0x80000
    2d24:	00108093          	addi	ra,ra,1 # 80000001 <io+0x1>
    2d28:	41f0d193          	srai	gp,ra,0x1f
    2d2c:	00000013          	nop
    2d30:	00000013          	nop
    2d34:	00018313          	mv	t1,gp
    2d38:	00120213          	addi	tp,tp,1 # 1 <boot+0x1>
    2d3c:	00200293          	li	t0,2
    2d40:	fe5210e3          	bne	tp,t0,2d20 <test_20+0x4>
    2d44:	fff00e93          	li	t4,-1
    2d48:	01400e13          	li	t3,20
    2d4c:	0bd31463          	bne	t1,t4,2df4 <fail>

00002d50 <test_21>:
    2d50:	00000213          	li	tp,0
    2d54:	800000b7          	lui	ra,0x80000
    2d58:	4070d193          	srai	gp,ra,0x7
    2d5c:	00120213          	addi	tp,tp,1 # 1 <boot+0x1>
    2d60:	00200293          	li	t0,2
    2d64:	fe5218e3          	bne	tp,t0,2d54 <test_21+0x4>
    2d68:	ff000eb7          	lui	t4,0xff000
    2d6c:	01500e13          	li	t3,21
    2d70:	09d19263          	bne	gp,t4,2df4 <fail>

00002d74 <test_22>:
    2d74:	00000213          	li	tp,0
    2d78:	800000b7          	lui	ra,0x80000
    2d7c:	00000013          	nop
    2d80:	40e0d193          	srai	gp,ra,0xe
    2d84:	00120213          	addi	tp,tp,1 # 1 <boot+0x1>
    2d88:	00200293          	li	t0,2
    2d8c:	fe5216e3          	bne	tp,t0,2d78 <test_22+0x4>
    2d90:	fffe0eb7          	lui	t4,0xfffe0
    2d94:	01600e13          	li	t3,22
    2d98:	05d19e63          	bne	gp,t4,2df4 <fail>

00002d9c <test_23>:
    2d9c:	00000213          	li	tp,0
    2da0:	800000b7          	lui	ra,0x80000
    2da4:	00108093          	addi	ra,ra,1 # 80000001 <io+0x1>
    2da8:	00000013          	nop
    2dac:	00000013          	nop
    2db0:	41f0d193          	srai	gp,ra,0x1f
    2db4:	00120213          	addi	tp,tp,1 # 1 <boot+0x1>
    2db8:	00200293          	li	t0,2
    2dbc:	fe5212e3          	bne	tp,t0,2da0 <test_23+0x4>
    2dc0:	fff00e93          	li	t4,-1
    2dc4:	01700e13          	li	t3,23
    2dc8:	03d19663          	bne	gp,t4,2df4 <fail>

00002dcc <test_24>:
    2dcc:	41f05093          	srai	ra,zero,0x1f
    2dd0:	00000e93          	li	t4,0
    2dd4:	01800e13          	li	t3,24
    2dd8:	01d09e63          	bne	ra,t4,2df4 <fail>

00002ddc <test_25>:
    2ddc:	02100093          	li	ra,33
    2de0:	4140d013          	srai	zero,ra,0x14
    2de4:	00000e93          	li	t4,0
    2de8:	01900e13          	li	t3,25
    2dec:	01d01463          	bne	zero,t4,2df4 <fail>
    2df0:	03c01c63          	bne	zero,t3,2e28 <pass>

00002df4 <fail>:
    2df4:	b35fd0ef          	jal	ra,928 <failure>
    2df8:	10000537          	lui	a0,0x10000
    2dfc:	04500593          	li	a1,69
    2e00:	05200613          	li	a2,82
    2e04:	04f00693          	li	a3,79
    2e08:	00a00713          	li	a4,10
    2e0c:	00b52023          	sw	a1,0(a0) # 10000000 <tdat10+0xfff71e7>
    2e10:	00c52023          	sw	a2,0(a0)
    2e14:	00c52023          	sw	a2,0(a0)
    2e18:	00d52023          	sw	a3,0(a0)
    2e1c:	00c52023          	sw	a2,0(a0)
    2e20:	00e52023          	sw	a4,0(a0)
    2e24:	00100073          	ebreak

00002e28 <pass>:
    2e28:	00009137          	lui	sp,0x9
    2e2c:	b09fd0ef          	jal	ra,934 <OK>
    2e30:	00000013          	nop
    2e34:	c65fd06f          	j	a98 <srai_ret>

00002e38 <bltu>:
    2e38:	00003537          	lui	a0,0x3
    2e3c:	e5850513          	addi	a0,a0,-424 # 2e58 <.test_name>

00002e40 <loop>:
    2e40:	c54fd0ef          	jal	ra,294 <putstr>

00002e44 <.prname_next>:
    2e44:	00050583          	lb	a1,0(a0)
    2e48:	00058c63          	beqz	a1,2e60 <.prname_done>
    2e4c:	00b62023          	sw	a1,0(a2)
    2e50:	00150513          	addi	a0,a0,1
    2e54:	ff1ff06f          	j	2e44 <.prname_next>

00002e58 <.test_name>:
    2e58:	6c62                	flw	fs8,24(sp)
    2e5a:	7574                	flw	fa3,108(a0)
    2e5c:	0000                	unimp
	...

00002e60 <.prname_done>:
    2e60:	02e00593          	li	a1,46
    2e64:	00b62023          	sw	a1,0(a2)
    2e68:	00b62023          	sw	a1,0(a2)

00002e6c <test_2>:
    2e6c:	00200e13          	li	t3,2
    2e70:	00000093          	li	ra,0
    2e74:	00100113          	li	sp,1
    2e78:	0020e663          	bltu	ra,sp,2e84 <test_2+0x18>
    2e7c:	2fc01263          	bne	zero,t3,3160 <fail>
    2e80:	01c01663          	bne	zero,t3,2e8c <test_3>
    2e84:	fe20eee3          	bltu	ra,sp,2e80 <test_2+0x14>
    2e88:	2dc01c63          	bne	zero,t3,3160 <fail>

00002e8c <test_3>:
    2e8c:	00300e13          	li	t3,3
    2e90:	ffe00093          	li	ra,-2
    2e94:	fff00113          	li	sp,-1
    2e98:	0020e663          	bltu	ra,sp,2ea4 <test_3+0x18>
    2e9c:	2dc01263          	bne	zero,t3,3160 <fail>
    2ea0:	01c01663          	bne	zero,t3,2eac <test_4>
    2ea4:	fe20eee3          	bltu	ra,sp,2ea0 <test_3+0x14>
    2ea8:	2bc01c63          	bne	zero,t3,3160 <fail>

00002eac <test_4>:
    2eac:	00400e13          	li	t3,4
    2eb0:	00000093          	li	ra,0
    2eb4:	fff00113          	li	sp,-1
    2eb8:	0020e663          	bltu	ra,sp,2ec4 <test_4+0x18>
    2ebc:	2bc01263          	bne	zero,t3,3160 <fail>
    2ec0:	01c01663          	bne	zero,t3,2ecc <test_5>
    2ec4:	fe20eee3          	bltu	ra,sp,2ec0 <test_4+0x14>
    2ec8:	29c01c63          	bne	zero,t3,3160 <fail>

00002ecc <test_5>:
    2ecc:	00500e13          	li	t3,5
    2ed0:	00100093          	li	ra,1
    2ed4:	00000113          	li	sp,0
    2ed8:	0020e463          	bltu	ra,sp,2ee0 <test_5+0x14>
    2edc:	01c01463          	bne	zero,t3,2ee4 <test_5+0x18>
    2ee0:	29c01063          	bne	zero,t3,3160 <fail>
    2ee4:	fe20eee3          	bltu	ra,sp,2ee0 <test_5+0x14>

00002ee8 <test_6>:
    2ee8:	00600e13          	li	t3,6
    2eec:	fff00093          	li	ra,-1
    2ef0:	ffe00113          	li	sp,-2
    2ef4:	0020e463          	bltu	ra,sp,2efc <test_6+0x14>
    2ef8:	01c01463          	bne	zero,t3,2f00 <test_6+0x18>
    2efc:	27c01263          	bne	zero,t3,3160 <fail>
    2f00:	fe20eee3          	bltu	ra,sp,2efc <test_6+0x14>

00002f04 <test_7>:
    2f04:	00700e13          	li	t3,7
    2f08:	fff00093          	li	ra,-1
    2f0c:	00000113          	li	sp,0
    2f10:	0020e463          	bltu	ra,sp,2f18 <test_7+0x14>
    2f14:	01c01463          	bne	zero,t3,2f1c <test_7+0x18>
    2f18:	25c01463          	bne	zero,t3,3160 <fail>
    2f1c:	fe20eee3          	bltu	ra,sp,2f18 <test_7+0x14>

00002f20 <test_8>:
    2f20:	00800e13          	li	t3,8
    2f24:	800000b7          	lui	ra,0x80000
    2f28:	80000137          	lui	sp,0x80000
    2f2c:	fff10113          	addi	sp,sp,-1 # 7fffffff <io+0xffffffff>
    2f30:	0020e463          	bltu	ra,sp,2f38 <test_8+0x18>
    2f34:	01c01463          	bne	zero,t3,2f3c <test_8+0x1c>
    2f38:	23c01463          	bne	zero,t3,3160 <fail>
    2f3c:	fe20eee3          	bltu	ra,sp,2f38 <test_8+0x18>

00002f40 <test_9>:
    2f40:	00900e13          	li	t3,9
    2f44:	00000213          	li	tp,0
    2f48:	f00000b7          	lui	ra,0xf0000
    2f4c:	f0000137          	lui	sp,0xf0000
    2f50:	fff10113          	addi	sp,sp,-1 # efffffff <io+0x6fffffff>
    2f54:	2020e663          	bltu	ra,sp,3160 <fail>
    2f58:	00120213          	addi	tp,tp,1 # 1 <boot+0x1>
    2f5c:	00200293          	li	t0,2
    2f60:	fe5214e3          	bne	tp,t0,2f48 <test_9+0x8>

00002f64 <test_10>:
    2f64:	00a00e13          	li	t3,10
    2f68:	00000213          	li	tp,0
    2f6c:	f00000b7          	lui	ra,0xf0000
    2f70:	f0000137          	lui	sp,0xf0000
    2f74:	fff10113          	addi	sp,sp,-1 # efffffff <io+0x6fffffff>
    2f78:	00000013          	nop
    2f7c:	1e20e263          	bltu	ra,sp,3160 <fail>
    2f80:	00120213          	addi	tp,tp,1 # 1 <boot+0x1>
    2f84:	00200293          	li	t0,2
    2f88:	fe5212e3          	bne	tp,t0,2f6c <test_10+0x8>

00002f8c <test_11>:
    2f8c:	00b00e13          	li	t3,11
    2f90:	00000213          	li	tp,0
    2f94:	f00000b7          	lui	ra,0xf0000
    2f98:	f0000137          	lui	sp,0xf0000
    2f9c:	fff10113          	addi	sp,sp,-1 # efffffff <io+0x6fffffff>
    2fa0:	00000013          	nop
    2fa4:	00000013          	nop
    2fa8:	1a20ec63          	bltu	ra,sp,3160 <fail>
    2fac:	00120213          	addi	tp,tp,1 # 1 <boot+0x1>
    2fb0:	00200293          	li	t0,2
    2fb4:	fe5210e3          	bne	tp,t0,2f94 <test_11+0x8>

00002fb8 <test_12>:
    2fb8:	00c00e13          	li	t3,12
    2fbc:	00000213          	li	tp,0
    2fc0:	f00000b7          	lui	ra,0xf0000
    2fc4:	00000013          	nop
    2fc8:	f0000137          	lui	sp,0xf0000
    2fcc:	fff10113          	addi	sp,sp,-1 # efffffff <io+0x6fffffff>
    2fd0:	1820e863          	bltu	ra,sp,3160 <fail>
    2fd4:	00120213          	addi	tp,tp,1 # 1 <boot+0x1>
    2fd8:	00200293          	li	t0,2
    2fdc:	fe5212e3          	bne	tp,t0,2fc0 <test_12+0x8>

00002fe0 <test_13>:
    2fe0:	00d00e13          	li	t3,13
    2fe4:	00000213          	li	tp,0
    2fe8:	f00000b7          	lui	ra,0xf0000
    2fec:	00000013          	nop
    2ff0:	f0000137          	lui	sp,0xf0000
    2ff4:	fff10113          	addi	sp,sp,-1 # efffffff <io+0x6fffffff>
    2ff8:	00000013          	nop
    2ffc:	1620e263          	bltu	ra,sp,3160 <fail>
    3000:	00120213          	addi	tp,tp,1 # 1 <boot+0x1>
    3004:	00200293          	li	t0,2
    3008:	fe5210e3          	bne	tp,t0,2fe8 <test_13+0x8>

0000300c <test_14>:
    300c:	00e00e13          	li	t3,14
    3010:	00000213          	li	tp,0
    3014:	f00000b7          	lui	ra,0xf0000
    3018:	00000013          	nop
    301c:	00000013          	nop
    3020:	f0000137          	lui	sp,0xf0000
    3024:	fff10113          	addi	sp,sp,-1 # efffffff <io+0x6fffffff>
    3028:	1220ec63          	bltu	ra,sp,3160 <fail>
    302c:	00120213          	addi	tp,tp,1 # 1 <boot+0x1>
    3030:	00200293          	li	t0,2
    3034:	fe5210e3          	bne	tp,t0,3014 <test_14+0x8>

00003038 <test_15>:
    3038:	00f00e13          	li	t3,15
    303c:	00000213          	li	tp,0
    3040:	f00000b7          	lui	ra,0xf0000
    3044:	f0000137          	lui	sp,0xf0000
    3048:	fff10113          	addi	sp,sp,-1 # efffffff <io+0x6fffffff>
    304c:	1020ea63          	bltu	ra,sp,3160 <fail>
    3050:	00120213          	addi	tp,tp,1 # 1 <boot+0x1>
    3054:	00200293          	li	t0,2
    3058:	fe5214e3          	bne	tp,t0,3040 <test_15+0x8>

0000305c <test_16>:
    305c:	01000e13          	li	t3,16
    3060:	00000213          	li	tp,0
    3064:	f00000b7          	lui	ra,0xf0000
    3068:	f0000137          	lui	sp,0xf0000
    306c:	fff10113          	addi	sp,sp,-1 # efffffff <io+0x6fffffff>
    3070:	00000013          	nop
    3074:	0e20e663          	bltu	ra,sp,3160 <fail>
    3078:	00120213          	addi	tp,tp,1 # 1 <boot+0x1>
    307c:	00200293          	li	t0,2
    3080:	fe5212e3          	bne	tp,t0,3064 <test_16+0x8>

00003084 <test_17>:
    3084:	01100e13          	li	t3,17
    3088:	00000213          	li	tp,0
    308c:	f00000b7          	lui	ra,0xf0000
    3090:	f0000137          	lui	sp,0xf0000
    3094:	fff10113          	addi	sp,sp,-1 # efffffff <io+0x6fffffff>
    3098:	00000013          	nop
    309c:	00000013          	nop
    30a0:	0c20e063          	bltu	ra,sp,3160 <fail>
    30a4:	00120213          	addi	tp,tp,1 # 1 <boot+0x1>
    30a8:	00200293          	li	t0,2
    30ac:	fe5210e3          	bne	tp,t0,308c <test_17+0x8>

000030b0 <test_18>:
    30b0:	01200e13          	li	t3,18
    30b4:	00000213          	li	tp,0
    30b8:	f00000b7          	lui	ra,0xf0000
    30bc:	00000013          	nop
    30c0:	f0000137          	lui	sp,0xf0000
    30c4:	fff10113          	addi	sp,sp,-1 # efffffff <io+0x6fffffff>
    30c8:	0820ec63          	bltu	ra,sp,3160 <fail>
    30cc:	00120213          	addi	tp,tp,1 # 1 <boot+0x1>
    30d0:	00200293          	li	t0,2
    30d4:	fe5212e3          	bne	tp,t0,30b8 <test_18+0x8>

000030d8 <test_19>:
    30d8:	01300e13          	li	t3,19
    30dc:	00000213          	li	tp,0
    30e0:	f00000b7          	lui	ra,0xf0000
    30e4:	00000013          	nop
    30e8:	f0000137          	lui	sp,0xf0000
    30ec:	fff10113          	addi	sp,sp,-1 # efffffff <io+0x6fffffff>
    30f0:	00000013          	nop
    30f4:	0620e663          	bltu	ra,sp,3160 <fail>
    30f8:	00120213          	addi	tp,tp,1 # 1 <boot+0x1>
    30fc:	00200293          	li	t0,2
    3100:	fe5210e3          	bne	tp,t0,30e0 <test_19+0x8>

00003104 <test_20>:
    3104:	01400e13          	li	t3,20
    3108:	00000213          	li	tp,0
    310c:	f00000b7          	lui	ra,0xf0000
    3110:	00000013          	nop
    3114:	00000013          	nop
    3118:	f0000137          	lui	sp,0xf0000
    311c:	fff10113          	addi	sp,sp,-1 # efffffff <io+0x6fffffff>
    3120:	0420e063          	bltu	ra,sp,3160 <fail>
    3124:	00120213          	addi	tp,tp,1 # 1 <boot+0x1>
    3128:	00200293          	li	t0,2
    312c:	fe5210e3          	bne	tp,t0,310c <test_20+0x8>

00003130 <test_21>:
    3130:	00100093          	li	ra,1
    3134:	00106a63          	bltu	zero,ra,3148 <test_21+0x18>
    3138:	00108093          	addi	ra,ra,1 # f0000001 <io+0x70000001>
    313c:	00108093          	addi	ra,ra,1
    3140:	00108093          	addi	ra,ra,1
    3144:	00108093          	addi	ra,ra,1
    3148:	00108093          	addi	ra,ra,1
    314c:	00108093          	addi	ra,ra,1
    3150:	00300e93          	li	t4,3
    3154:	01500e13          	li	t3,21
    3158:	01d09463          	bne	ra,t4,3160 <fail>
    315c:	03c01c63          	bne	zero,t3,3194 <pass>

00003160 <fail>:
    3160:	fc8fd0ef          	jal	ra,928 <failure>
    3164:	10000537          	lui	a0,0x10000
    3168:	04500593          	li	a1,69
    316c:	05200613          	li	a2,82
    3170:	04f00693          	li	a3,79
    3174:	00a00713          	li	a4,10
    3178:	00b52023          	sw	a1,0(a0) # 10000000 <tdat10+0xfff71e7>
    317c:	00c52023          	sw	a2,0(a0)
    3180:	00c52023          	sw	a2,0(a0)
    3184:	00d52023          	sw	a3,0(a0)
    3188:	00c52023          	sw	a2,0(a0)
    318c:	00e52023          	sw	a4,0(a0)
    3190:	00100073          	ebreak

00003194 <pass>:
    3194:	00009137          	lui	sp,0x9
    3198:	f9cfd0ef          	jal	ra,934 <OK>
    319c:	00000013          	nop
    31a0:	871fd06f          	j	a10 <bltu_ret>

000031a4 <slti>:
    31a4:	00003537          	lui	a0,0x3
    31a8:	1c450513          	addi	a0,a0,452 # 31c4 <.test_name>

000031ac <loop>:
    31ac:	8e8fd0ef          	jal	ra,294 <putstr>

000031b0 <.prname_next>:
    31b0:	00050583          	lb	a1,0(a0)
    31b4:	00058c63          	beqz	a1,31cc <.prname_done>
    31b8:	00b62023          	sw	a1,0(a2)
    31bc:	00150513          	addi	a0,a0,1
    31c0:	ff1ff06f          	j	31b0 <.prname_next>

000031c4 <.test_name>:
    31c4:	69746c73          	csrrsi	s8,0x697,8
    31c8:	0000                	unimp
	...

000031cc <.prname_done>:
    31cc:	02e00593          	li	a1,46
    31d0:	00b62023          	sw	a1,0(a2)
    31d4:	00b62023          	sw	a1,0(a2)

000031d8 <test_2>:
    31d8:	00000093          	li	ra,0
    31dc:	0000a193          	slti	gp,ra,0
    31e0:	00000e93          	li	t4,0
    31e4:	00200e13          	li	t3,2
    31e8:	27d19263          	bne	gp,t4,344c <fail>

000031ec <test_3>:
    31ec:	00100093          	li	ra,1
    31f0:	0010a193          	slti	gp,ra,1
    31f4:	00000e93          	li	t4,0
    31f8:	00300e13          	li	t3,3
    31fc:	25d19863          	bne	gp,t4,344c <fail>

00003200 <test_4>:
    3200:	00300093          	li	ra,3
    3204:	0070a193          	slti	gp,ra,7
    3208:	00100e93          	li	t4,1
    320c:	00400e13          	li	t3,4
    3210:	23d19e63          	bne	gp,t4,344c <fail>

00003214 <test_5>:
    3214:	00700093          	li	ra,7
    3218:	0030a193          	slti	gp,ra,3
    321c:	00000e93          	li	t4,0
    3220:	00500e13          	li	t3,5
    3224:	23d19463          	bne	gp,t4,344c <fail>

00003228 <test_6>:
    3228:	00000093          	li	ra,0
    322c:	8000a193          	slti	gp,ra,-2048
    3230:	00000e93          	li	t4,0
    3234:	00600e13          	li	t3,6
    3238:	21d19a63          	bne	gp,t4,344c <fail>

0000323c <test_7>:
    323c:	800000b7          	lui	ra,0x80000
    3240:	0000a193          	slti	gp,ra,0
    3244:	00100e93          	li	t4,1
    3248:	00700e13          	li	t3,7
    324c:	21d19063          	bne	gp,t4,344c <fail>

00003250 <test_8>:
    3250:	800000b7          	lui	ra,0x80000
    3254:	8000a193          	slti	gp,ra,-2048
    3258:	00100e93          	li	t4,1
    325c:	00800e13          	li	t3,8
    3260:	1fd19663          	bne	gp,t4,344c <fail>

00003264 <test_9>:
    3264:	00000093          	li	ra,0
    3268:	7ff0a193          	slti	gp,ra,2047
    326c:	00100e93          	li	t4,1
    3270:	00900e13          	li	t3,9
    3274:	1dd19c63          	bne	gp,t4,344c <fail>

00003278 <test_10>:
    3278:	800000b7          	lui	ra,0x80000
    327c:	fff08093          	addi	ra,ra,-1 # 7fffffff <io+0xffffffff>
    3280:	0000a193          	slti	gp,ra,0
    3284:	00000e93          	li	t4,0
    3288:	00a00e13          	li	t3,10
    328c:	1dd19063          	bne	gp,t4,344c <fail>

00003290 <test_11>:
    3290:	800000b7          	lui	ra,0x80000
    3294:	fff08093          	addi	ra,ra,-1 # 7fffffff <io+0xffffffff>
    3298:	7ff0a193          	slti	gp,ra,2047
    329c:	00000e93          	li	t4,0
    32a0:	00b00e13          	li	t3,11
    32a4:	1bd19463          	bne	gp,t4,344c <fail>

000032a8 <test_12>:
    32a8:	800000b7          	lui	ra,0x80000
    32ac:	7ff0a193          	slti	gp,ra,2047
    32b0:	00100e93          	li	t4,1
    32b4:	00c00e13          	li	t3,12
    32b8:	19d19a63          	bne	gp,t4,344c <fail>

000032bc <test_13>:
    32bc:	800000b7          	lui	ra,0x80000
    32c0:	fff08093          	addi	ra,ra,-1 # 7fffffff <io+0xffffffff>
    32c4:	8000a193          	slti	gp,ra,-2048
    32c8:	00000e93          	li	t4,0
    32cc:	00d00e13          	li	t3,13
    32d0:	17d19e63          	bne	gp,t4,344c <fail>

000032d4 <test_14>:
    32d4:	00000093          	li	ra,0
    32d8:	fff0a193          	slti	gp,ra,-1
    32dc:	00000e93          	li	t4,0
    32e0:	00e00e13          	li	t3,14
    32e4:	17d19463          	bne	gp,t4,344c <fail>

000032e8 <test_15>:
    32e8:	fff00093          	li	ra,-1
    32ec:	0010a193          	slti	gp,ra,1
    32f0:	00100e93          	li	t4,1
    32f4:	00f00e13          	li	t3,15
    32f8:	15d19a63          	bne	gp,t4,344c <fail>

000032fc <test_16>:
    32fc:	fff00093          	li	ra,-1
    3300:	fff0a193          	slti	gp,ra,-1
    3304:	00000e93          	li	t4,0
    3308:	01000e13          	li	t3,16
    330c:	15d19063          	bne	gp,t4,344c <fail>

00003310 <test_17>:
    3310:	00b00093          	li	ra,11
    3314:	00d0b093          	sltiu	ra,ra,13
    3318:	00100e93          	li	t4,1
    331c:	01100e13          	li	t3,17
    3320:	13d09663          	bne	ra,t4,344c <fail>

00003324 <test_18>:
    3324:	00000213          	li	tp,0
    3328:	00f00093          	li	ra,15
    332c:	00a0a193          	slti	gp,ra,10
    3330:	00018313          	mv	t1,gp
    3334:	00120213          	addi	tp,tp,1 # 1 <boot+0x1>
    3338:	00200293          	li	t0,2
    333c:	fe5216e3          	bne	tp,t0,3328 <test_18+0x4>
    3340:	00000e93          	li	t4,0
    3344:	01200e13          	li	t3,18
    3348:	11d31263          	bne	t1,t4,344c <fail>

0000334c <test_19>:
    334c:	00000213          	li	tp,0
    3350:	00a00093          	li	ra,10
    3354:	0100a193          	slti	gp,ra,16
    3358:	00000013          	nop
    335c:	00018313          	mv	t1,gp
    3360:	00120213          	addi	tp,tp,1 # 1 <boot+0x1>
    3364:	00200293          	li	t0,2
    3368:	fe5214e3          	bne	tp,t0,3350 <test_19+0x4>
    336c:	00100e93          	li	t4,1
    3370:	01300e13          	li	t3,19
    3374:	0dd31c63          	bne	t1,t4,344c <fail>

00003378 <test_20>:
    3378:	00000213          	li	tp,0
    337c:	01000093          	li	ra,16
    3380:	0090a193          	slti	gp,ra,9
    3384:	00000013          	nop
    3388:	00000013          	nop
    338c:	00018313          	mv	t1,gp
    3390:	00120213          	addi	tp,tp,1 # 1 <boot+0x1>
    3394:	00200293          	li	t0,2
    3398:	fe5212e3          	bne	tp,t0,337c <test_20+0x4>
    339c:	00000e93          	li	t4,0
    33a0:	01400e13          	li	t3,20
    33a4:	0bd31463          	bne	t1,t4,344c <fail>

000033a8 <test_21>:
    33a8:	00000213          	li	tp,0
    33ac:	00b00093          	li	ra,11
    33b0:	00f0a193          	slti	gp,ra,15
    33b4:	00120213          	addi	tp,tp,1 # 1 <boot+0x1>
    33b8:	00200293          	li	t0,2
    33bc:	fe5218e3          	bne	tp,t0,33ac <test_21+0x4>
    33c0:	00100e93          	li	t4,1
    33c4:	01500e13          	li	t3,21
    33c8:	09d19263          	bne	gp,t4,344c <fail>

000033cc <test_22>:
    33cc:	00000213          	li	tp,0
    33d0:	01100093          	li	ra,17
    33d4:	00000013          	nop
    33d8:	0080a193          	slti	gp,ra,8
    33dc:	00120213          	addi	tp,tp,1 # 1 <boot+0x1>
    33e0:	00200293          	li	t0,2
    33e4:	fe5216e3          	bne	tp,t0,33d0 <test_22+0x4>
    33e8:	00000e93          	li	t4,0
    33ec:	01600e13          	li	t3,22
    33f0:	05d19e63          	bne	gp,t4,344c <fail>

000033f4 <test_23>:
    33f4:	00000213          	li	tp,0
    33f8:	00c00093          	li	ra,12
    33fc:	00000013          	nop
    3400:	00000013          	nop
    3404:	00e0a193          	slti	gp,ra,14
    3408:	00120213          	addi	tp,tp,1 # 1 <boot+0x1>
    340c:	00200293          	li	t0,2
    3410:	fe5214e3          	bne	tp,t0,33f8 <test_23+0x4>
    3414:	00100e93          	li	t4,1
    3418:	01700e13          	li	t3,23
    341c:	03d19863          	bne	gp,t4,344c <fail>

00003420 <test_24>:
    3420:	fff02093          	slti	ra,zero,-1
    3424:	00000e93          	li	t4,0
    3428:	01800e13          	li	t3,24
    342c:	03d09063          	bne	ra,t4,344c <fail>

00003430 <test_25>:
    3430:	00ff00b7          	lui	ra,0xff0
    3434:	0ff08093          	addi	ra,ra,255 # ff00ff <tdat10+0xfe72e6>
    3438:	fff0a013          	slti	zero,ra,-1
    343c:	00000e93          	li	t4,0
    3440:	01900e13          	li	t3,25
    3444:	01d01463          	bne	zero,t4,344c <fail>
    3448:	03c01c63          	bne	zero,t3,3480 <pass>

0000344c <fail>:
    344c:	cdcfd0ef          	jal	ra,928 <failure>
    3450:	10000537          	lui	a0,0x10000
    3454:	04500593          	li	a1,69
    3458:	05200613          	li	a2,82
    345c:	04f00693          	li	a3,79
    3460:	00a00713          	li	a4,10
    3464:	00b52023          	sw	a1,0(a0) # 10000000 <tdat10+0xfff71e7>
    3468:	00c52023          	sw	a2,0(a0)
    346c:	00c52023          	sw	a2,0(a0)
    3470:	00d52023          	sw	a3,0(a0)
    3474:	00c52023          	sw	a2,0(a0)
    3478:	00e52023          	sw	a4,0(a0)
    347c:	00100073          	ebreak

00003480 <pass>:
    3480:	00009137          	lui	sp,0x9
    3484:	cb0fd0ef          	jal	ra,934 <OK>
    3488:	00000013          	nop
    348c:	ddcfd06f          	j	a68 <slti_ret>

00003490 <slli>:
    3490:	00003537          	lui	a0,0x3
    3494:	4b050513          	addi	a0,a0,1200 # 34b0 <.test_name>

00003498 <loop>:
    3498:	dfdfc0ef          	jal	ra,294 <putstr>

0000349c <.prname_next>:
    349c:	00050583          	lb	a1,0(a0)
    34a0:	00058c63          	beqz	a1,34b8 <.prname_done>
    34a4:	00b62023          	sw	a1,0(a2)
    34a8:	00150513          	addi	a0,a0,1
    34ac:	ff1ff06f          	j	349c <.prname_next>

000034b0 <.test_name>:
    34b0:	696c6c73          	csrrsi	s8,0x696,24
    34b4:	0000                	unimp
	...

000034b8 <.prname_done>:
    34b8:	02e00593          	li	a1,46
    34bc:	00b62023          	sw	a1,0(a2)
    34c0:	00b62023          	sw	a1,0(a2)

000034c4 <test_2>:
    34c4:	00100093          	li	ra,1
    34c8:	00009193          	slli	gp,ra,0x0
    34cc:	00100e93          	li	t4,1
    34d0:	00200e13          	li	t3,2
    34d4:	27d19a63          	bne	gp,t4,3748 <fail>

000034d8 <test_3>:
    34d8:	00100093          	li	ra,1
    34dc:	00109193          	slli	gp,ra,0x1
    34e0:	00200e93          	li	t4,2
    34e4:	00300e13          	li	t3,3
    34e8:	27d19063          	bne	gp,t4,3748 <fail>

000034ec <test_4>:
    34ec:	00100093          	li	ra,1
    34f0:	00709193          	slli	gp,ra,0x7
    34f4:	08000e93          	li	t4,128
    34f8:	00400e13          	li	t3,4
    34fc:	25d19663          	bne	gp,t4,3748 <fail>

00003500 <test_5>:
    3500:	00100093          	li	ra,1
    3504:	00e09193          	slli	gp,ra,0xe
    3508:	00004eb7          	lui	t4,0x4
    350c:	00500e13          	li	t3,5
    3510:	23d19c63          	bne	gp,t4,3748 <fail>

00003514 <test_6>:
    3514:	00100093          	li	ra,1
    3518:	01f09193          	slli	gp,ra,0x1f
    351c:	80000eb7          	lui	t4,0x80000
    3520:	00600e13          	li	t3,6
    3524:	23d19263          	bne	gp,t4,3748 <fail>

00003528 <test_7>:
    3528:	fff00093          	li	ra,-1
    352c:	00009193          	slli	gp,ra,0x0
    3530:	fff00e93          	li	t4,-1
    3534:	00700e13          	li	t3,7
    3538:	21d19863          	bne	gp,t4,3748 <fail>

0000353c <test_8>:
    353c:	fff00093          	li	ra,-1
    3540:	00109193          	slli	gp,ra,0x1
    3544:	ffe00e93          	li	t4,-2
    3548:	00800e13          	li	t3,8
    354c:	1fd19e63          	bne	gp,t4,3748 <fail>

00003550 <test_9>:
    3550:	fff00093          	li	ra,-1
    3554:	00709193          	slli	gp,ra,0x7
    3558:	f8000e93          	li	t4,-128
    355c:	00900e13          	li	t3,9
    3560:	1fd19463          	bne	gp,t4,3748 <fail>

00003564 <test_10>:
    3564:	fff00093          	li	ra,-1
    3568:	00e09193          	slli	gp,ra,0xe
    356c:	ffffceb7          	lui	t4,0xffffc
    3570:	00a00e13          	li	t3,10
    3574:	1dd19a63          	bne	gp,t4,3748 <fail>

00003578 <test_11>:
    3578:	fff00093          	li	ra,-1
    357c:	01f09193          	slli	gp,ra,0x1f
    3580:	80000eb7          	lui	t4,0x80000
    3584:	00b00e13          	li	t3,11
    3588:	1dd19063          	bne	gp,t4,3748 <fail>

0000358c <test_12>:
    358c:	212120b7          	lui	ra,0x21212
    3590:	12108093          	addi	ra,ra,289 # 21212121 <tdat10+0x21209308>
    3594:	00009193          	slli	gp,ra,0x0
    3598:	21212eb7          	lui	t4,0x21212
    359c:	121e8e93          	addi	t4,t4,289 # 21212121 <tdat10+0x21209308>
    35a0:	00c00e13          	li	t3,12
    35a4:	1bd19263          	bne	gp,t4,3748 <fail>

000035a8 <test_13>:
    35a8:	212120b7          	lui	ra,0x21212
    35ac:	12108093          	addi	ra,ra,289 # 21212121 <tdat10+0x21209308>
    35b0:	00109193          	slli	gp,ra,0x1
    35b4:	42424eb7          	lui	t4,0x42424
    35b8:	242e8e93          	addi	t4,t4,578 # 42424242 <tdat10+0x4241b429>
    35bc:	00d00e13          	li	t3,13
    35c0:	19d19463          	bne	gp,t4,3748 <fail>

000035c4 <test_14>:
    35c4:	212120b7          	lui	ra,0x21212
    35c8:	12108093          	addi	ra,ra,289 # 21212121 <tdat10+0x21209308>
    35cc:	00709193          	slli	gp,ra,0x7
    35d0:	90909eb7          	lui	t4,0x90909
    35d4:	080e8e93          	addi	t4,t4,128 # 90909080 <io+0x10909080>
    35d8:	00e00e13          	li	t3,14
    35dc:	17d19663          	bne	gp,t4,3748 <fail>

000035e0 <test_15>:
    35e0:	212120b7          	lui	ra,0x21212
    35e4:	12108093          	addi	ra,ra,289 # 21212121 <tdat10+0x21209308>
    35e8:	00e09193          	slli	gp,ra,0xe
    35ec:	48484eb7          	lui	t4,0x48484
    35f0:	00f00e13          	li	t3,15
    35f4:	15d19a63          	bne	gp,t4,3748 <fail>

000035f8 <test_16>:
    35f8:	212120b7          	lui	ra,0x21212
    35fc:	12108093          	addi	ra,ra,289 # 21212121 <tdat10+0x21209308>
    3600:	01f09193          	slli	gp,ra,0x1f
    3604:	80000eb7          	lui	t4,0x80000
    3608:	01000e13          	li	t3,16
    360c:	13d19e63          	bne	gp,t4,3748 <fail>

00003610 <test_17>:
    3610:	00100093          	li	ra,1
    3614:	00709093          	slli	ra,ra,0x7
    3618:	08000e93          	li	t4,128
    361c:	01100e13          	li	t3,17
    3620:	13d09463          	bne	ra,t4,3748 <fail>

00003624 <test_18>:
    3624:	00000213          	li	tp,0
    3628:	00100093          	li	ra,1
    362c:	00709193          	slli	gp,ra,0x7
    3630:	00018313          	mv	t1,gp
    3634:	00120213          	addi	tp,tp,1 # 1 <boot+0x1>
    3638:	00200293          	li	t0,2
    363c:	fe5216e3          	bne	tp,t0,3628 <test_18+0x4>
    3640:	08000e93          	li	t4,128
    3644:	01200e13          	li	t3,18
    3648:	11d31063          	bne	t1,t4,3748 <fail>

0000364c <test_19>:
    364c:	00000213          	li	tp,0
    3650:	00100093          	li	ra,1
    3654:	00e09193          	slli	gp,ra,0xe
    3658:	00000013          	nop
    365c:	00018313          	mv	t1,gp
    3660:	00120213          	addi	tp,tp,1 # 1 <boot+0x1>
    3664:	00200293          	li	t0,2
    3668:	fe5214e3          	bne	tp,t0,3650 <test_19+0x4>
    366c:	00004eb7          	lui	t4,0x4
    3670:	01300e13          	li	t3,19
    3674:	0dd31a63          	bne	t1,t4,3748 <fail>

00003678 <test_20>:
    3678:	00000213          	li	tp,0
    367c:	00100093          	li	ra,1
    3680:	01f09193          	slli	gp,ra,0x1f
    3684:	00000013          	nop
    3688:	00000013          	nop
    368c:	00018313          	mv	t1,gp
    3690:	00120213          	addi	tp,tp,1 # 1 <boot+0x1>
    3694:	00200293          	li	t0,2
    3698:	fe5212e3          	bne	tp,t0,367c <test_20+0x4>
    369c:	80000eb7          	lui	t4,0x80000
    36a0:	01400e13          	li	t3,20
    36a4:	0bd31263          	bne	t1,t4,3748 <fail>

000036a8 <test_21>:
    36a8:	00000213          	li	tp,0
    36ac:	00100093          	li	ra,1
    36b0:	00709193          	slli	gp,ra,0x7
    36b4:	00120213          	addi	tp,tp,1 # 1 <boot+0x1>
    36b8:	00200293          	li	t0,2
    36bc:	fe5218e3          	bne	tp,t0,36ac <test_21+0x4>
    36c0:	08000e93          	li	t4,128
    36c4:	01500e13          	li	t3,21
    36c8:	09d19063          	bne	gp,t4,3748 <fail>

000036cc <test_22>:
    36cc:	00000213          	li	tp,0
    36d0:	00100093          	li	ra,1
    36d4:	00000013          	nop
    36d8:	00e09193          	slli	gp,ra,0xe
    36dc:	00120213          	addi	tp,tp,1 # 1 <boot+0x1>
    36e0:	00200293          	li	t0,2
    36e4:	fe5216e3          	bne	tp,t0,36d0 <test_22+0x4>
    36e8:	00004eb7          	lui	t4,0x4
    36ec:	01600e13          	li	t3,22
    36f0:	05d19c63          	bne	gp,t4,3748 <fail>

000036f4 <test_23>:
    36f4:	00000213          	li	tp,0
    36f8:	00100093          	li	ra,1
    36fc:	00000013          	nop
    3700:	00000013          	nop
    3704:	01f09193          	slli	gp,ra,0x1f
    3708:	00120213          	addi	tp,tp,1 # 1 <boot+0x1>
    370c:	00200293          	li	t0,2
    3710:	fe5214e3          	bne	tp,t0,36f8 <test_23+0x4>
    3714:	80000eb7          	lui	t4,0x80000
    3718:	01700e13          	li	t3,23
    371c:	03d19663          	bne	gp,t4,3748 <fail>

00003720 <test_24>:
    3720:	01f01093          	slli	ra,zero,0x1f
    3724:	00000e93          	li	t4,0
    3728:	01800e13          	li	t3,24
    372c:	01d09e63          	bne	ra,t4,3748 <fail>

00003730 <test_25>:
    3730:	02100093          	li	ra,33
    3734:	01409013          	slli	zero,ra,0x14
    3738:	00000e93          	li	t4,0
    373c:	01900e13          	li	t3,25
    3740:	01d01463          	bne	zero,t4,3748 <fail>
    3744:	03c01c63          	bne	zero,t3,377c <pass>

00003748 <fail>:
    3748:	9e0fd0ef          	jal	ra,928 <failure>
    374c:	10000537          	lui	a0,0x10000
    3750:	04500593          	li	a1,69
    3754:	05200613          	li	a2,82
    3758:	04f00693          	li	a3,79
    375c:	00a00713          	li	a4,10
    3760:	00b52023          	sw	a1,0(a0) # 10000000 <tdat10+0xfff71e7>
    3764:	00c52023          	sw	a2,0(a0)
    3768:	00c52023          	sw	a2,0(a0)
    376c:	00d52023          	sw	a3,0(a0)
    3770:	00c52023          	sw	a2,0(a0)
    3774:	00e52023          	sw	a4,0(a0)
    3778:	00100073          	ebreak

0000377c <pass>:
    377c:	00009137          	lui	sp,0x9
    3780:	9b4fd0ef          	jal	ra,934 <OK>
    3784:	00000013          	nop
    3788:	b00fd06f          	j	a88 <slli_ret>

0000378c <srli>:
    378c:	00003537          	lui	a0,0x3
    3790:	7ac50513          	addi	a0,a0,1964 # 37ac <.test_name>

00003794 <loop>:
    3794:	b01fc0ef          	jal	ra,294 <putstr>

00003798 <.prname_next>:
    3798:	00050583          	lb	a1,0(a0)
    379c:	00058c63          	beqz	a1,37b4 <.prname_done>
    37a0:	00b62023          	sw	a1,0(a2)
    37a4:	00150513          	addi	a0,a0,1
    37a8:	ff1ff06f          	j	3798 <.prname_next>

000037ac <.test_name>:
    37ac:	696c7273          	csrrci	tp,0x696,24
    37b0:	0000                	unimp
	...

000037b4 <.prname_done>:
    37b4:	02e00593          	li	a1,46
    37b8:	00b62023          	sw	a1,0(a2)
    37bc:	00b62023          	sw	a1,0(a2)

000037c0 <test_2>:
    37c0:	ffff80b7          	lui	ra,0xffff8
    37c4:	0000d193          	srli	gp,ra,0x0
    37c8:	ffff8eb7          	lui	t4,0xffff8
    37cc:	00200e13          	li	t3,2
    37d0:	2bd19263          	bne	gp,t4,3a74 <fail>

000037d4 <test_3>:
    37d4:	ffff80b7          	lui	ra,0xffff8
    37d8:	0010d193          	srli	gp,ra,0x1
    37dc:	7fffceb7          	lui	t4,0x7fffc
    37e0:	00300e13          	li	t3,3
    37e4:	29d19863          	bne	gp,t4,3a74 <fail>

000037e8 <test_4>:
    37e8:	ffff80b7          	lui	ra,0xffff8
    37ec:	0070d193          	srli	gp,ra,0x7
    37f0:	02000eb7          	lui	t4,0x2000
    37f4:	f00e8e93          	addi	t4,t4,-256 # 1ffff00 <tdat10+0x1ff70e7>
    37f8:	00400e13          	li	t3,4
    37fc:	27d19c63          	bne	gp,t4,3a74 <fail>

00003800 <test_5>:
    3800:	ffff80b7          	lui	ra,0xffff8
    3804:	00e0d193          	srli	gp,ra,0xe
    3808:	00040eb7          	lui	t4,0x40
    380c:	ffee8e93          	addi	t4,t4,-2 # 3fffe <tdat10+0x371e5>
    3810:	00500e13          	li	t3,5
    3814:	27d19063          	bne	gp,t4,3a74 <fail>

00003818 <test_6>:
    3818:	ffff80b7          	lui	ra,0xffff8
    381c:	00108093          	addi	ra,ra,1 # ffff8001 <io+0x7fff8001>
    3820:	00f0d193          	srli	gp,ra,0xf
    3824:	00020eb7          	lui	t4,0x20
    3828:	fffe8e93          	addi	t4,t4,-1 # 1ffff <tdat10+0x171e6>
    382c:	00600e13          	li	t3,6
    3830:	25d19263          	bne	gp,t4,3a74 <fail>

00003834 <test_7>:
    3834:	fff00093          	li	ra,-1
    3838:	0000d193          	srli	gp,ra,0x0
    383c:	fff00e93          	li	t4,-1
    3840:	00700e13          	li	t3,7
    3844:	23d19863          	bne	gp,t4,3a74 <fail>

00003848 <test_8>:
    3848:	fff00093          	li	ra,-1
    384c:	0010d193          	srli	gp,ra,0x1
    3850:	80000eb7          	lui	t4,0x80000
    3854:	fffe8e93          	addi	t4,t4,-1 # 7fffffff <io+0xffffffff>
    3858:	00800e13          	li	t3,8
    385c:	21d19c63          	bne	gp,t4,3a74 <fail>

00003860 <test_9>:
    3860:	fff00093          	li	ra,-1
    3864:	0070d193          	srli	gp,ra,0x7
    3868:	02000eb7          	lui	t4,0x2000
    386c:	fffe8e93          	addi	t4,t4,-1 # 1ffffff <tdat10+0x1ff71e6>
    3870:	00900e13          	li	t3,9
    3874:	21d19063          	bne	gp,t4,3a74 <fail>

00003878 <test_10>:
    3878:	fff00093          	li	ra,-1
    387c:	00e0d193          	srli	gp,ra,0xe
    3880:	00040eb7          	lui	t4,0x40
    3884:	fffe8e93          	addi	t4,t4,-1 # 3ffff <tdat10+0x371e6>
    3888:	00a00e13          	li	t3,10
    388c:	1fd19463          	bne	gp,t4,3a74 <fail>

00003890 <test_11>:
    3890:	fff00093          	li	ra,-1
    3894:	01f0d193          	srli	gp,ra,0x1f
    3898:	00100e93          	li	t4,1
    389c:	00b00e13          	li	t3,11
    38a0:	1dd19a63          	bne	gp,t4,3a74 <fail>

000038a4 <test_12>:
    38a4:	212120b7          	lui	ra,0x21212
    38a8:	12108093          	addi	ra,ra,289 # 21212121 <tdat10+0x21209308>
    38ac:	0000d193          	srli	gp,ra,0x0
    38b0:	21212eb7          	lui	t4,0x21212
    38b4:	121e8e93          	addi	t4,t4,289 # 21212121 <tdat10+0x21209308>
    38b8:	00c00e13          	li	t3,12
    38bc:	1bd19c63          	bne	gp,t4,3a74 <fail>

000038c0 <test_13>:
    38c0:	212120b7          	lui	ra,0x21212
    38c4:	12108093          	addi	ra,ra,289 # 21212121 <tdat10+0x21209308>
    38c8:	0010d193          	srli	gp,ra,0x1
    38cc:	10909eb7          	lui	t4,0x10909
    38d0:	090e8e93          	addi	t4,t4,144 # 10909090 <tdat10+0x10900277>
    38d4:	00d00e13          	li	t3,13
    38d8:	19d19e63          	bne	gp,t4,3a74 <fail>

000038dc <test_14>:
    38dc:	212120b7          	lui	ra,0x21212
    38e0:	12108093          	addi	ra,ra,289 # 21212121 <tdat10+0x21209308>
    38e4:	0070d193          	srli	gp,ra,0x7
    38e8:	00424eb7          	lui	t4,0x424
    38ec:	242e8e93          	addi	t4,t4,578 # 424242 <tdat10+0x41b429>
    38f0:	00e00e13          	li	t3,14
    38f4:	19d19063          	bne	gp,t4,3a74 <fail>

000038f8 <test_15>:
    38f8:	212120b7          	lui	ra,0x21212
    38fc:	12108093          	addi	ra,ra,289 # 21212121 <tdat10+0x21209308>
    3900:	00e0d193          	srli	gp,ra,0xe
    3904:	00008eb7          	lui	t4,0x8
    3908:	484e8e93          	addi	t4,t4,1156 # 8484 <test_22>
    390c:	00f00e13          	li	t3,15
    3910:	17d19263          	bne	gp,t4,3a74 <fail>

00003914 <test_16>:
    3914:	212120b7          	lui	ra,0x21212
    3918:	12108093          	addi	ra,ra,289 # 21212121 <tdat10+0x21209308>
    391c:	01f0d193          	srli	gp,ra,0x1f
    3920:	00000e93          	li	t4,0
    3924:	01000e13          	li	t3,16
    3928:	15d19663          	bne	gp,t4,3a74 <fail>

0000392c <test_21>:
    392c:	ffff80b7          	lui	ra,0xffff8
    3930:	0010d093          	srli	ra,ra,0x1
    3934:	7fffceb7          	lui	t4,0x7fffc
    3938:	01500e13          	li	t3,21
    393c:	13d09c63          	bne	ra,t4,3a74 <fail>

00003940 <test_22>:
    3940:	00000213          	li	tp,0
    3944:	ffff80b7          	lui	ra,0xffff8
    3948:	0010d193          	srli	gp,ra,0x1
    394c:	00018313          	mv	t1,gp
    3950:	00120213          	addi	tp,tp,1 # 1 <boot+0x1>
    3954:	00200293          	li	t0,2
    3958:	fe5216e3          	bne	tp,t0,3944 <test_22+0x4>
    395c:	7fffceb7          	lui	t4,0x7fffc
    3960:	01600e13          	li	t3,22
    3964:	11d31863          	bne	t1,t4,3a74 <fail>

00003968 <test_23>:
    3968:	00000213          	li	tp,0
    396c:	ffff80b7          	lui	ra,0xffff8
    3970:	00e0d193          	srli	gp,ra,0xe
    3974:	00000013          	nop
    3978:	00018313          	mv	t1,gp
    397c:	00120213          	addi	tp,tp,1 # 1 <boot+0x1>
    3980:	00200293          	li	t0,2
    3984:	fe5214e3          	bne	tp,t0,396c <test_23+0x4>
    3988:	00040eb7          	lui	t4,0x40
    398c:	ffee8e93          	addi	t4,t4,-2 # 3fffe <tdat10+0x371e5>
    3990:	01700e13          	li	t3,23
    3994:	0fd31063          	bne	t1,t4,3a74 <fail>

00003998 <test_24>:
    3998:	00000213          	li	tp,0
    399c:	ffff80b7          	lui	ra,0xffff8
    39a0:	00f0d193          	srli	gp,ra,0xf
    39a4:	00000013          	nop
    39a8:	00000013          	nop
    39ac:	00018313          	mv	t1,gp
    39b0:	00120213          	addi	tp,tp,1 # 1 <boot+0x1>
    39b4:	00200293          	li	t0,2
    39b8:	fe5212e3          	bne	tp,t0,399c <test_24+0x4>
    39bc:	00020eb7          	lui	t4,0x20
    39c0:	fffe8e93          	addi	t4,t4,-1 # 1ffff <tdat10+0x171e6>
    39c4:	01800e13          	li	t3,24
    39c8:	0bd31663          	bne	t1,t4,3a74 <fail>

000039cc <test_25>:
    39cc:	00000213          	li	tp,0
    39d0:	ffff80b7          	lui	ra,0xffff8
    39d4:	0010d193          	srli	gp,ra,0x1
    39d8:	00120213          	addi	tp,tp,1 # 1 <boot+0x1>
    39dc:	00200293          	li	t0,2
    39e0:	fe5218e3          	bne	tp,t0,39d0 <test_25+0x4>
    39e4:	7fffceb7          	lui	t4,0x7fffc
    39e8:	01900e13          	li	t3,25
    39ec:	09d19463          	bne	gp,t4,3a74 <fail>

000039f0 <test_26>:
    39f0:	00000213          	li	tp,0
    39f4:	ffff80b7          	lui	ra,0xffff8
    39f8:	00000013          	nop
    39fc:	00e0d193          	srli	gp,ra,0xe
    3a00:	00120213          	addi	tp,tp,1 # 1 <boot+0x1>
    3a04:	00200293          	li	t0,2
    3a08:	fe5216e3          	bne	tp,t0,39f4 <test_26+0x4>
    3a0c:	00040eb7          	lui	t4,0x40
    3a10:	ffee8e93          	addi	t4,t4,-2 # 3fffe <tdat10+0x371e5>
    3a14:	01a00e13          	li	t3,26
    3a18:	05d19e63          	bne	gp,t4,3a74 <fail>

00003a1c <test_27>:
    3a1c:	00000213          	li	tp,0
    3a20:	ffff80b7          	lui	ra,0xffff8
    3a24:	00000013          	nop
    3a28:	00000013          	nop
    3a2c:	00f0d193          	srli	gp,ra,0xf
    3a30:	00120213          	addi	tp,tp,1 # 1 <boot+0x1>
    3a34:	00200293          	li	t0,2
    3a38:	fe5214e3          	bne	tp,t0,3a20 <test_27+0x4>
    3a3c:	00020eb7          	lui	t4,0x20
    3a40:	fffe8e93          	addi	t4,t4,-1 # 1ffff <tdat10+0x171e6>
    3a44:	01b00e13          	li	t3,27
    3a48:	03d19663          	bne	gp,t4,3a74 <fail>

00003a4c <test_28>:
    3a4c:	01f05093          	srli	ra,zero,0x1f
    3a50:	00000e93          	li	t4,0
    3a54:	01c00e13          	li	t3,28
    3a58:	01d09e63          	bne	ra,t4,3a74 <fail>

00003a5c <test_29>:
    3a5c:	02100093          	li	ra,33
    3a60:	0140d013          	srli	zero,ra,0x14
    3a64:	00000e93          	li	t4,0
    3a68:	01d00e13          	li	t3,29
    3a6c:	01d01463          	bne	zero,t4,3a74 <fail>
    3a70:	03c01c63          	bne	zero,t3,3aa8 <pass>

00003a74 <fail>:
    3a74:	eb5fc0ef          	jal	ra,928 <failure>
    3a78:	10000537          	lui	a0,0x10000
    3a7c:	04500593          	li	a1,69
    3a80:	05200613          	li	a2,82
    3a84:	04f00693          	li	a3,79
    3a88:	00a00713          	li	a4,10
    3a8c:	00b52023          	sw	a1,0(a0) # 10000000 <tdat10+0xfff71e7>
    3a90:	00c52023          	sw	a2,0(a0)
    3a94:	00c52023          	sw	a2,0(a0)
    3a98:	00d52023          	sw	a3,0(a0)
    3a9c:	00c52023          	sw	a2,0(a0)
    3aa0:	00e52023          	sw	a4,0(a0)
    3aa4:	00100073          	ebreak

00003aa8 <pass>:
    3aa8:	00009137          	lui	sp,0x9
    3aac:	e89fc0ef          	jal	ra,934 <OK>
    3ab0:	00000013          	nop
    3ab4:	fddfc06f          	j	a90 <srli_ret>

00003ab8 <sw>:
    3ab8:	00004537          	lui	a0,0x4
    3abc:	ad850513          	addi	a0,a0,-1320 # 3ad8 <.test_name>

00003ac0 <loop>:
    3ac0:	fd4fc0ef          	jal	ra,294 <putstr>

00003ac4 <.prname_next>:
    3ac4:	00050583          	lb	a1,0(a0)
    3ac8:	00058a63          	beqz	a1,3adc <.prname_done>
    3acc:	00b62023          	sw	a1,0(a2)
    3ad0:	00150513          	addi	a0,a0,1
    3ad4:	ff1ff06f          	j	3ac4 <.prname_next>

00003ad8 <.test_name>:
    3ad8:	00007773          	csrrci	a4,ustatus,0

00003adc <.prname_done>:
    3adc:	02e00593          	li	a1,46
    3ae0:	00b62023          	sw	a1,0(a2)
    3ae4:	00b62023          	sw	a1,0(a2)

00003ae8 <test_2>:
    3ae8:	00005097          	auipc	ra,0x5
    3aec:	2e408093          	addi	ra,ra,740 # 8dcc <tdat>
    3af0:	00aa0137          	lui	sp,0xaa0
    3af4:	0aa10113          	addi	sp,sp,170 # aa00aa <tdat10+0xa97291>
    3af8:	0020a023          	sw	sp,0(ra)
    3afc:	0000a183          	lw	gp,0(ra)
    3b00:	00aa0eb7          	lui	t4,0xaa0
    3b04:	0aae8e93          	addi	t4,t4,170 # aa00aa <tdat10+0xa97291>
    3b08:	00200e13          	li	t3,2
    3b0c:	47d19063          	bne	gp,t4,3f6c <fail>

00003b10 <test_3>:
    3b10:	00005097          	auipc	ra,0x5
    3b14:	2bc08093          	addi	ra,ra,700 # 8dcc <tdat>
    3b18:	aa00b137          	lui	sp,0xaa00b
    3b1c:	a0010113          	addi	sp,sp,-1536 # aa00aa00 <io+0x2a00aa00>
    3b20:	0020a223          	sw	sp,4(ra)
    3b24:	0040a183          	lw	gp,4(ra)
    3b28:	aa00beb7          	lui	t4,0xaa00b
    3b2c:	a00e8e93          	addi	t4,t4,-1536 # aa00aa00 <io+0x2a00aa00>
    3b30:	00300e13          	li	t3,3
    3b34:	43d19c63          	bne	gp,t4,3f6c <fail>

00003b38 <test_4>:
    3b38:	00005097          	auipc	ra,0x5
    3b3c:	29408093          	addi	ra,ra,660 # 8dcc <tdat>
    3b40:	0aa01137          	lui	sp,0xaa01
    3b44:	aa010113          	addi	sp,sp,-1376 # aa00aa0 <tdat10+0xa9f7c87>
    3b48:	0020a423          	sw	sp,8(ra)
    3b4c:	0080a183          	lw	gp,8(ra)
    3b50:	0aa01eb7          	lui	t4,0xaa01
    3b54:	aa0e8e93          	addi	t4,t4,-1376 # aa00aa0 <tdat10+0xa9f7c87>
    3b58:	00400e13          	li	t3,4
    3b5c:	41d19863          	bne	gp,t4,3f6c <fail>

00003b60 <test_5>:
    3b60:	00005097          	auipc	ra,0x5
    3b64:	26c08093          	addi	ra,ra,620 # 8dcc <tdat>
    3b68:	a00aa137          	lui	sp,0xa00aa
    3b6c:	00a10113          	addi	sp,sp,10 # a00aa00a <io+0x200aa00a>
    3b70:	0020a623          	sw	sp,12(ra)
    3b74:	00c0a183          	lw	gp,12(ra)
    3b78:	a00aaeb7          	lui	t4,0xa00aa
    3b7c:	00ae8e93          	addi	t4,t4,10 # a00aa00a <io+0x200aa00a>
    3b80:	00500e13          	li	t3,5
    3b84:	3fd19463          	bne	gp,t4,3f6c <fail>

00003b88 <test_6>:
    3b88:	00005097          	auipc	ra,0x5
    3b8c:	26008093          	addi	ra,ra,608 # 8de8 <tdat8>
    3b90:	00aa0137          	lui	sp,0xaa0
    3b94:	0aa10113          	addi	sp,sp,170 # aa00aa <tdat10+0xa97291>
    3b98:	fe20aa23          	sw	sp,-12(ra)
    3b9c:	ff40a183          	lw	gp,-12(ra)
    3ba0:	00aa0eb7          	lui	t4,0xaa0
    3ba4:	0aae8e93          	addi	t4,t4,170 # aa00aa <tdat10+0xa97291>
    3ba8:	00600e13          	li	t3,6
    3bac:	3dd19063          	bne	gp,t4,3f6c <fail>

00003bb0 <test_7>:
    3bb0:	00005097          	auipc	ra,0x5
    3bb4:	23808093          	addi	ra,ra,568 # 8de8 <tdat8>
    3bb8:	aa00b137          	lui	sp,0xaa00b
    3bbc:	a0010113          	addi	sp,sp,-1536 # aa00aa00 <io+0x2a00aa00>
    3bc0:	fe20ac23          	sw	sp,-8(ra)
    3bc4:	ff80a183          	lw	gp,-8(ra)
    3bc8:	aa00beb7          	lui	t4,0xaa00b
    3bcc:	a00e8e93          	addi	t4,t4,-1536 # aa00aa00 <io+0x2a00aa00>
    3bd0:	00700e13          	li	t3,7
    3bd4:	39d19c63          	bne	gp,t4,3f6c <fail>

00003bd8 <test_8>:
    3bd8:	00005097          	auipc	ra,0x5
    3bdc:	21008093          	addi	ra,ra,528 # 8de8 <tdat8>
    3be0:	0aa01137          	lui	sp,0xaa01
    3be4:	aa010113          	addi	sp,sp,-1376 # aa00aa0 <tdat10+0xa9f7c87>
    3be8:	fe20ae23          	sw	sp,-4(ra)
    3bec:	ffc0a183          	lw	gp,-4(ra)
    3bf0:	0aa01eb7          	lui	t4,0xaa01
    3bf4:	aa0e8e93          	addi	t4,t4,-1376 # aa00aa0 <tdat10+0xa9f7c87>
    3bf8:	00800e13          	li	t3,8
    3bfc:	37d19863          	bne	gp,t4,3f6c <fail>

00003c00 <test_9>:
    3c00:	00005097          	auipc	ra,0x5
    3c04:	1e808093          	addi	ra,ra,488 # 8de8 <tdat8>
    3c08:	a00aa137          	lui	sp,0xa00aa
    3c0c:	00a10113          	addi	sp,sp,10 # a00aa00a <io+0x200aa00a>
    3c10:	0020a023          	sw	sp,0(ra)
    3c14:	0000a183          	lw	gp,0(ra)
    3c18:	a00aaeb7          	lui	t4,0xa00aa
    3c1c:	00ae8e93          	addi	t4,t4,10 # a00aa00a <io+0x200aa00a>
    3c20:	00900e13          	li	t3,9
    3c24:	35d19463          	bne	gp,t4,3f6c <fail>

00003c28 <test_10>:
    3c28:	00005097          	auipc	ra,0x5
    3c2c:	1c408093          	addi	ra,ra,452 # 8dec <tdat9>
    3c30:	12345137          	lui	sp,0x12345
    3c34:	67810113          	addi	sp,sp,1656 # 12345678 <tdat10+0x1233c85f>
    3c38:	fe008213          	addi	tp,ra,-32
    3c3c:	02222023          	sw	sp,32(tp) # 20 <boot+0x20>
    3c40:	0000a183          	lw	gp,0(ra)
    3c44:	12345eb7          	lui	t4,0x12345
    3c48:	678e8e93          	addi	t4,t4,1656 # 12345678 <tdat10+0x1233c85f>
    3c4c:	00a00e13          	li	t3,10
    3c50:	31d19e63          	bne	gp,t4,3f6c <fail>

00003c54 <test_11>:
    3c54:	00005097          	auipc	ra,0x5
    3c58:	19808093          	addi	ra,ra,408 # 8dec <tdat9>
    3c5c:	58213137          	lui	sp,0x58213
    3c60:	09810113          	addi	sp,sp,152 # 58213098 <tdat10+0x5820a27f>
    3c64:	ffd08093          	addi	ra,ra,-3
    3c68:	0020a3a3          	sw	sp,7(ra)
    3c6c:	00005217          	auipc	tp,0x5
    3c70:	18420213          	addi	tp,tp,388 # 8df0 <tdat10>
    3c74:	00022183          	lw	gp,0(tp) # 0 <boot>
    3c78:	58213eb7          	lui	t4,0x58213
    3c7c:	098e8e93          	addi	t4,t4,152 # 58213098 <tdat10+0x5820a27f>
    3c80:	00b00e13          	li	t3,11
    3c84:	2fd19463          	bne	gp,t4,3f6c <fail>

00003c88 <test_12>:
    3c88:	00c00e13          	li	t3,12
    3c8c:	00000213          	li	tp,0
    3c90:	aabbd0b7          	lui	ra,0xaabbd
    3c94:	cdd08093          	addi	ra,ra,-803 # aabbccdd <io+0x2abbccdd>
    3c98:	00005117          	auipc	sp,0x5
    3c9c:	13410113          	addi	sp,sp,308 # 8dcc <tdat>
    3ca0:	00112023          	sw	ra,0(sp)
    3ca4:	00012183          	lw	gp,0(sp)
    3ca8:	aabbdeb7          	lui	t4,0xaabbd
    3cac:	cdde8e93          	addi	t4,t4,-803 # aabbccdd <io+0x2abbccdd>
    3cb0:	2bd19e63          	bne	gp,t4,3f6c <fail>
    3cb4:	00120213          	addi	tp,tp,1 # 1 <boot+0x1>
    3cb8:	00200293          	li	t0,2
    3cbc:	fc521ae3          	bne	tp,t0,3c90 <test_12+0x8>

00003cc0 <test_13>:
    3cc0:	00d00e13          	li	t3,13
    3cc4:	00000213          	li	tp,0
    3cc8:	daabc0b7          	lui	ra,0xdaabc
    3ccc:	ccd08093          	addi	ra,ra,-819 # daabbccd <io+0x5aabbccd>
    3cd0:	00005117          	auipc	sp,0x5
    3cd4:	0fc10113          	addi	sp,sp,252 # 8dcc <tdat>
    3cd8:	00000013          	nop
    3cdc:	00112223          	sw	ra,4(sp)
    3ce0:	00412183          	lw	gp,4(sp)
    3ce4:	daabceb7          	lui	t4,0xdaabc
    3ce8:	ccde8e93          	addi	t4,t4,-819 # daabbccd <io+0x5aabbccd>
    3cec:	29d19063          	bne	gp,t4,3f6c <fail>
    3cf0:	00120213          	addi	tp,tp,1 # 1 <boot+0x1>
    3cf4:	00200293          	li	t0,2
    3cf8:	fc5218e3          	bne	tp,t0,3cc8 <test_13+0x8>

00003cfc <test_14>:
    3cfc:	00e00e13          	li	t3,14
    3d00:	00000213          	li	tp,0
    3d04:	ddaac0b7          	lui	ra,0xddaac
    3d08:	bcc08093          	addi	ra,ra,-1076 # ddaabbcc <io+0x5daabbcc>
    3d0c:	00005117          	auipc	sp,0x5
    3d10:	0c010113          	addi	sp,sp,192 # 8dcc <tdat>
    3d14:	00000013          	nop
    3d18:	00000013          	nop
    3d1c:	00112423          	sw	ra,8(sp)
    3d20:	00812183          	lw	gp,8(sp)
    3d24:	ddaaceb7          	lui	t4,0xddaac
    3d28:	bcce8e93          	addi	t4,t4,-1076 # ddaabbcc <io+0x5daabbcc>
    3d2c:	25d19063          	bne	gp,t4,3f6c <fail>
    3d30:	00120213          	addi	tp,tp,1 # 1 <boot+0x1>
    3d34:	00200293          	li	t0,2
    3d38:	fc5216e3          	bne	tp,t0,3d04 <test_14+0x8>

00003d3c <test_15>:
    3d3c:	00f00e13          	li	t3,15
    3d40:	00000213          	li	tp,0
    3d44:	cddab0b7          	lui	ra,0xcddab
    3d48:	bbc08093          	addi	ra,ra,-1092 # cddaabbc <io+0x4ddaabbc>
    3d4c:	00000013          	nop
    3d50:	00005117          	auipc	sp,0x5
    3d54:	07c10113          	addi	sp,sp,124 # 8dcc <tdat>
    3d58:	00112623          	sw	ra,12(sp)
    3d5c:	00c12183          	lw	gp,12(sp)
    3d60:	cddabeb7          	lui	t4,0xcddab
    3d64:	bbce8e93          	addi	t4,t4,-1092 # cddaabbc <io+0x4ddaabbc>
    3d68:	21d19263          	bne	gp,t4,3f6c <fail>
    3d6c:	00120213          	addi	tp,tp,1 # 1 <boot+0x1>
    3d70:	00200293          	li	t0,2
    3d74:	fc5218e3          	bne	tp,t0,3d44 <test_15+0x8>

00003d78 <test_16>:
    3d78:	01000e13          	li	t3,16
    3d7c:	00000213          	li	tp,0
    3d80:	ccddb0b7          	lui	ra,0xccddb
    3d84:	abb08093          	addi	ra,ra,-1349 # ccddaabb <io+0x4cddaabb>
    3d88:	00000013          	nop
    3d8c:	00005117          	auipc	sp,0x5
    3d90:	04010113          	addi	sp,sp,64 # 8dcc <tdat>
    3d94:	00000013          	nop
    3d98:	00112823          	sw	ra,16(sp)
    3d9c:	01012183          	lw	gp,16(sp)
    3da0:	ccddbeb7          	lui	t4,0xccddb
    3da4:	abbe8e93          	addi	t4,t4,-1349 # ccddaabb <io+0x4cddaabb>
    3da8:	1dd19263          	bne	gp,t4,3f6c <fail>
    3dac:	00120213          	addi	tp,tp,1 # 1 <boot+0x1>
    3db0:	00200293          	li	t0,2
    3db4:	fc5216e3          	bne	tp,t0,3d80 <test_16+0x8>

00003db8 <test_17>:
    3db8:	01100e13          	li	t3,17
    3dbc:	00000213          	li	tp,0
    3dc0:	bccde0b7          	lui	ra,0xbccde
    3dc4:	aab08093          	addi	ra,ra,-1365 # bccddaab <io+0x3ccddaab>
    3dc8:	00000013          	nop
    3dcc:	00000013          	nop
    3dd0:	00005117          	auipc	sp,0x5
    3dd4:	ffc10113          	addi	sp,sp,-4 # 8dcc <tdat>
    3dd8:	00112a23          	sw	ra,20(sp)
    3ddc:	01412183          	lw	gp,20(sp)
    3de0:	bccdeeb7          	lui	t4,0xbccde
    3de4:	aabe8e93          	addi	t4,t4,-1365 # bccddaab <io+0x3ccddaab>
    3de8:	19d19263          	bne	gp,t4,3f6c <fail>
    3dec:	00120213          	addi	tp,tp,1 # 1 <boot+0x1>
    3df0:	00200293          	li	t0,2
    3df4:	fc5216e3          	bne	tp,t0,3dc0 <test_17+0x8>

00003df8 <test_18>:
    3df8:	01200e13          	li	t3,18
    3dfc:	00000213          	li	tp,0
    3e00:	00005117          	auipc	sp,0x5
    3e04:	fcc10113          	addi	sp,sp,-52 # 8dcc <tdat>
    3e08:	001120b7          	lui	ra,0x112
    3e0c:	23308093          	addi	ra,ra,563 # 112233 <tdat10+0x10941a>
    3e10:	00112023          	sw	ra,0(sp)
    3e14:	00012183          	lw	gp,0(sp)
    3e18:	00112eb7          	lui	t4,0x112
    3e1c:	233e8e93          	addi	t4,t4,563 # 112233 <tdat10+0x10941a>
    3e20:	15d19663          	bne	gp,t4,3f6c <fail>
    3e24:	00120213          	addi	tp,tp,1 # 1 <boot+0x1>
    3e28:	00200293          	li	t0,2
    3e2c:	fc521ae3          	bne	tp,t0,3e00 <test_18+0x8>

00003e30 <test_19>:
    3e30:	01300e13          	li	t3,19
    3e34:	00000213          	li	tp,0
    3e38:	00005117          	auipc	sp,0x5
    3e3c:	f9410113          	addi	sp,sp,-108 # 8dcc <tdat>
    3e40:	300110b7          	lui	ra,0x30011
    3e44:	22308093          	addi	ra,ra,547 # 30011223 <tdat10+0x3000840a>
    3e48:	00000013          	nop
    3e4c:	00112223          	sw	ra,4(sp)
    3e50:	00412183          	lw	gp,4(sp)
    3e54:	30011eb7          	lui	t4,0x30011
    3e58:	223e8e93          	addi	t4,t4,547 # 30011223 <tdat10+0x3000840a>
    3e5c:	11d19863          	bne	gp,t4,3f6c <fail>
    3e60:	00120213          	addi	tp,tp,1 # 1 <boot+0x1>
    3e64:	00200293          	li	t0,2
    3e68:	fc5218e3          	bne	tp,t0,3e38 <test_19+0x8>

00003e6c <test_20>:
    3e6c:	01400e13          	li	t3,20
    3e70:	00000213          	li	tp,0
    3e74:	00005117          	auipc	sp,0x5
    3e78:	f5810113          	addi	sp,sp,-168 # 8dcc <tdat>
    3e7c:	330010b7          	lui	ra,0x33001
    3e80:	12208093          	addi	ra,ra,290 # 33001122 <tdat10+0x32ff8309>
    3e84:	00000013          	nop
    3e88:	00000013          	nop
    3e8c:	00112423          	sw	ra,8(sp)
    3e90:	00812183          	lw	gp,8(sp)
    3e94:	33001eb7          	lui	t4,0x33001
    3e98:	122e8e93          	addi	t4,t4,290 # 33001122 <tdat10+0x32ff8309>
    3e9c:	0dd19863          	bne	gp,t4,3f6c <fail>
    3ea0:	00120213          	addi	tp,tp,1 # 1 <boot+0x1>
    3ea4:	00200293          	li	t0,2
    3ea8:	fc5216e3          	bne	tp,t0,3e74 <test_20+0x8>

00003eac <test_21>:
    3eac:	01500e13          	li	t3,21
    3eb0:	00000213          	li	tp,0
    3eb4:	00005117          	auipc	sp,0x5
    3eb8:	f1810113          	addi	sp,sp,-232 # 8dcc <tdat>
    3ebc:	00000013          	nop
    3ec0:	233000b7          	lui	ra,0x23300
    3ec4:	11208093          	addi	ra,ra,274 # 23300112 <tdat10+0x232f72f9>
    3ec8:	00112623          	sw	ra,12(sp)
    3ecc:	00c12183          	lw	gp,12(sp)
    3ed0:	23300eb7          	lui	t4,0x23300
    3ed4:	112e8e93          	addi	t4,t4,274 # 23300112 <tdat10+0x232f72f9>
    3ed8:	09d19a63          	bne	gp,t4,3f6c <fail>
    3edc:	00120213          	addi	tp,tp,1 # 1 <boot+0x1>
    3ee0:	00200293          	li	t0,2
    3ee4:	fc5218e3          	bne	tp,t0,3eb4 <test_21+0x8>

00003ee8 <test_22>:
    3ee8:	01600e13          	li	t3,22
    3eec:	00000213          	li	tp,0
    3ef0:	00005117          	auipc	sp,0x5
    3ef4:	edc10113          	addi	sp,sp,-292 # 8dcc <tdat>
    3ef8:	00000013          	nop
    3efc:	223300b7          	lui	ra,0x22330
    3f00:	01108093          	addi	ra,ra,17 # 22330011 <tdat10+0x223271f8>
    3f04:	00000013          	nop
    3f08:	00112823          	sw	ra,16(sp)
    3f0c:	01012183          	lw	gp,16(sp)
    3f10:	22330eb7          	lui	t4,0x22330
    3f14:	011e8e93          	addi	t4,t4,17 # 22330011 <tdat10+0x223271f8>
    3f18:	05d19a63          	bne	gp,t4,3f6c <fail>
    3f1c:	00120213          	addi	tp,tp,1 # 1 <boot+0x1>
    3f20:	00200293          	li	t0,2
    3f24:	fc5216e3          	bne	tp,t0,3ef0 <test_22+0x8>

00003f28 <test_23>:
    3f28:	01700e13          	li	t3,23
    3f2c:	00000213          	li	tp,0
    3f30:	00005117          	auipc	sp,0x5
    3f34:	e9c10113          	addi	sp,sp,-356 # 8dcc <tdat>
    3f38:	00000013          	nop
    3f3c:	00000013          	nop
    3f40:	122330b7          	lui	ra,0x12233
    3f44:	00108093          	addi	ra,ra,1 # 12233001 <tdat10+0x1222a1e8>
    3f48:	00112a23          	sw	ra,20(sp)
    3f4c:	01412183          	lw	gp,20(sp)
    3f50:	12233eb7          	lui	t4,0x12233
    3f54:	001e8e93          	addi	t4,t4,1 # 12233001 <tdat10+0x1222a1e8>
    3f58:	01d19a63          	bne	gp,t4,3f6c <fail>
    3f5c:	00120213          	addi	tp,tp,1 # 1 <boot+0x1>
    3f60:	00200293          	li	t0,2
    3f64:	fc5216e3          	bne	tp,t0,3f30 <test_23+0x8>
    3f68:	03c01c63          	bne	zero,t3,3fa0 <pass>

00003f6c <fail>:
    3f6c:	9bdfc0ef          	jal	ra,928 <failure>
    3f70:	10000537          	lui	a0,0x10000
    3f74:	04500593          	li	a1,69
    3f78:	05200613          	li	a2,82
    3f7c:	04f00693          	li	a3,79
    3f80:	00a00713          	li	a4,10
    3f84:	00b52023          	sw	a1,0(a0) # 10000000 <tdat10+0xfff71e7>
    3f88:	00c52023          	sw	a2,0(a0)
    3f8c:	00c52023          	sw	a2,0(a0)
    3f90:	00d52023          	sw	a3,0(a0)
    3f94:	00c52023          	sw	a2,0(a0)
    3f98:	00e52023          	sw	a4,0(a0)
    3f9c:	00100073          	ebreak

00003fa0 <pass>:
    3fa0:	00009137          	lui	sp,0x9
    3fa4:	991fc0ef          	jal	ra,934 <OK>
    3fa8:	00000013          	nop
    3fac:	aadfc06f          	j	a58 <sw_ret>

00003fb0 <lw>:
    3fb0:	00004537          	lui	a0,0x4
    3fb4:	fd050513          	addi	a0,a0,-48 # 3fd0 <.test_name>

00003fb8 <loop>:
    3fb8:	adcfc0ef          	jal	ra,294 <putstr>

00003fbc <.prname_next>:
    3fbc:	00050583          	lb	a1,0(a0)
    3fc0:	00058a63          	beqz	a1,3fd4 <.prname_done>
    3fc4:	00b62023          	sw	a1,0(a2)
    3fc8:	00150513          	addi	a0,a0,1
    3fcc:	ff1ff06f          	j	3fbc <.prname_next>

00003fd0 <.test_name>:
    3fd0:	776c                	flw	fa1,108(a4)
	...

00003fd4 <.prname_done>:
    3fd4:	02e00593          	li	a1,46
    3fd8:	00b62023          	sw	a1,0(a2)
    3fdc:	00b62023          	sw	a1,0(a2)

00003fe0 <test_2>:
    3fe0:	00005097          	auipc	ra,0x5
    3fe4:	e1408093          	addi	ra,ra,-492 # 8df4 <tdat>
    3fe8:	0000a183          	lw	gp,0(ra)
    3fec:	00ff0eb7          	lui	t4,0xff0
    3ff0:	0ffe8e93          	addi	t4,t4,255 # ff00ff <tdat10+0xfe72e6>
    3ff4:	00200e13          	li	t3,2
    3ff8:	27d19a63          	bne	gp,t4,426c <fail>

00003ffc <test_3>:
    3ffc:	00005097          	auipc	ra,0x5
    4000:	df808093          	addi	ra,ra,-520 # 8df4 <tdat>
    4004:	0040a183          	lw	gp,4(ra)
    4008:	ff010eb7          	lui	t4,0xff010
    400c:	f00e8e93          	addi	t4,t4,-256 # ff00ff00 <io+0x7f00ff00>
    4010:	00300e13          	li	t3,3
    4014:	25d19c63          	bne	gp,t4,426c <fail>

00004018 <test_4>:
    4018:	00005097          	auipc	ra,0x5
    401c:	ddc08093          	addi	ra,ra,-548 # 8df4 <tdat>
    4020:	0080a183          	lw	gp,8(ra)
    4024:	0ff01eb7          	lui	t4,0xff01
    4028:	ff0e8e93          	addi	t4,t4,-16 # ff00ff0 <tdat10+0xfef81d7>
    402c:	00400e13          	li	t3,4
    4030:	23d19e63          	bne	gp,t4,426c <fail>

00004034 <test_5>:
    4034:	00005097          	auipc	ra,0x5
    4038:	dc008093          	addi	ra,ra,-576 # 8df4 <tdat>
    403c:	00c0a183          	lw	gp,12(ra)
    4040:	f00ffeb7          	lui	t4,0xf00ff
    4044:	00fe8e93          	addi	t4,t4,15 # f00ff00f <io+0x700ff00f>
    4048:	00500e13          	li	t3,5
    404c:	23d19063          	bne	gp,t4,426c <fail>

00004050 <test_6>:
    4050:	00005097          	auipc	ra,0x5
    4054:	db008093          	addi	ra,ra,-592 # 8e00 <tdat4>
    4058:	ff40a183          	lw	gp,-12(ra)
    405c:	00ff0eb7          	lui	t4,0xff0
    4060:	0ffe8e93          	addi	t4,t4,255 # ff00ff <tdat10+0xfe72e6>
    4064:	00600e13          	li	t3,6
    4068:	21d19263          	bne	gp,t4,426c <fail>

0000406c <test_7>:
    406c:	00005097          	auipc	ra,0x5
    4070:	d9408093          	addi	ra,ra,-620 # 8e00 <tdat4>
    4074:	ff80a183          	lw	gp,-8(ra)
    4078:	ff010eb7          	lui	t4,0xff010
    407c:	f00e8e93          	addi	t4,t4,-256 # ff00ff00 <io+0x7f00ff00>
    4080:	00700e13          	li	t3,7
    4084:	1fd19463          	bne	gp,t4,426c <fail>

00004088 <test_8>:
    4088:	00005097          	auipc	ra,0x5
    408c:	d7808093          	addi	ra,ra,-648 # 8e00 <tdat4>
    4090:	ffc0a183          	lw	gp,-4(ra)
    4094:	0ff01eb7          	lui	t4,0xff01
    4098:	ff0e8e93          	addi	t4,t4,-16 # ff00ff0 <tdat10+0xfef81d7>
    409c:	00800e13          	li	t3,8
    40a0:	1dd19663          	bne	gp,t4,426c <fail>

000040a4 <test_9>:
    40a4:	00005097          	auipc	ra,0x5
    40a8:	d5c08093          	addi	ra,ra,-676 # 8e00 <tdat4>
    40ac:	0000a183          	lw	gp,0(ra)
    40b0:	f00ffeb7          	lui	t4,0xf00ff
    40b4:	00fe8e93          	addi	t4,t4,15 # f00ff00f <io+0x700ff00f>
    40b8:	00900e13          	li	t3,9
    40bc:	1bd19863          	bne	gp,t4,426c <fail>

000040c0 <test_10>:
    40c0:	00005097          	auipc	ra,0x5
    40c4:	d3408093          	addi	ra,ra,-716 # 8df4 <tdat>
    40c8:	fe008093          	addi	ra,ra,-32
    40cc:	0200a183          	lw	gp,32(ra)
    40d0:	00ff0eb7          	lui	t4,0xff0
    40d4:	0ffe8e93          	addi	t4,t4,255 # ff00ff <tdat10+0xfe72e6>
    40d8:	00a00e13          	li	t3,10
    40dc:	19d19863          	bne	gp,t4,426c <fail>

000040e0 <test_11>:
    40e0:	00005097          	auipc	ra,0x5
    40e4:	d1408093          	addi	ra,ra,-748 # 8df4 <tdat>
    40e8:	ffd08093          	addi	ra,ra,-3
    40ec:	0070a183          	lw	gp,7(ra)
    40f0:	ff010eb7          	lui	t4,0xff010
    40f4:	f00e8e93          	addi	t4,t4,-256 # ff00ff00 <io+0x7f00ff00>
    40f8:	00b00e13          	li	t3,11
    40fc:	17d19863          	bne	gp,t4,426c <fail>

00004100 <test_12>:
    4100:	00c00e13          	li	t3,12
    4104:	00000213          	li	tp,0
    4108:	00005097          	auipc	ra,0x5
    410c:	cf008093          	addi	ra,ra,-784 # 8df8 <tdat2>
    4110:	0040a183          	lw	gp,4(ra)
    4114:	00018313          	mv	t1,gp
    4118:	0ff01eb7          	lui	t4,0xff01
    411c:	ff0e8e93          	addi	t4,t4,-16 # ff00ff0 <tdat10+0xfef81d7>
    4120:	15d31663          	bne	t1,t4,426c <fail>
    4124:	00120213          	addi	tp,tp,1 # 1 <boot+0x1>
    4128:	00200293          	li	t0,2
    412c:	fc521ee3          	bne	tp,t0,4108 <test_12+0x8>

00004130 <test_13>:
    4130:	00d00e13          	li	t3,13
    4134:	00000213          	li	tp,0
    4138:	00005097          	auipc	ra,0x5
    413c:	cc408093          	addi	ra,ra,-828 # 8dfc <tdat3>
    4140:	0040a183          	lw	gp,4(ra)
    4144:	00000013          	nop
    4148:	00018313          	mv	t1,gp
    414c:	f00ffeb7          	lui	t4,0xf00ff
    4150:	00fe8e93          	addi	t4,t4,15 # f00ff00f <io+0x700ff00f>
    4154:	11d31c63          	bne	t1,t4,426c <fail>
    4158:	00120213          	addi	tp,tp,1 # 1 <boot+0x1>
    415c:	00200293          	li	t0,2
    4160:	fc521ce3          	bne	tp,t0,4138 <test_13+0x8>

00004164 <test_14>:
    4164:	00e00e13          	li	t3,14
    4168:	00000213          	li	tp,0
    416c:	00005097          	auipc	ra,0x5
    4170:	c8808093          	addi	ra,ra,-888 # 8df4 <tdat>
    4174:	0040a183          	lw	gp,4(ra)
    4178:	00000013          	nop
    417c:	00000013          	nop
    4180:	00018313          	mv	t1,gp
    4184:	ff010eb7          	lui	t4,0xff010
    4188:	f00e8e93          	addi	t4,t4,-256 # ff00ff00 <io+0x7f00ff00>
    418c:	0fd31063          	bne	t1,t4,426c <fail>
    4190:	00120213          	addi	tp,tp,1 # 1 <boot+0x1>
    4194:	00200293          	li	t0,2
    4198:	fc521ae3          	bne	tp,t0,416c <test_14+0x8>

0000419c <test_15>:
    419c:	00f00e13          	li	t3,15
    41a0:	00000213          	li	tp,0
    41a4:	00005097          	auipc	ra,0x5
    41a8:	c5408093          	addi	ra,ra,-940 # 8df8 <tdat2>
    41ac:	0040a183          	lw	gp,4(ra)
    41b0:	0ff01eb7          	lui	t4,0xff01
    41b4:	ff0e8e93          	addi	t4,t4,-16 # ff00ff0 <tdat10+0xfef81d7>
    41b8:	0bd19a63          	bne	gp,t4,426c <fail>
    41bc:	00120213          	addi	tp,tp,1 # 1 <boot+0x1>
    41c0:	00200293          	li	t0,2
    41c4:	fe5210e3          	bne	tp,t0,41a4 <test_15+0x8>

000041c8 <test_16>:
    41c8:	01000e13          	li	t3,16
    41cc:	00000213          	li	tp,0
    41d0:	00005097          	auipc	ra,0x5
    41d4:	c2c08093          	addi	ra,ra,-980 # 8dfc <tdat3>
    41d8:	00000013          	nop
    41dc:	0040a183          	lw	gp,4(ra)
    41e0:	f00ffeb7          	lui	t4,0xf00ff
    41e4:	00fe8e93          	addi	t4,t4,15 # f00ff00f <io+0x700ff00f>
    41e8:	09d19263          	bne	gp,t4,426c <fail>
    41ec:	00120213          	addi	tp,tp,1 # 1 <boot+0x1>
    41f0:	00200293          	li	t0,2
    41f4:	fc521ee3          	bne	tp,t0,41d0 <test_16+0x8>

000041f8 <test_17>:
    41f8:	01100e13          	li	t3,17
    41fc:	00000213          	li	tp,0
    4200:	00005097          	auipc	ra,0x5
    4204:	bf408093          	addi	ra,ra,-1036 # 8df4 <tdat>
    4208:	00000013          	nop
    420c:	00000013          	nop
    4210:	0040a183          	lw	gp,4(ra)
    4214:	ff010eb7          	lui	t4,0xff010
    4218:	f00e8e93          	addi	t4,t4,-256 # ff00ff00 <io+0x7f00ff00>
    421c:	05d19863          	bne	gp,t4,426c <fail>
    4220:	00120213          	addi	tp,tp,1 # 1 <boot+0x1>
    4224:	00200293          	li	t0,2
    4228:	fc521ce3          	bne	tp,t0,4200 <test_17+0x8>

0000422c <test_18>:
    422c:	00005197          	auipc	gp,0x5
    4230:	bc818193          	addi	gp,gp,-1080 # 8df4 <tdat>
    4234:	0001a103          	lw	sp,0(gp)
    4238:	00200113          	li	sp,2
    423c:	00200e93          	li	t4,2
    4240:	01200e13          	li	t3,18
    4244:	03d11463          	bne	sp,t4,426c <fail>

00004248 <test_19>:
    4248:	00005197          	auipc	gp,0x5
    424c:	bac18193          	addi	gp,gp,-1108 # 8df4 <tdat>
    4250:	0001a103          	lw	sp,0(gp)
    4254:	00000013          	nop
    4258:	00200113          	li	sp,2
    425c:	00200e93          	li	t4,2
    4260:	01300e13          	li	t3,19
    4264:	01d11463          	bne	sp,t4,426c <fail>
    4268:	03c01c63          	bne	zero,t3,42a0 <pass>

0000426c <fail>:
    426c:	ebcfc0ef          	jal	ra,928 <failure>
    4270:	10000537          	lui	a0,0x10000
    4274:	04500593          	li	a1,69
    4278:	05200613          	li	a2,82
    427c:	04f00693          	li	a3,79
    4280:	00a00713          	li	a4,10
    4284:	00b52023          	sw	a1,0(a0) # 10000000 <tdat10+0xfff71e7>
    4288:	00c52023          	sw	a2,0(a0)
    428c:	00c52023          	sw	a2,0(a0)
    4290:	00d52023          	sw	a3,0(a0)
    4294:	00c52023          	sw	a2,0(a0)
    4298:	00e52023          	sw	a4,0(a0)
    429c:	00100073          	ebreak

000042a0 <pass>:
    42a0:	00009137          	lui	sp,0x9
    42a4:	e90fc0ef          	jal	ra,934 <OK>
    42a8:	00000013          	nop
    42ac:	f84fc06f          	j	a30 <lw_ret>

000042b0 <beq>:
    42b0:	00004537          	lui	a0,0x4
    42b4:	2d050513          	addi	a0,a0,720 # 42d0 <.test_name>

000042b8 <loop>:
    42b8:	fddfb0ef          	jal	ra,294 <putstr>

000042bc <.prname_next>:
    42bc:	00050583          	lb	a1,0(a0)
    42c0:	00058a63          	beqz	a1,42d4 <.prname_done>
    42c4:	00b62023          	sw	a1,0(a2)
    42c8:	00150513          	addi	a0,a0,1
    42cc:	ff1ff06f          	j	42bc <.prname_next>

000042d0 <.test_name>:
    42d0:	6562                	flw	fa0,24(sp)
    42d2:	0071                	c.nop	28

000042d4 <.prname_done>:
    42d4:	02e00593          	li	a1,46
    42d8:	00b62023          	sw	a1,0(a2)
    42dc:	00b62023          	sw	a1,0(a2)

000042e0 <test_2>:
    42e0:	00200e13          	li	t3,2
    42e4:	00000093          	li	ra,0
    42e8:	00000113          	li	sp,0
    42ec:	00208663          	beq	ra,sp,42f8 <test_2+0x18>
    42f0:	2bc01863          	bne	zero,t3,45a0 <fail>
    42f4:	01c01663          	bne	zero,t3,4300 <test_3>
    42f8:	fe208ee3          	beq	ra,sp,42f4 <test_2+0x14>
    42fc:	2bc01263          	bne	zero,t3,45a0 <fail>

00004300 <test_3>:
    4300:	00300e13          	li	t3,3
    4304:	00100093          	li	ra,1
    4308:	00100113          	li	sp,1
    430c:	00208663          	beq	ra,sp,4318 <test_3+0x18>
    4310:	29c01863          	bne	zero,t3,45a0 <fail>
    4314:	01c01663          	bne	zero,t3,4320 <test_4>
    4318:	fe208ee3          	beq	ra,sp,4314 <test_3+0x14>
    431c:	29c01263          	bne	zero,t3,45a0 <fail>

00004320 <test_4>:
    4320:	00400e13          	li	t3,4
    4324:	fff00093          	li	ra,-1
    4328:	fff00113          	li	sp,-1
    432c:	00208663          	beq	ra,sp,4338 <test_4+0x18>
    4330:	27c01863          	bne	zero,t3,45a0 <fail>
    4334:	01c01663          	bne	zero,t3,4340 <test_5>
    4338:	fe208ee3          	beq	ra,sp,4334 <test_4+0x14>
    433c:	27c01263          	bne	zero,t3,45a0 <fail>

00004340 <test_5>:
    4340:	00500e13          	li	t3,5
    4344:	00000093          	li	ra,0
    4348:	00100113          	li	sp,1
    434c:	00208463          	beq	ra,sp,4354 <test_5+0x14>
    4350:	01c01463          	bne	zero,t3,4358 <test_5+0x18>
    4354:	25c01663          	bne	zero,t3,45a0 <fail>
    4358:	fe208ee3          	beq	ra,sp,4354 <test_5+0x14>

0000435c <test_6>:
    435c:	00600e13          	li	t3,6
    4360:	00100093          	li	ra,1
    4364:	00000113          	li	sp,0
    4368:	00208463          	beq	ra,sp,4370 <test_6+0x14>
    436c:	01c01463          	bne	zero,t3,4374 <test_6+0x18>
    4370:	23c01863          	bne	zero,t3,45a0 <fail>
    4374:	fe208ee3          	beq	ra,sp,4370 <test_6+0x14>

00004378 <test_7>:
    4378:	00700e13          	li	t3,7
    437c:	fff00093          	li	ra,-1
    4380:	00100113          	li	sp,1
    4384:	00208463          	beq	ra,sp,438c <test_7+0x14>
    4388:	01c01463          	bne	zero,t3,4390 <test_7+0x18>
    438c:	21c01a63          	bne	zero,t3,45a0 <fail>
    4390:	fe208ee3          	beq	ra,sp,438c <test_7+0x14>

00004394 <test_8>:
    4394:	00800e13          	li	t3,8
    4398:	00100093          	li	ra,1
    439c:	fff00113          	li	sp,-1
    43a0:	00208463          	beq	ra,sp,43a8 <test_8+0x14>
    43a4:	01c01463          	bne	zero,t3,43ac <test_8+0x18>
    43a8:	1fc01c63          	bne	zero,t3,45a0 <fail>
    43ac:	fe208ee3          	beq	ra,sp,43a8 <test_8+0x14>

000043b0 <test_9>:
    43b0:	00900e13          	li	t3,9
    43b4:	00000213          	li	tp,0
    43b8:	00000093          	li	ra,0
    43bc:	fff00113          	li	sp,-1
    43c0:	1e208063          	beq	ra,sp,45a0 <fail>
    43c4:	00120213          	addi	tp,tp,1 # 1 <boot+0x1>
    43c8:	00200293          	li	t0,2
    43cc:	fe5216e3          	bne	tp,t0,43b8 <test_9+0x8>

000043d0 <test_10>:
    43d0:	00a00e13          	li	t3,10
    43d4:	00000213          	li	tp,0
    43d8:	00000093          	li	ra,0
    43dc:	fff00113          	li	sp,-1
    43e0:	00000013          	nop
    43e4:	1a208e63          	beq	ra,sp,45a0 <fail>
    43e8:	00120213          	addi	tp,tp,1 # 1 <boot+0x1>
    43ec:	00200293          	li	t0,2
    43f0:	fe5214e3          	bne	tp,t0,43d8 <test_10+0x8>

000043f4 <test_11>:
    43f4:	00b00e13          	li	t3,11
    43f8:	00000213          	li	tp,0
    43fc:	00000093          	li	ra,0
    4400:	fff00113          	li	sp,-1
    4404:	00000013          	nop
    4408:	00000013          	nop
    440c:	18208a63          	beq	ra,sp,45a0 <fail>
    4410:	00120213          	addi	tp,tp,1 # 1 <boot+0x1>
    4414:	00200293          	li	t0,2
    4418:	fe5212e3          	bne	tp,t0,43fc <test_11+0x8>

0000441c <test_12>:
    441c:	00c00e13          	li	t3,12
    4420:	00000213          	li	tp,0
    4424:	00000093          	li	ra,0
    4428:	00000013          	nop
    442c:	fff00113          	li	sp,-1
    4430:	16208863          	beq	ra,sp,45a0 <fail>
    4434:	00120213          	addi	tp,tp,1 # 1 <boot+0x1>
    4438:	00200293          	li	t0,2
    443c:	fe5214e3          	bne	tp,t0,4424 <test_12+0x8>

00004440 <test_13>:
    4440:	00d00e13          	li	t3,13
    4444:	00000213          	li	tp,0
    4448:	00000093          	li	ra,0
    444c:	00000013          	nop
    4450:	fff00113          	li	sp,-1
    4454:	00000013          	nop
    4458:	14208463          	beq	ra,sp,45a0 <fail>
    445c:	00120213          	addi	tp,tp,1 # 1 <boot+0x1>
    4460:	00200293          	li	t0,2
    4464:	fe5212e3          	bne	tp,t0,4448 <test_13+0x8>

00004468 <test_14>:
    4468:	00e00e13          	li	t3,14
    446c:	00000213          	li	tp,0
    4470:	00000093          	li	ra,0
    4474:	00000013          	nop
    4478:	00000013          	nop
    447c:	fff00113          	li	sp,-1
    4480:	12208063          	beq	ra,sp,45a0 <fail>
    4484:	00120213          	addi	tp,tp,1 # 1 <boot+0x1>
    4488:	00200293          	li	t0,2
    448c:	fe5212e3          	bne	tp,t0,4470 <test_14+0x8>

00004490 <test_15>:
    4490:	00f00e13          	li	t3,15
    4494:	00000213          	li	tp,0
    4498:	00000093          	li	ra,0
    449c:	fff00113          	li	sp,-1
    44a0:	10208063          	beq	ra,sp,45a0 <fail>
    44a4:	00120213          	addi	tp,tp,1 # 1 <boot+0x1>
    44a8:	00200293          	li	t0,2
    44ac:	fe5216e3          	bne	tp,t0,4498 <test_15+0x8>

000044b0 <test_16>:
    44b0:	01000e13          	li	t3,16
    44b4:	00000213          	li	tp,0
    44b8:	00000093          	li	ra,0
    44bc:	fff00113          	li	sp,-1
    44c0:	00000013          	nop
    44c4:	0c208e63          	beq	ra,sp,45a0 <fail>
    44c8:	00120213          	addi	tp,tp,1 # 1 <boot+0x1>
    44cc:	00200293          	li	t0,2
    44d0:	fe5214e3          	bne	tp,t0,44b8 <test_16+0x8>

000044d4 <test_17>:
    44d4:	01100e13          	li	t3,17
    44d8:	00000213          	li	tp,0
    44dc:	00000093          	li	ra,0
    44e0:	fff00113          	li	sp,-1
    44e4:	00000013          	nop
    44e8:	00000013          	nop
    44ec:	0a208a63          	beq	ra,sp,45a0 <fail>
    44f0:	00120213          	addi	tp,tp,1 # 1 <boot+0x1>
    44f4:	00200293          	li	t0,2
    44f8:	fe5212e3          	bne	tp,t0,44dc <test_17+0x8>

000044fc <test_18>:
    44fc:	01200e13          	li	t3,18
    4500:	00000213          	li	tp,0
    4504:	00000093          	li	ra,0
    4508:	00000013          	nop
    450c:	fff00113          	li	sp,-1
    4510:	08208863          	beq	ra,sp,45a0 <fail>
    4514:	00120213          	addi	tp,tp,1 # 1 <boot+0x1>
    4518:	00200293          	li	t0,2
    451c:	fe5214e3          	bne	tp,t0,4504 <test_18+0x8>

00004520 <test_19>:
    4520:	01300e13          	li	t3,19
    4524:	00000213          	li	tp,0
    4528:	00000093          	li	ra,0
    452c:	00000013          	nop
    4530:	fff00113          	li	sp,-1
    4534:	00000013          	nop
    4538:	06208463          	beq	ra,sp,45a0 <fail>
    453c:	00120213          	addi	tp,tp,1 # 1 <boot+0x1>
    4540:	00200293          	li	t0,2
    4544:	fe5212e3          	bne	tp,t0,4528 <test_19+0x8>

00004548 <test_20>:
    4548:	01400e13          	li	t3,20
    454c:	00000213          	li	tp,0
    4550:	00000093          	li	ra,0
    4554:	00000013          	nop
    4558:	00000013          	nop
    455c:	fff00113          	li	sp,-1
    4560:	04208063          	beq	ra,sp,45a0 <fail>
    4564:	00120213          	addi	tp,tp,1 # 1 <boot+0x1>
    4568:	00200293          	li	t0,2
    456c:	fe5212e3          	bne	tp,t0,4550 <test_20+0x8>

00004570 <test_21>:
    4570:	00100093          	li	ra,1
    4574:	00000a63          	beqz	zero,4588 <test_21+0x18>
    4578:	00108093          	addi	ra,ra,1
    457c:	00108093          	addi	ra,ra,1
    4580:	00108093          	addi	ra,ra,1
    4584:	00108093          	addi	ra,ra,1
    4588:	00108093          	addi	ra,ra,1
    458c:	00108093          	addi	ra,ra,1
    4590:	00300e93          	li	t4,3
    4594:	01500e13          	li	t3,21
    4598:	01d09463          	bne	ra,t4,45a0 <fail>
    459c:	03c01c63          	bne	zero,t3,45d4 <pass>

000045a0 <fail>:
    45a0:	b88fc0ef          	jal	ra,928 <failure>
    45a4:	10000537          	lui	a0,0x10000
    45a8:	04500593          	li	a1,69
    45ac:	05200613          	li	a2,82
    45b0:	04f00693          	li	a3,79
    45b4:	00a00713          	li	a4,10
    45b8:	00b52023          	sw	a1,0(a0) # 10000000 <tdat10+0xfff71e7>
    45bc:	00c52023          	sw	a2,0(a0)
    45c0:	00c52023          	sw	a2,0(a0)
    45c4:	00d52023          	sw	a3,0(a0)
    45c8:	00c52023          	sw	a2,0(a0)
    45cc:	00e52023          	sw	a4,0(a0)
    45d0:	00100073          	ebreak

000045d4 <pass>:
    45d4:	00009137          	lui	sp,0x9
    45d8:	b5cfc0ef          	jal	ra,934 <OK>
    45dc:	00000013          	nop
    45e0:	c10fc06f          	j	9f0 <beq_ret>
    45e4:	0000                	unimp
	...

000045e8 <auipc>:
    45e8:	00004537          	lui	a0,0x4
    45ec:	60850513          	addi	a0,a0,1544 # 4608 <.test_name>

000045f0 <loop>:
    45f0:	ca5fb0ef          	jal	ra,294 <putstr>

000045f4 <.prname_next>:
    45f4:	00050583          	lb	a1,0(a0)
    45f8:	00058c63          	beqz	a1,4610 <.prname_done>
    45fc:	00b62023          	sw	a1,0(a2)
    4600:	00150513          	addi	a0,a0,1
    4604:	ff1ff06f          	j	45f4 <.prname_next>

00004608 <.test_name>:
    4608:	7561                	lui	a0,0xffff8
    460a:	7069                	c.lui	zero,0xffffa
    460c:	00000063          	beqz	zero,460c <.test_name+0x4>

00004610 <.prname_done>:
    4610:	02e00593          	li	a1,46
    4614:	00b62023          	sw	a1,0(a2)
    4618:	00b62023          	sw	a1,0(a2)

0000461c <test_2>:
    461c:	00000013          	nop
    4620:	00002517          	auipc	a0,0x2
    4624:	71c50513          	addi	a0,a0,1820 # 6d3c <test_3+0x20>
    4628:	004005ef          	jal	a1,462c <test_2+0x10>
    462c:	40b50533          	sub	a0,a0,a1
    4630:	00002eb7          	lui	t4,0x2
    4634:	710e8e93          	addi	t4,t4,1808 # 2710 <test_14+0x24>
    4638:	00200e13          	li	t3,2
    463c:	03d51463          	bne	a0,t4,4664 <fail>

00004640 <test_3>:
    4640:	ffffe517          	auipc	a0,0xffffe
    4644:	8fc50513          	addi	a0,a0,-1796 # 1f3c <test_37+0x14>
    4648:	004005ef          	jal	a1,464c <test_3+0xc>
    464c:	40b50533          	sub	a0,a0,a1
    4650:	ffffeeb7          	lui	t4,0xffffe
    4654:	8f0e8e93          	addi	t4,t4,-1808 # ffffd8f0 <io+0x7fffd8f0>
    4658:	00300e13          	li	t3,3
    465c:	01d51463          	bne	a0,t4,4664 <fail>
    4660:	03c01c63          	bne	zero,t3,4698 <pass>

00004664 <fail>:
    4664:	ac4fc0ef          	jal	ra,928 <failure>
    4668:	10000537          	lui	a0,0x10000
    466c:	04500593          	li	a1,69
    4670:	05200613          	li	a2,82
    4674:	04f00693          	li	a3,79
    4678:	00a00713          	li	a4,10
    467c:	00b52023          	sw	a1,0(a0) # 10000000 <tdat10+0xfff71e7>
    4680:	00c52023          	sw	a2,0(a0)
    4684:	00c52023          	sw	a2,0(a0)
    4688:	00d52023          	sw	a3,0(a0)
    468c:	00c52023          	sw	a2,0(a0)
    4690:	00e52023          	sw	a4,0(a0)
    4694:	00100073          	ebreak

00004698 <pass>:
    4698:	00009137          	lui	sp,0x9
    469c:	a98fc0ef          	jal	ra,934 <OK>
    46a0:	00000013          	nop
    46a4:	b2cfc06f          	j	9d0 <auipc_ret>

000046a8 <addi>:
    46a8:	00004537          	lui	a0,0x4
    46ac:	6c850513          	addi	a0,a0,1736 # 46c8 <.test_name>

000046b0 <loop>:
    46b0:	be5fb0ef          	jal	ra,294 <putstr>

000046b4 <.prname_next>:
    46b4:	00050583          	lb	a1,0(a0)
    46b8:	00058c63          	beqz	a1,46d0 <.prname_done>
    46bc:	00b62023          	sw	a1,0(a2)
    46c0:	00150513          	addi	a0,a0,1
    46c4:	ff1ff06f          	j	46b4 <.prname_next>

000046c8 <.test_name>:
    46c8:	6461                	lui	s0,0x18
    46ca:	6964                	flw	fs1,84(a0)
    46cc:	0000                	unimp
	...

000046d0 <.prname_done>:
    46d0:	02e00593          	li	a1,46
    46d4:	00b62023          	sw	a1,0(a2)
    46d8:	00b62023          	sw	a1,0(a2)

000046dc <test_2>:
    46dc:	00000093          	li	ra,0
    46e0:	00008193          	mv	gp,ra
    46e4:	00000e93          	li	t4,0
    46e8:	00200e13          	li	t3,2
    46ec:	27d19c63          	bne	gp,t4,4964 <fail>

000046f0 <test_3>:
    46f0:	00100093          	li	ra,1
    46f4:	00108193          	addi	gp,ra,1
    46f8:	00200e93          	li	t4,2
    46fc:	00300e13          	li	t3,3
    4700:	27d19263          	bne	gp,t4,4964 <fail>

00004704 <test_4>:
    4704:	00300093          	li	ra,3
    4708:	00708193          	addi	gp,ra,7
    470c:	00a00e93          	li	t4,10
    4710:	00400e13          	li	t3,4
    4714:	25d19863          	bne	gp,t4,4964 <fail>

00004718 <test_5>:
    4718:	00000093          	li	ra,0
    471c:	80008193          	addi	gp,ra,-2048
    4720:	80000e93          	li	t4,-2048
    4724:	00500e13          	li	t3,5
    4728:	23d19e63          	bne	gp,t4,4964 <fail>

0000472c <test_6>:
    472c:	800000b7          	lui	ra,0x80000
    4730:	00008193          	mv	gp,ra
    4734:	80000eb7          	lui	t4,0x80000
    4738:	00600e13          	li	t3,6
    473c:	23d19463          	bne	gp,t4,4964 <fail>

00004740 <test_7>:
    4740:	800000b7          	lui	ra,0x80000
    4744:	80008193          	addi	gp,ra,-2048 # 7ffff800 <io+0xfffff800>
    4748:	80000eb7          	lui	t4,0x80000
    474c:	800e8e93          	addi	t4,t4,-2048 # 7ffff800 <io+0xfffff800>
    4750:	00700e13          	li	t3,7
    4754:	21d19863          	bne	gp,t4,4964 <fail>

00004758 <test_8>:
    4758:	00000093          	li	ra,0
    475c:	7ff08193          	addi	gp,ra,2047
    4760:	7ff00e93          	li	t4,2047
    4764:	00800e13          	li	t3,8
    4768:	1fd19e63          	bne	gp,t4,4964 <fail>

0000476c <test_9>:
    476c:	800000b7          	lui	ra,0x80000
    4770:	fff08093          	addi	ra,ra,-1 # 7fffffff <io+0xffffffff>
    4774:	00008193          	mv	gp,ra
    4778:	80000eb7          	lui	t4,0x80000
    477c:	fffe8e93          	addi	t4,t4,-1 # 7fffffff <io+0xffffffff>
    4780:	00900e13          	li	t3,9
    4784:	1fd19063          	bne	gp,t4,4964 <fail>

00004788 <test_10>:
    4788:	800000b7          	lui	ra,0x80000
    478c:	fff08093          	addi	ra,ra,-1 # 7fffffff <io+0xffffffff>
    4790:	7ff08193          	addi	gp,ra,2047
    4794:	80000eb7          	lui	t4,0x80000
    4798:	7fee8e93          	addi	t4,t4,2046 # 800007fe <io+0x7fe>
    479c:	00a00e13          	li	t3,10
    47a0:	1dd19263          	bne	gp,t4,4964 <fail>

000047a4 <test_11>:
    47a4:	800000b7          	lui	ra,0x80000
    47a8:	7ff08193          	addi	gp,ra,2047 # 800007ff <io+0x7ff>
    47ac:	80000eb7          	lui	t4,0x80000
    47b0:	7ffe8e93          	addi	t4,t4,2047 # 800007ff <io+0x7ff>
    47b4:	00b00e13          	li	t3,11
    47b8:	1bd19663          	bne	gp,t4,4964 <fail>

000047bc <test_12>:
    47bc:	800000b7          	lui	ra,0x80000
    47c0:	fff08093          	addi	ra,ra,-1 # 7fffffff <io+0xffffffff>
    47c4:	80008193          	addi	gp,ra,-2048
    47c8:	7ffffeb7          	lui	t4,0x7ffff
    47cc:	7ffe8e93          	addi	t4,t4,2047 # 7ffff7ff <tdat10+0x7fff69e6>
    47d0:	00c00e13          	li	t3,12
    47d4:	19d19863          	bne	gp,t4,4964 <fail>

000047d8 <test_13>:
    47d8:	00000093          	li	ra,0
    47dc:	fff08193          	addi	gp,ra,-1
    47e0:	fff00e93          	li	t4,-1
    47e4:	00d00e13          	li	t3,13
    47e8:	17d19e63          	bne	gp,t4,4964 <fail>

000047ec <test_14>:
    47ec:	fff00093          	li	ra,-1
    47f0:	00108193          	addi	gp,ra,1
    47f4:	00000e93          	li	t4,0
    47f8:	00e00e13          	li	t3,14
    47fc:	17d19463          	bne	gp,t4,4964 <fail>

00004800 <test_15>:
    4800:	fff00093          	li	ra,-1
    4804:	fff08193          	addi	gp,ra,-1
    4808:	ffe00e93          	li	t4,-2
    480c:	00f00e13          	li	t3,15
    4810:	15d19a63          	bne	gp,t4,4964 <fail>

00004814 <test_16>:
    4814:	800000b7          	lui	ra,0x80000
    4818:	fff08093          	addi	ra,ra,-1 # 7fffffff <io+0xffffffff>
    481c:	00108193          	addi	gp,ra,1
    4820:	80000eb7          	lui	t4,0x80000
    4824:	01000e13          	li	t3,16
    4828:	13d19e63          	bne	gp,t4,4964 <fail>

0000482c <test_17>:
    482c:	00d00093          	li	ra,13
    4830:	00b08093          	addi	ra,ra,11
    4834:	01800e93          	li	t4,24
    4838:	01100e13          	li	t3,17
    483c:	13d09463          	bne	ra,t4,4964 <fail>

00004840 <test_18>:
    4840:	00000213          	li	tp,0
    4844:	00d00093          	li	ra,13
    4848:	00b08193          	addi	gp,ra,11
    484c:	00018313          	mv	t1,gp
    4850:	00120213          	addi	tp,tp,1 # 1 <boot+0x1>
    4854:	00200293          	li	t0,2
    4858:	fe5216e3          	bne	tp,t0,4844 <test_18+0x4>
    485c:	01800e93          	li	t4,24
    4860:	01200e13          	li	t3,18
    4864:	11d31063          	bne	t1,t4,4964 <fail>

00004868 <test_19>:
    4868:	00000213          	li	tp,0
    486c:	00d00093          	li	ra,13
    4870:	00a08193          	addi	gp,ra,10
    4874:	00000013          	nop
    4878:	00018313          	mv	t1,gp
    487c:	00120213          	addi	tp,tp,1 # 1 <boot+0x1>
    4880:	00200293          	li	t0,2
    4884:	fe5214e3          	bne	tp,t0,486c <test_19+0x4>
    4888:	01700e93          	li	t4,23
    488c:	01300e13          	li	t3,19
    4890:	0dd31a63          	bne	t1,t4,4964 <fail>

00004894 <test_20>:
    4894:	00000213          	li	tp,0
    4898:	00d00093          	li	ra,13
    489c:	00908193          	addi	gp,ra,9
    48a0:	00000013          	nop
    48a4:	00000013          	nop
    48a8:	00018313          	mv	t1,gp
    48ac:	00120213          	addi	tp,tp,1 # 1 <boot+0x1>
    48b0:	00200293          	li	t0,2
    48b4:	fe5212e3          	bne	tp,t0,4898 <test_20+0x4>
    48b8:	01600e93          	li	t4,22
    48bc:	01400e13          	li	t3,20
    48c0:	0bd31263          	bne	t1,t4,4964 <fail>

000048c4 <test_21>:
    48c4:	00000213          	li	tp,0
    48c8:	00d00093          	li	ra,13
    48cc:	00b08193          	addi	gp,ra,11
    48d0:	00120213          	addi	tp,tp,1 # 1 <boot+0x1>
    48d4:	00200293          	li	t0,2
    48d8:	fe5218e3          	bne	tp,t0,48c8 <test_21+0x4>
    48dc:	01800e93          	li	t4,24
    48e0:	01500e13          	li	t3,21
    48e4:	09d19063          	bne	gp,t4,4964 <fail>

000048e8 <test_22>:
    48e8:	00000213          	li	tp,0
    48ec:	00d00093          	li	ra,13
    48f0:	00000013          	nop
    48f4:	00a08193          	addi	gp,ra,10
    48f8:	00120213          	addi	tp,tp,1 # 1 <boot+0x1>
    48fc:	00200293          	li	t0,2
    4900:	fe5216e3          	bne	tp,t0,48ec <test_22+0x4>
    4904:	01700e93          	li	t4,23
    4908:	01600e13          	li	t3,22
    490c:	05d19c63          	bne	gp,t4,4964 <fail>

00004910 <test_23>:
    4910:	00000213          	li	tp,0
    4914:	00d00093          	li	ra,13
    4918:	00000013          	nop
    491c:	00000013          	nop
    4920:	00908193          	addi	gp,ra,9
    4924:	00120213          	addi	tp,tp,1 # 1 <boot+0x1>
    4928:	00200293          	li	t0,2
    492c:	fe5214e3          	bne	tp,t0,4914 <test_23+0x4>
    4930:	01600e93          	li	t4,22
    4934:	01700e13          	li	t3,23
    4938:	03d19663          	bne	gp,t4,4964 <fail>

0000493c <test_24>:
    493c:	02000093          	li	ra,32
    4940:	02000e93          	li	t4,32
    4944:	01800e13          	li	t3,24
    4948:	01d09e63          	bne	ra,t4,4964 <fail>

0000494c <test_25>:
    494c:	02100093          	li	ra,33
    4950:	03208013          	addi	zero,ra,50
    4954:	00000e93          	li	t4,0
    4958:	01900e13          	li	t3,25
    495c:	01d01463          	bne	zero,t4,4964 <fail>
    4960:	03c01c63          	bne	zero,t3,4998 <pass>

00004964 <fail>:
    4964:	fc5fb0ef          	jal	ra,928 <failure>
    4968:	10000537          	lui	a0,0x10000
    496c:	04500593          	li	a1,69
    4970:	05200613          	li	a2,82
    4974:	04f00693          	li	a3,79
    4978:	00a00713          	li	a4,10
    497c:	00b52023          	sw	a1,0(a0) # 10000000 <tdat10+0xfff71e7>
    4980:	00c52023          	sw	a2,0(a0)
    4984:	00c52023          	sw	a2,0(a0)
    4988:	00d52023          	sw	a3,0(a0)
    498c:	00c52023          	sw	a2,0(a0)
    4990:	00e52023          	sw	a4,0(a0)
    4994:	00100073          	ebreak

00004998 <pass>:
    4998:	00009137          	lui	sp,0x9
    499c:	f99fb0ef          	jal	ra,934 <OK>
    49a0:	00000013          	nop
    49a4:	8bcfc06f          	j	a60 <addi_ret>

000049a8 <jalr>:
    49a8:	00005537          	lui	a0,0x5
    49ac:	9c850513          	addi	a0,a0,-1592 # 49c8 <.test_name>

000049b0 <loop>:
    49b0:	8e5fb0ef          	jal	ra,294 <putstr>

000049b4 <.prname_next>:
    49b4:	00050583          	lb	a1,0(a0)
    49b8:	00058c63          	beqz	a1,49d0 <.prname_done>
    49bc:	00b62023          	sw	a1,0(a2)
    49c0:	00150513          	addi	a0,a0,1
    49c4:	ff1ff06f          	j	49b4 <.prname_next>

000049c8 <.test_name>:
    49c8:	616a                	flw	ft2,152(sp)
    49ca:	726c                	flw	fa1,100(a2)
    49cc:	0000                	unimp
	...

000049d0 <.prname_done>:
    49d0:	02e00593          	li	a1,46
    49d4:	00b62023          	sw	a1,0(a2)
    49d8:	00b62023          	sw	a1,0(a2)

000049dc <test_2>:
    49dc:	00200e13          	li	t3,2
    49e0:	00000f93          	li	t6,0
    49e4:	00000117          	auipc	sp,0x0
    49e8:	01810113          	addi	sp,sp,24 # 49fc <target_2>

000049ec <linkaddr_2>:
    49ec:	000109e7          	jalr	s3,sp
    49f0:	00000013          	nop
    49f4:	00000013          	nop
    49f8:	0e40006f          	j	4adc <fail>

000049fc <target_2>:
    49fc:	00000097          	auipc	ra,0x0
    4a00:	ff008093          	addi	ra,ra,-16 # 49ec <linkaddr_2>
    4a04:	00408093          	addi	ra,ra,4
    4a08:	0d309a63          	bne	ra,s3,4adc <fail>

00004a0c <test_3>:
    4a0c:	00300e13          	li	t3,3
    4a10:	00000f93          	li	t6,0
    4a14:	00000197          	auipc	gp,0x0
    4a18:	01418193          	addi	gp,gp,20 # 4a28 <target_3>

00004a1c <linkaddr_3>:
    4a1c:	00018067          	jr	gp
    4a20:	00000013          	nop
    4a24:	0b80006f          	j	4adc <fail>

00004a28 <target_3>:
    4a28:	0a0f9a63          	bnez	t6,4adc <fail>

00004a2c <test_4>:
    4a2c:	00400e13          	li	t3,4
    4a30:	00000213          	li	tp,0
    4a34:	00000317          	auipc	t1,0x0
    4a38:	01030313          	addi	t1,t1,16 # 4a44 <test_4+0x18>
    4a3c:	000309e7          	jalr	s3,t1
    4a40:	09c01e63          	bne	zero,t3,4adc <fail>
    4a44:	00120213          	addi	tp,tp,1 # 1 <boot+0x1>
    4a48:	00200293          	li	t0,2
    4a4c:	fe5214e3          	bne	tp,t0,4a34 <test_4+0x8>

00004a50 <test_5>:
    4a50:	00500e13          	li	t3,5
    4a54:	00000213          	li	tp,0
    4a58:	00000317          	auipc	t1,0x0
    4a5c:	01430313          	addi	t1,t1,20 # 4a6c <test_5+0x1c>
    4a60:	00000013          	nop
    4a64:	000309e7          	jalr	s3,t1
    4a68:	07c01a63          	bne	zero,t3,4adc <fail>
    4a6c:	00120213          	addi	tp,tp,1 # 1 <boot+0x1>
    4a70:	00200293          	li	t0,2
    4a74:	fe5212e3          	bne	tp,t0,4a58 <test_5+0x8>

00004a78 <test_6>:
    4a78:	00600e13          	li	t3,6
    4a7c:	00000213          	li	tp,0
    4a80:	00000317          	auipc	t1,0x0
    4a84:	01830313          	addi	t1,t1,24 # 4a98 <test_6+0x20>
    4a88:	00000013          	nop
    4a8c:	00000013          	nop
    4a90:	000309e7          	jalr	s3,t1
    4a94:	05c01463          	bne	zero,t3,4adc <fail>
    4a98:	00120213          	addi	tp,tp,1 # 1 <boot+0x1>
    4a9c:	00200293          	li	t0,2
    4aa0:	fe5210e3          	bne	tp,t0,4a80 <test_6+0x8>

00004aa4 <test_7>:
    4aa4:	00100093          	li	ra,1
    4aa8:	00000117          	auipc	sp,0x0
    4aac:	01c10113          	addi	sp,sp,28 # 4ac4 <test_7+0x20>
    4ab0:	ffc109e7          	jalr	s3,-4(sp)
    4ab4:	00108093          	addi	ra,ra,1
    4ab8:	00108093          	addi	ra,ra,1
    4abc:	00108093          	addi	ra,ra,1
    4ac0:	00108093          	addi	ra,ra,1
    4ac4:	00108093          	addi	ra,ra,1
    4ac8:	00108093          	addi	ra,ra,1
    4acc:	00400e93          	li	t4,4
    4ad0:	00700e13          	li	t3,7
    4ad4:	01d09463          	bne	ra,t4,4adc <fail>
    4ad8:	03c01c63          	bne	zero,t3,4b10 <pass>

00004adc <fail>:
    4adc:	e4dfb0ef          	jal	ra,928 <failure>
    4ae0:	10000537          	lui	a0,0x10000
    4ae4:	04500593          	li	a1,69
    4ae8:	05200613          	li	a2,82
    4aec:	04f00693          	li	a3,79
    4af0:	00a00713          	li	a4,10
    4af4:	00b52023          	sw	a1,0(a0) # 10000000 <tdat10+0xfff71e7>
    4af8:	00c52023          	sw	a2,0(a0)
    4afc:	00c52023          	sw	a2,0(a0)
    4b00:	00d52023          	sw	a3,0(a0)
    4b04:	00c52023          	sw	a2,0(a0)
    4b08:	00e52023          	sw	a4,0(a0)
    4b0c:	00100073          	ebreak

00004b10 <pass>:
    4b10:	00009137          	lui	sp,0x9
    4b14:	e21fb0ef          	jal	ra,934 <OK>
    4b18:	00000013          	nop
    4b1c:	ecdfb06f          	j	9e8 <jalr_ret>

00004b20 <bne>:
    4b20:	00005537          	lui	a0,0x5
    4b24:	b4050513          	addi	a0,a0,-1216 # 4b40 <.test_name>

00004b28 <loop>:
    4b28:	f6cfb0ef          	jal	ra,294 <putstr>

00004b2c <.prname_next>:
    4b2c:	00050583          	lb	a1,0(a0)
    4b30:	00058a63          	beqz	a1,4b44 <.prname_done>
    4b34:	00b62023          	sw	a1,0(a2)
    4b38:	00150513          	addi	a0,a0,1
    4b3c:	ff1ff06f          	j	4b2c <.prname_next>

00004b40 <.test_name>:
    4b40:	6e62                	flw	ft8,24(sp)
    4b42:	0065                	c.nop	25

00004b44 <.prname_done>:
    4b44:	02e00593          	li	a1,46
    4b48:	00b62023          	sw	a1,0(a2)
    4b4c:	00b62023          	sw	a1,0(a2)

00004b50 <test_2>:
    4b50:	00200e13          	li	t3,2
    4b54:	00000093          	li	ra,0
    4b58:	00100113          	li	sp,1
    4b5c:	00209663          	bne	ra,sp,4b68 <test_2+0x18>
    4b60:	2bc01a63          	bne	zero,t3,4e14 <fail>
    4b64:	01c01663          	bne	zero,t3,4b70 <test_3>
    4b68:	fe209ee3          	bne	ra,sp,4b64 <test_2+0x14>
    4b6c:	2bc01463          	bne	zero,t3,4e14 <fail>

00004b70 <test_3>:
    4b70:	00300e13          	li	t3,3
    4b74:	00100093          	li	ra,1
    4b78:	00000113          	li	sp,0
    4b7c:	00209663          	bne	ra,sp,4b88 <test_3+0x18>
    4b80:	29c01a63          	bne	zero,t3,4e14 <fail>
    4b84:	01c01663          	bne	zero,t3,4b90 <test_4>
    4b88:	fe209ee3          	bne	ra,sp,4b84 <test_3+0x14>
    4b8c:	29c01463          	bne	zero,t3,4e14 <fail>

00004b90 <test_4>:
    4b90:	00400e13          	li	t3,4
    4b94:	fff00093          	li	ra,-1
    4b98:	00100113          	li	sp,1
    4b9c:	00209663          	bne	ra,sp,4ba8 <test_4+0x18>
    4ba0:	27c01a63          	bne	zero,t3,4e14 <fail>
    4ba4:	01c01663          	bne	zero,t3,4bb0 <test_5>
    4ba8:	fe209ee3          	bne	ra,sp,4ba4 <test_4+0x14>
    4bac:	27c01463          	bne	zero,t3,4e14 <fail>

00004bb0 <test_5>:
    4bb0:	00500e13          	li	t3,5
    4bb4:	00100093          	li	ra,1
    4bb8:	fff00113          	li	sp,-1
    4bbc:	00209663          	bne	ra,sp,4bc8 <test_5+0x18>
    4bc0:	25c01a63          	bne	zero,t3,4e14 <fail>
    4bc4:	01c01663          	bne	zero,t3,4bd0 <test_6>
    4bc8:	fe209ee3          	bne	ra,sp,4bc4 <test_5+0x14>
    4bcc:	25c01463          	bne	zero,t3,4e14 <fail>

00004bd0 <test_6>:
    4bd0:	00600e13          	li	t3,6
    4bd4:	00000093          	li	ra,0
    4bd8:	00000113          	li	sp,0
    4bdc:	00209463          	bne	ra,sp,4be4 <test_6+0x14>
    4be0:	01c01463          	bne	zero,t3,4be8 <test_6+0x18>
    4be4:	23c01863          	bne	zero,t3,4e14 <fail>
    4be8:	fe209ee3          	bne	ra,sp,4be4 <test_6+0x14>

00004bec <test_7>:
    4bec:	00700e13          	li	t3,7
    4bf0:	00100093          	li	ra,1
    4bf4:	00100113          	li	sp,1
    4bf8:	00209463          	bne	ra,sp,4c00 <test_7+0x14>
    4bfc:	01c01463          	bne	zero,t3,4c04 <test_7+0x18>
    4c00:	21c01a63          	bne	zero,t3,4e14 <fail>
    4c04:	fe209ee3          	bne	ra,sp,4c00 <test_7+0x14>

00004c08 <test_8>:
    4c08:	00800e13          	li	t3,8
    4c0c:	fff00093          	li	ra,-1
    4c10:	fff00113          	li	sp,-1
    4c14:	00209463          	bne	ra,sp,4c1c <test_8+0x14>
    4c18:	01c01463          	bne	zero,t3,4c20 <test_8+0x18>
    4c1c:	1fc01c63          	bne	zero,t3,4e14 <fail>
    4c20:	fe209ee3          	bne	ra,sp,4c1c <test_8+0x14>

00004c24 <test_9>:
    4c24:	00900e13          	li	t3,9
    4c28:	00000213          	li	tp,0
    4c2c:	00000093          	li	ra,0
    4c30:	00000113          	li	sp,0
    4c34:	1e209063          	bne	ra,sp,4e14 <fail>
    4c38:	00120213          	addi	tp,tp,1 # 1 <boot+0x1>
    4c3c:	00200293          	li	t0,2
    4c40:	fe5216e3          	bne	tp,t0,4c2c <test_9+0x8>

00004c44 <test_10>:
    4c44:	00a00e13          	li	t3,10
    4c48:	00000213          	li	tp,0
    4c4c:	00000093          	li	ra,0
    4c50:	00000113          	li	sp,0
    4c54:	00000013          	nop
    4c58:	1a209e63          	bne	ra,sp,4e14 <fail>
    4c5c:	00120213          	addi	tp,tp,1 # 1 <boot+0x1>
    4c60:	00200293          	li	t0,2
    4c64:	fe5214e3          	bne	tp,t0,4c4c <test_10+0x8>

00004c68 <test_11>:
    4c68:	00b00e13          	li	t3,11
    4c6c:	00000213          	li	tp,0
    4c70:	00000093          	li	ra,0
    4c74:	00000113          	li	sp,0
    4c78:	00000013          	nop
    4c7c:	00000013          	nop
    4c80:	18209a63          	bne	ra,sp,4e14 <fail>
    4c84:	00120213          	addi	tp,tp,1 # 1 <boot+0x1>
    4c88:	00200293          	li	t0,2
    4c8c:	fe5212e3          	bne	tp,t0,4c70 <test_11+0x8>

00004c90 <test_12>:
    4c90:	00c00e13          	li	t3,12
    4c94:	00000213          	li	tp,0
    4c98:	00000093          	li	ra,0
    4c9c:	00000013          	nop
    4ca0:	00000113          	li	sp,0
    4ca4:	16209863          	bne	ra,sp,4e14 <fail>
    4ca8:	00120213          	addi	tp,tp,1 # 1 <boot+0x1>
    4cac:	00200293          	li	t0,2
    4cb0:	fe5214e3          	bne	tp,t0,4c98 <test_12+0x8>

00004cb4 <test_13>:
    4cb4:	00d00e13          	li	t3,13
    4cb8:	00000213          	li	tp,0
    4cbc:	00000093          	li	ra,0
    4cc0:	00000013          	nop
    4cc4:	00000113          	li	sp,0
    4cc8:	00000013          	nop
    4ccc:	14209463          	bne	ra,sp,4e14 <fail>
    4cd0:	00120213          	addi	tp,tp,1 # 1 <boot+0x1>
    4cd4:	00200293          	li	t0,2
    4cd8:	fe5212e3          	bne	tp,t0,4cbc <test_13+0x8>

00004cdc <test_14>:
    4cdc:	00e00e13          	li	t3,14
    4ce0:	00000213          	li	tp,0
    4ce4:	00000093          	li	ra,0
    4ce8:	00000013          	nop
    4cec:	00000013          	nop
    4cf0:	00000113          	li	sp,0
    4cf4:	12209063          	bne	ra,sp,4e14 <fail>
    4cf8:	00120213          	addi	tp,tp,1 # 1 <boot+0x1>
    4cfc:	00200293          	li	t0,2
    4d00:	fe5212e3          	bne	tp,t0,4ce4 <test_14+0x8>

00004d04 <test_15>:
    4d04:	00f00e13          	li	t3,15
    4d08:	00000213          	li	tp,0
    4d0c:	00000093          	li	ra,0
    4d10:	00000113          	li	sp,0
    4d14:	10209063          	bne	ra,sp,4e14 <fail>
    4d18:	00120213          	addi	tp,tp,1 # 1 <boot+0x1>
    4d1c:	00200293          	li	t0,2
    4d20:	fe5216e3          	bne	tp,t0,4d0c <test_15+0x8>

00004d24 <test_16>:
    4d24:	01000e13          	li	t3,16
    4d28:	00000213          	li	tp,0
    4d2c:	00000093          	li	ra,0
    4d30:	00000113          	li	sp,0
    4d34:	00000013          	nop
    4d38:	0c209e63          	bne	ra,sp,4e14 <fail>
    4d3c:	00120213          	addi	tp,tp,1 # 1 <boot+0x1>
    4d40:	00200293          	li	t0,2
    4d44:	fe5214e3          	bne	tp,t0,4d2c <test_16+0x8>

00004d48 <test_17>:
    4d48:	01100e13          	li	t3,17
    4d4c:	00000213          	li	tp,0
    4d50:	00000093          	li	ra,0
    4d54:	00000113          	li	sp,0
    4d58:	00000013          	nop
    4d5c:	00000013          	nop
    4d60:	0a209a63          	bne	ra,sp,4e14 <fail>
    4d64:	00120213          	addi	tp,tp,1 # 1 <boot+0x1>
    4d68:	00200293          	li	t0,2
    4d6c:	fe5212e3          	bne	tp,t0,4d50 <test_17+0x8>

00004d70 <test_18>:
    4d70:	01200e13          	li	t3,18
    4d74:	00000213          	li	tp,0
    4d78:	00000093          	li	ra,0
    4d7c:	00000013          	nop
    4d80:	00000113          	li	sp,0
    4d84:	08209863          	bne	ra,sp,4e14 <fail>
    4d88:	00120213          	addi	tp,tp,1 # 1 <boot+0x1>
    4d8c:	00200293          	li	t0,2
    4d90:	fe5214e3          	bne	tp,t0,4d78 <test_18+0x8>

00004d94 <test_19>:
    4d94:	01300e13          	li	t3,19
    4d98:	00000213          	li	tp,0
    4d9c:	00000093          	li	ra,0
    4da0:	00000013          	nop
    4da4:	00000113          	li	sp,0
    4da8:	00000013          	nop
    4dac:	06209463          	bne	ra,sp,4e14 <fail>
    4db0:	00120213          	addi	tp,tp,1 # 1 <boot+0x1>
    4db4:	00200293          	li	t0,2
    4db8:	fe5212e3          	bne	tp,t0,4d9c <test_19+0x8>

00004dbc <test_20>:
    4dbc:	01400e13          	li	t3,20
    4dc0:	00000213          	li	tp,0
    4dc4:	00000093          	li	ra,0
    4dc8:	00000013          	nop
    4dcc:	00000013          	nop
    4dd0:	00000113          	li	sp,0
    4dd4:	04209063          	bne	ra,sp,4e14 <fail>
    4dd8:	00120213          	addi	tp,tp,1 # 1 <boot+0x1>
    4ddc:	00200293          	li	t0,2
    4de0:	fe5212e3          	bne	tp,t0,4dc4 <test_20+0x8>

00004de4 <test_21>:
    4de4:	00100093          	li	ra,1
    4de8:	00009a63          	bnez	ra,4dfc <test_21+0x18>
    4dec:	00108093          	addi	ra,ra,1
    4df0:	00108093          	addi	ra,ra,1
    4df4:	00108093          	addi	ra,ra,1
    4df8:	00108093          	addi	ra,ra,1
    4dfc:	00108093          	addi	ra,ra,1
    4e00:	00108093          	addi	ra,ra,1
    4e04:	00300e93          	li	t4,3
    4e08:	01500e13          	li	t3,21
    4e0c:	01d09463          	bne	ra,t4,4e14 <fail>
    4e10:	03c01c63          	bne	zero,t3,4e48 <pass>

00004e14 <fail>:
    4e14:	b15fb0ef          	jal	ra,928 <failure>
    4e18:	10000537          	lui	a0,0x10000
    4e1c:	04500593          	li	a1,69
    4e20:	05200613          	li	a2,82
    4e24:	04f00693          	li	a3,79
    4e28:	00a00713          	li	a4,10
    4e2c:	00b52023          	sw	a1,0(a0) # 10000000 <tdat10+0xfff71e7>
    4e30:	00c52023          	sw	a2,0(a0)
    4e34:	00c52023          	sw	a2,0(a0)
    4e38:	00d52023          	sw	a3,0(a0)
    4e3c:	00c52023          	sw	a2,0(a0)
    4e40:	00e52023          	sw	a4,0(a0)
    4e44:	00100073          	ebreak

00004e48 <pass>:
    4e48:	00009137          	lui	sp,0x9
    4e4c:	ae9fb0ef          	jal	ra,934 <OK>
    4e50:	00000013          	nop
    4e54:	ba5fb06f          	j	9f8 <bne_ret>

00004e58 <xori>:
    4e58:	00005537          	lui	a0,0x5
    4e5c:	e7850513          	addi	a0,a0,-392 # 4e78 <.test_name>

00004e60 <loop>:
    4e60:	c34fb0ef          	jal	ra,294 <putstr>

00004e64 <.prname_next>:
    4e64:	00050583          	lb	a1,0(a0)
    4e68:	00058c63          	beqz	a1,4e80 <.prname_done>
    4e6c:	00b62023          	sw	a1,0(a2)
    4e70:	00150513          	addi	a0,a0,1
    4e74:	ff1ff06f          	j	4e64 <.prname_next>

00004e78 <.test_name>:
    4e78:	6f78                	flw	fa4,92(a4)
    4e7a:	6972                	flw	fs2,28(sp)
    4e7c:	0000                	unimp
	...

00004e80 <.prname_done>:
    4e80:	02e00593          	li	a1,46
    4e84:	00b62023          	sw	a1,0(a2)
    4e88:	00b62023          	sw	a1,0(a2)

00004e8c <test_2>:
    4e8c:	00ff10b7          	lui	ra,0xff1
    4e90:	f0008093          	addi	ra,ra,-256 # ff0f00 <tdat10+0xfe80e7>
    4e94:	f0f0c193          	xori	gp,ra,-241
    4e98:	ff00feb7          	lui	t4,0xff00f
    4e9c:	00fe8e93          	addi	t4,t4,15 # ff00f00f <io+0x7f00f00f>
    4ea0:	00200e13          	li	t3,2
    4ea4:	1dd19663          	bne	gp,t4,5070 <fail>

00004ea8 <test_3>:
    4ea8:	0ff010b7          	lui	ra,0xff01
    4eac:	ff008093          	addi	ra,ra,-16 # ff00ff0 <tdat10+0xfef81d7>
    4eb0:	0f00c193          	xori	gp,ra,240
    4eb4:	0ff01eb7          	lui	t4,0xff01
    4eb8:	f00e8e93          	addi	t4,t4,-256 # ff00f00 <tdat10+0xfef80e7>
    4ebc:	00300e13          	li	t3,3
    4ec0:	1bd19863          	bne	gp,t4,5070 <fail>

00004ec4 <test_4>:
    4ec4:	00ff10b7          	lui	ra,0xff1
    4ec8:	8ff08093          	addi	ra,ra,-1793 # ff08ff <tdat10+0xfe7ae6>
    4ecc:	70f0c193          	xori	gp,ra,1807
    4ed0:	00ff1eb7          	lui	t4,0xff1
    4ed4:	ff0e8e93          	addi	t4,t4,-16 # ff0ff0 <tdat10+0xfe81d7>
    4ed8:	00400e13          	li	t3,4
    4edc:	19d19a63          	bne	gp,t4,5070 <fail>

00004ee0 <test_5>:
    4ee0:	f00ff0b7          	lui	ra,0xf00ff
    4ee4:	00f08093          	addi	ra,ra,15 # f00ff00f <io+0x700ff00f>
    4ee8:	0f00c193          	xori	gp,ra,240
    4eec:	f00ffeb7          	lui	t4,0xf00ff
    4ef0:	0ffe8e93          	addi	t4,t4,255 # f00ff0ff <io+0x700ff0ff>
    4ef4:	00500e13          	li	t3,5
    4ef8:	17d19c63          	bne	gp,t4,5070 <fail>

00004efc <test_6>:
    4efc:	ff00f0b7          	lui	ra,0xff00f
    4f00:	70008093          	addi	ra,ra,1792 # ff00f700 <io+0x7f00f700>
    4f04:	70f0c093          	xori	ra,ra,1807
    4f08:	ff00feb7          	lui	t4,0xff00f
    4f0c:	00fe8e93          	addi	t4,t4,15 # ff00f00f <io+0x7f00f00f>
    4f10:	00600e13          	li	t3,6
    4f14:	15d09e63          	bne	ra,t4,5070 <fail>

00004f18 <test_7>:
    4f18:	00000213          	li	tp,0
    4f1c:	0ff010b7          	lui	ra,0xff01
    4f20:	ff008093          	addi	ra,ra,-16 # ff00ff0 <tdat10+0xfef81d7>
    4f24:	0f00c193          	xori	gp,ra,240
    4f28:	00018313          	mv	t1,gp
    4f2c:	00120213          	addi	tp,tp,1 # 1 <boot+0x1>
    4f30:	00200293          	li	t0,2
    4f34:	fe5214e3          	bne	tp,t0,4f1c <test_7+0x4>
    4f38:	0ff01eb7          	lui	t4,0xff01
    4f3c:	f00e8e93          	addi	t4,t4,-256 # ff00f00 <tdat10+0xfef80e7>
    4f40:	00700e13          	li	t3,7
    4f44:	13d31663          	bne	t1,t4,5070 <fail>

00004f48 <test_8>:
    4f48:	00000213          	li	tp,0
    4f4c:	00ff10b7          	lui	ra,0xff1
    4f50:	8ff08093          	addi	ra,ra,-1793 # ff08ff <tdat10+0xfe7ae6>
    4f54:	70f0c193          	xori	gp,ra,1807
    4f58:	00000013          	nop
    4f5c:	00018313          	mv	t1,gp
    4f60:	00120213          	addi	tp,tp,1 # 1 <boot+0x1>
    4f64:	00200293          	li	t0,2
    4f68:	fe5212e3          	bne	tp,t0,4f4c <test_8+0x4>
    4f6c:	00ff1eb7          	lui	t4,0xff1
    4f70:	ff0e8e93          	addi	t4,t4,-16 # ff0ff0 <tdat10+0xfe81d7>
    4f74:	00800e13          	li	t3,8
    4f78:	0fd31c63          	bne	t1,t4,5070 <fail>

00004f7c <test_9>:
    4f7c:	00000213          	li	tp,0
    4f80:	f00ff0b7          	lui	ra,0xf00ff
    4f84:	00f08093          	addi	ra,ra,15 # f00ff00f <io+0x700ff00f>
    4f88:	0f00c193          	xori	gp,ra,240
    4f8c:	00000013          	nop
    4f90:	00000013          	nop
    4f94:	00018313          	mv	t1,gp
    4f98:	00120213          	addi	tp,tp,1 # 1 <boot+0x1>
    4f9c:	00200293          	li	t0,2
    4fa0:	fe5210e3          	bne	tp,t0,4f80 <test_9+0x4>
    4fa4:	f00ffeb7          	lui	t4,0xf00ff
    4fa8:	0ffe8e93          	addi	t4,t4,255 # f00ff0ff <io+0x700ff0ff>
    4fac:	00900e13          	li	t3,9
    4fb0:	0dd31063          	bne	t1,t4,5070 <fail>

00004fb4 <test_10>:
    4fb4:	00000213          	li	tp,0
    4fb8:	0ff010b7          	lui	ra,0xff01
    4fbc:	ff008093          	addi	ra,ra,-16 # ff00ff0 <tdat10+0xfef81d7>
    4fc0:	0f00c193          	xori	gp,ra,240
    4fc4:	00120213          	addi	tp,tp,1 # 1 <boot+0x1>
    4fc8:	00200293          	li	t0,2
    4fcc:	fe5216e3          	bne	tp,t0,4fb8 <test_10+0x4>
    4fd0:	0ff01eb7          	lui	t4,0xff01
    4fd4:	f00e8e93          	addi	t4,t4,-256 # ff00f00 <tdat10+0xfef80e7>
    4fd8:	00a00e13          	li	t3,10
    4fdc:	09d19a63          	bne	gp,t4,5070 <fail>

00004fe0 <test_11>:
    4fe0:	00000213          	li	tp,0
    4fe4:	00ff10b7          	lui	ra,0xff1
    4fe8:	fff08093          	addi	ra,ra,-1 # ff0fff <tdat10+0xfe81e6>
    4fec:	00000013          	nop
    4ff0:	00f0c193          	xori	gp,ra,15
    4ff4:	00120213          	addi	tp,tp,1 # 1 <boot+0x1>
    4ff8:	00200293          	li	t0,2
    4ffc:	fe5214e3          	bne	tp,t0,4fe4 <test_11+0x4>
    5000:	00ff1eb7          	lui	t4,0xff1
    5004:	ff0e8e93          	addi	t4,t4,-16 # ff0ff0 <tdat10+0xfe81d7>
    5008:	00b00e13          	li	t3,11
    500c:	07d19263          	bne	gp,t4,5070 <fail>

00005010 <test_12>:
    5010:	00000213          	li	tp,0
    5014:	f00ff0b7          	lui	ra,0xf00ff
    5018:	00f08093          	addi	ra,ra,15 # f00ff00f <io+0x700ff00f>
    501c:	00000013          	nop
    5020:	00000013          	nop
    5024:	0f00c193          	xori	gp,ra,240
    5028:	00120213          	addi	tp,tp,1 # 1 <boot+0x1>
    502c:	00200293          	li	t0,2
    5030:	fe5212e3          	bne	tp,t0,5014 <test_12+0x4>
    5034:	f00ffeb7          	lui	t4,0xf00ff
    5038:	0ffe8e93          	addi	t4,t4,255 # f00ff0ff <io+0x700ff0ff>
    503c:	00c00e13          	li	t3,12
    5040:	03d19863          	bne	gp,t4,5070 <fail>

00005044 <test_13>:
    5044:	0f004093          	xori	ra,zero,240
    5048:	0f000e93          	li	t4,240
    504c:	00d00e13          	li	t3,13
    5050:	03d09063          	bne	ra,t4,5070 <fail>

00005054 <test_14>:
    5054:	00ff00b7          	lui	ra,0xff0
    5058:	0ff08093          	addi	ra,ra,255 # ff00ff <tdat10+0xfe72e6>
    505c:	70f0c013          	xori	zero,ra,1807
    5060:	00000e93          	li	t4,0
    5064:	00e00e13          	li	t3,14
    5068:	01d01463          	bne	zero,t4,5070 <fail>
    506c:	03c01c63          	bne	zero,t3,50a4 <pass>

00005070 <fail>:
    5070:	8b9fb0ef          	jal	ra,928 <failure>
    5074:	10000537          	lui	a0,0x10000
    5078:	04500593          	li	a1,69
    507c:	05200613          	li	a2,82
    5080:	04f00693          	li	a3,79
    5084:	00a00713          	li	a4,10
    5088:	00b52023          	sw	a1,0(a0) # 10000000 <tdat10+0xfff71e7>
    508c:	00c52023          	sw	a2,0(a0)
    5090:	00c52023          	sw	a2,0(a0)
    5094:	00d52023          	sw	a3,0(a0)
    5098:	00c52023          	sw	a2,0(a0)
    509c:	00e52023          	sw	a4,0(a0)
    50a0:	00100073          	ebreak

000050a4 <pass>:
    50a4:	00009137          	lui	sp,0x9
    50a8:	88dfb0ef          	jal	ra,934 <OK>
    50ac:	00000013          	nop
    50b0:	9c1fb06f          	j	a70 <xori_ret>

000050b4 <bgeu>:
    50b4:	00005537          	lui	a0,0x5
    50b8:	0d450513          	addi	a0,a0,212 # 50d4 <.test_name>

000050bc <loop>:
    50bc:	9d8fb0ef          	jal	ra,294 <putstr>

000050c0 <.prname_next>:
    50c0:	00050583          	lb	a1,0(a0)
    50c4:	00058c63          	beqz	a1,50dc <.prname_done>
    50c8:	00b62023          	sw	a1,0(a2)
    50cc:	00150513          	addi	a0,a0,1
    50d0:	ff1ff06f          	j	50c0 <.prname_next>

000050d4 <.test_name>:
    50d4:	6762                	flw	fa4,24(sp)
    50d6:	7565                	lui	a0,0xffff9
    50d8:	0000                	unimp
	...

000050dc <.prname_done>:
    50dc:	02e00593          	li	a1,46
    50e0:	00b62023          	sw	a1,0(a2)
    50e4:	00b62023          	sw	a1,0(a2)

000050e8 <test_2>:
    50e8:	00200e13          	li	t3,2
    50ec:	00000093          	li	ra,0
    50f0:	00000113          	li	sp,0
    50f4:	0020f663          	bgeu	ra,sp,5100 <test_2+0x18>
    50f8:	35c01263          	bne	zero,t3,543c <fail>
    50fc:	01c01663          	bne	zero,t3,5108 <test_3>
    5100:	fe20fee3          	bgeu	ra,sp,50fc <test_2+0x14>
    5104:	33c01c63          	bne	zero,t3,543c <fail>

00005108 <test_3>:
    5108:	00300e13          	li	t3,3
    510c:	00100093          	li	ra,1
    5110:	00100113          	li	sp,1
    5114:	0020f663          	bgeu	ra,sp,5120 <test_3+0x18>
    5118:	33c01263          	bne	zero,t3,543c <fail>
    511c:	01c01663          	bne	zero,t3,5128 <test_4>
    5120:	fe20fee3          	bgeu	ra,sp,511c <test_3+0x14>
    5124:	31c01c63          	bne	zero,t3,543c <fail>

00005128 <test_4>:
    5128:	00400e13          	li	t3,4
    512c:	fff00093          	li	ra,-1
    5130:	fff00113          	li	sp,-1
    5134:	0020f663          	bgeu	ra,sp,5140 <test_4+0x18>
    5138:	31c01263          	bne	zero,t3,543c <fail>
    513c:	01c01663          	bne	zero,t3,5148 <test_5>
    5140:	fe20fee3          	bgeu	ra,sp,513c <test_4+0x14>
    5144:	2fc01c63          	bne	zero,t3,543c <fail>

00005148 <test_5>:
    5148:	00500e13          	li	t3,5
    514c:	00100093          	li	ra,1
    5150:	00000113          	li	sp,0
    5154:	0020f663          	bgeu	ra,sp,5160 <test_5+0x18>
    5158:	2fc01263          	bne	zero,t3,543c <fail>
    515c:	01c01663          	bne	zero,t3,5168 <test_6>
    5160:	fe20fee3          	bgeu	ra,sp,515c <test_5+0x14>
    5164:	2dc01c63          	bne	zero,t3,543c <fail>

00005168 <test_6>:
    5168:	00600e13          	li	t3,6
    516c:	fff00093          	li	ra,-1
    5170:	ffe00113          	li	sp,-2
    5174:	0020f663          	bgeu	ra,sp,5180 <test_6+0x18>
    5178:	2dc01263          	bne	zero,t3,543c <fail>
    517c:	01c01663          	bne	zero,t3,5188 <test_7>
    5180:	fe20fee3          	bgeu	ra,sp,517c <test_6+0x14>
    5184:	2bc01c63          	bne	zero,t3,543c <fail>

00005188 <test_7>:
    5188:	00700e13          	li	t3,7
    518c:	fff00093          	li	ra,-1
    5190:	00000113          	li	sp,0
    5194:	0020f663          	bgeu	ra,sp,51a0 <test_7+0x18>
    5198:	2bc01263          	bne	zero,t3,543c <fail>
    519c:	01c01663          	bne	zero,t3,51a8 <test_8>
    51a0:	fe20fee3          	bgeu	ra,sp,519c <test_7+0x14>
    51a4:	29c01c63          	bne	zero,t3,543c <fail>

000051a8 <test_8>:
    51a8:	00800e13          	li	t3,8
    51ac:	00000093          	li	ra,0
    51b0:	00100113          	li	sp,1
    51b4:	0020f463          	bgeu	ra,sp,51bc <test_8+0x14>
    51b8:	01c01463          	bne	zero,t3,51c0 <test_8+0x18>
    51bc:	29c01063          	bne	zero,t3,543c <fail>
    51c0:	fe20fee3          	bgeu	ra,sp,51bc <test_8+0x14>

000051c4 <test_9>:
    51c4:	00900e13          	li	t3,9
    51c8:	ffe00093          	li	ra,-2
    51cc:	fff00113          	li	sp,-1
    51d0:	0020f463          	bgeu	ra,sp,51d8 <test_9+0x14>
    51d4:	01c01463          	bne	zero,t3,51dc <test_9+0x18>
    51d8:	27c01263          	bne	zero,t3,543c <fail>
    51dc:	fe20fee3          	bgeu	ra,sp,51d8 <test_9+0x14>

000051e0 <test_10>:
    51e0:	00a00e13          	li	t3,10
    51e4:	00000093          	li	ra,0
    51e8:	fff00113          	li	sp,-1
    51ec:	0020f463          	bgeu	ra,sp,51f4 <test_10+0x14>
    51f0:	01c01463          	bne	zero,t3,51f8 <test_10+0x18>
    51f4:	25c01463          	bne	zero,t3,543c <fail>
    51f8:	fe20fee3          	bgeu	ra,sp,51f4 <test_10+0x14>

000051fc <test_11>:
    51fc:	00b00e13          	li	t3,11
    5200:	800000b7          	lui	ra,0x80000
    5204:	fff08093          	addi	ra,ra,-1 # 7fffffff <io+0xffffffff>
    5208:	80000137          	lui	sp,0x80000
    520c:	0020f463          	bgeu	ra,sp,5214 <test_11+0x18>
    5210:	01c01463          	bne	zero,t3,5218 <test_11+0x1c>
    5214:	23c01463          	bne	zero,t3,543c <fail>
    5218:	fe20fee3          	bgeu	ra,sp,5214 <test_11+0x18>

0000521c <test_12>:
    521c:	00c00e13          	li	t3,12
    5220:	00000213          	li	tp,0
    5224:	f00000b7          	lui	ra,0xf0000
    5228:	fff08093          	addi	ra,ra,-1 # efffffff <io+0x6fffffff>
    522c:	f0000137          	lui	sp,0xf0000
    5230:	2020f663          	bgeu	ra,sp,543c <fail>
    5234:	00120213          	addi	tp,tp,1 # 1 <boot+0x1>
    5238:	00200293          	li	t0,2
    523c:	fe5214e3          	bne	tp,t0,5224 <test_12+0x8>

00005240 <test_13>:
    5240:	00d00e13          	li	t3,13
    5244:	00000213          	li	tp,0
    5248:	f00000b7          	lui	ra,0xf0000
    524c:	fff08093          	addi	ra,ra,-1 # efffffff <io+0x6fffffff>
    5250:	f0000137          	lui	sp,0xf0000
    5254:	00000013          	nop
    5258:	1e20f263          	bgeu	ra,sp,543c <fail>
    525c:	00120213          	addi	tp,tp,1 # 1 <boot+0x1>
    5260:	00200293          	li	t0,2
    5264:	fe5212e3          	bne	tp,t0,5248 <test_13+0x8>

00005268 <test_14>:
    5268:	00e00e13          	li	t3,14
    526c:	00000213          	li	tp,0
    5270:	f00000b7          	lui	ra,0xf0000
    5274:	fff08093          	addi	ra,ra,-1 # efffffff <io+0x6fffffff>
    5278:	f0000137          	lui	sp,0xf0000
    527c:	00000013          	nop
    5280:	00000013          	nop
    5284:	1a20fc63          	bgeu	ra,sp,543c <fail>
    5288:	00120213          	addi	tp,tp,1 # 1 <boot+0x1>
    528c:	00200293          	li	t0,2
    5290:	fe5210e3          	bne	tp,t0,5270 <test_14+0x8>

00005294 <test_15>:
    5294:	00f00e13          	li	t3,15
    5298:	00000213          	li	tp,0
    529c:	f00000b7          	lui	ra,0xf0000
    52a0:	fff08093          	addi	ra,ra,-1 # efffffff <io+0x6fffffff>
    52a4:	00000013          	nop
    52a8:	f0000137          	lui	sp,0xf0000
    52ac:	1820f863          	bgeu	ra,sp,543c <fail>
    52b0:	00120213          	addi	tp,tp,1 # 1 <boot+0x1>
    52b4:	00200293          	li	t0,2
    52b8:	fe5212e3          	bne	tp,t0,529c <test_15+0x8>

000052bc <test_16>:
    52bc:	01000e13          	li	t3,16
    52c0:	00000213          	li	tp,0
    52c4:	f00000b7          	lui	ra,0xf0000
    52c8:	fff08093          	addi	ra,ra,-1 # efffffff <io+0x6fffffff>
    52cc:	00000013          	nop
    52d0:	f0000137          	lui	sp,0xf0000
    52d4:	00000013          	nop
    52d8:	1620f263          	bgeu	ra,sp,543c <fail>
    52dc:	00120213          	addi	tp,tp,1 # 1 <boot+0x1>
    52e0:	00200293          	li	t0,2
    52e4:	fe5210e3          	bne	tp,t0,52c4 <test_16+0x8>

000052e8 <test_17>:
    52e8:	01100e13          	li	t3,17
    52ec:	00000213          	li	tp,0
    52f0:	f00000b7          	lui	ra,0xf0000
    52f4:	fff08093          	addi	ra,ra,-1 # efffffff <io+0x6fffffff>
    52f8:	00000013          	nop
    52fc:	00000013          	nop
    5300:	f0000137          	lui	sp,0xf0000
    5304:	1220fc63          	bgeu	ra,sp,543c <fail>
    5308:	00120213          	addi	tp,tp,1 # 1 <boot+0x1>
    530c:	00200293          	li	t0,2
    5310:	fe5210e3          	bne	tp,t0,52f0 <test_17+0x8>

00005314 <test_18>:
    5314:	01200e13          	li	t3,18
    5318:	00000213          	li	tp,0
    531c:	f00000b7          	lui	ra,0xf0000
    5320:	fff08093          	addi	ra,ra,-1 # efffffff <io+0x6fffffff>
    5324:	f0000137          	lui	sp,0xf0000
    5328:	1020fa63          	bgeu	ra,sp,543c <fail>
    532c:	00120213          	addi	tp,tp,1 # 1 <boot+0x1>
    5330:	00200293          	li	t0,2
    5334:	fe5214e3          	bne	tp,t0,531c <test_18+0x8>

00005338 <test_19>:
    5338:	01300e13          	li	t3,19
    533c:	00000213          	li	tp,0
    5340:	f00000b7          	lui	ra,0xf0000
    5344:	fff08093          	addi	ra,ra,-1 # efffffff <io+0x6fffffff>
    5348:	f0000137          	lui	sp,0xf0000
    534c:	00000013          	nop
    5350:	0e20f663          	bgeu	ra,sp,543c <fail>
    5354:	00120213          	addi	tp,tp,1 # 1 <boot+0x1>
    5358:	00200293          	li	t0,2
    535c:	fe5212e3          	bne	tp,t0,5340 <test_19+0x8>

00005360 <test_20>:
    5360:	01400e13          	li	t3,20
    5364:	00000213          	li	tp,0
    5368:	f00000b7          	lui	ra,0xf0000
    536c:	fff08093          	addi	ra,ra,-1 # efffffff <io+0x6fffffff>
    5370:	f0000137          	lui	sp,0xf0000
    5374:	00000013          	nop
    5378:	00000013          	nop
    537c:	0c20f063          	bgeu	ra,sp,543c <fail>
    5380:	00120213          	addi	tp,tp,1 # 1 <boot+0x1>
    5384:	00200293          	li	t0,2
    5388:	fe5210e3          	bne	tp,t0,5368 <test_20+0x8>

0000538c <test_21>:
    538c:	01500e13          	li	t3,21
    5390:	00000213          	li	tp,0
    5394:	f00000b7          	lui	ra,0xf0000
    5398:	fff08093          	addi	ra,ra,-1 # efffffff <io+0x6fffffff>
    539c:	00000013          	nop
    53a0:	f0000137          	lui	sp,0xf0000
    53a4:	0820fc63          	bgeu	ra,sp,543c <fail>
    53a8:	00120213          	addi	tp,tp,1 # 1 <boot+0x1>
    53ac:	00200293          	li	t0,2
    53b0:	fe5212e3          	bne	tp,t0,5394 <test_21+0x8>

000053b4 <test_22>:
    53b4:	01600e13          	li	t3,22
    53b8:	00000213          	li	tp,0
    53bc:	f00000b7          	lui	ra,0xf0000
    53c0:	fff08093          	addi	ra,ra,-1 # efffffff <io+0x6fffffff>
    53c4:	00000013          	nop
    53c8:	f0000137          	lui	sp,0xf0000
    53cc:	00000013          	nop
    53d0:	0620f663          	bgeu	ra,sp,543c <fail>
    53d4:	00120213          	addi	tp,tp,1 # 1 <boot+0x1>
    53d8:	00200293          	li	t0,2
    53dc:	fe5210e3          	bne	tp,t0,53bc <test_22+0x8>

000053e0 <test_23>:
    53e0:	01700e13          	li	t3,23
    53e4:	00000213          	li	tp,0
    53e8:	f00000b7          	lui	ra,0xf0000
    53ec:	fff08093          	addi	ra,ra,-1 # efffffff <io+0x6fffffff>
    53f0:	00000013          	nop
    53f4:	00000013          	nop
    53f8:	f0000137          	lui	sp,0xf0000
    53fc:	0420f063          	bgeu	ra,sp,543c <fail>
    5400:	00120213          	addi	tp,tp,1 # 1 <boot+0x1>
    5404:	00200293          	li	t0,2
    5408:	fe5210e3          	bne	tp,t0,53e8 <test_23+0x8>

0000540c <test_24>:
    540c:	00100093          	li	ra,1
    5410:	0000fa63          	bgeu	ra,zero,5424 <test_24+0x18>
    5414:	00108093          	addi	ra,ra,1
    5418:	00108093          	addi	ra,ra,1
    541c:	00108093          	addi	ra,ra,1
    5420:	00108093          	addi	ra,ra,1
    5424:	00108093          	addi	ra,ra,1
    5428:	00108093          	addi	ra,ra,1
    542c:	00300e93          	li	t4,3
    5430:	01800e13          	li	t3,24
    5434:	01d09463          	bne	ra,t4,543c <fail>
    5438:	03c01c63          	bne	zero,t3,5470 <pass>

0000543c <fail>:
    543c:	cecfb0ef          	jal	ra,928 <failure>
    5440:	10000537          	lui	a0,0x10000
    5444:	04500593          	li	a1,69
    5448:	05200613          	li	a2,82
    544c:	04f00693          	li	a3,79
    5450:	00a00713          	li	a4,10
    5454:	00b52023          	sw	a1,0(a0) # 10000000 <tdat10+0xfff71e7>
    5458:	00c52023          	sw	a2,0(a0)
    545c:	00c52023          	sw	a2,0(a0)
    5460:	00d52023          	sw	a3,0(a0)
    5464:	00c52023          	sw	a2,0(a0)
    5468:	00e52023          	sw	a4,0(a0)
    546c:	00100073          	ebreak

00005470 <pass>:
    5470:	00009137          	lui	sp,0x9
    5474:	cc0fb0ef          	jal	ra,934 <OK>
    5478:	00000013          	nop
    547c:	d9cfb06f          	j	a18 <bgeu_ret>

00005480 <srl>:
    5480:	00005537          	lui	a0,0x5
    5484:	4a050513          	addi	a0,a0,1184 # 54a0 <.test_name>

00005488 <loop>:
    5488:	e0dfa0ef          	jal	ra,294 <putstr>

0000548c <.prname_next>:
    548c:	00050583          	lb	a1,0(a0)
    5490:	00058a63          	beqz	a1,54a4 <.prname_done>
    5494:	00b62023          	sw	a1,0(a2)
    5498:	00150513          	addi	a0,a0,1
    549c:	ff1ff06f          	j	548c <.prname_next>

000054a0 <.test_name>:
    54a0:	006c7273          	csrrci	tp,0x6,24

000054a4 <.prname_done>:
    54a4:	02e00593          	li	a1,46
    54a8:	00b62023          	sw	a1,0(a2)
    54ac:	00b62023          	sw	a1,0(a2)

000054b0 <test_2>:
    54b0:	ffff80b7          	lui	ra,0xffff8
    54b4:	00000113          	li	sp,0
    54b8:	0020d1b3          	srl	gp,ra,sp
    54bc:	ffff8eb7          	lui	t4,0xffff8
    54c0:	00200e13          	li	t3,2
    54c4:	5bd19463          	bne	gp,t4,5a6c <fail>

000054c8 <test_3>:
    54c8:	ffff80b7          	lui	ra,0xffff8
    54cc:	00100113          	li	sp,1
    54d0:	0020d1b3          	srl	gp,ra,sp
    54d4:	7fffceb7          	lui	t4,0x7fffc
    54d8:	00300e13          	li	t3,3
    54dc:	59d19863          	bne	gp,t4,5a6c <fail>

000054e0 <test_4>:
    54e0:	ffff80b7          	lui	ra,0xffff8
    54e4:	00700113          	li	sp,7
    54e8:	0020d1b3          	srl	gp,ra,sp
    54ec:	02000eb7          	lui	t4,0x2000
    54f0:	f00e8e93          	addi	t4,t4,-256 # 1ffff00 <tdat10+0x1ff70e7>
    54f4:	00400e13          	li	t3,4
    54f8:	57d19a63          	bne	gp,t4,5a6c <fail>

000054fc <test_5>:
    54fc:	ffff80b7          	lui	ra,0xffff8
    5500:	00e00113          	li	sp,14
    5504:	0020d1b3          	srl	gp,ra,sp
    5508:	00040eb7          	lui	t4,0x40
    550c:	ffee8e93          	addi	t4,t4,-2 # 3fffe <tdat10+0x371e5>
    5510:	00500e13          	li	t3,5
    5514:	55d19c63          	bne	gp,t4,5a6c <fail>

00005518 <test_6>:
    5518:	ffff80b7          	lui	ra,0xffff8
    551c:	00108093          	addi	ra,ra,1 # ffff8001 <io+0x7fff8001>
    5520:	00f00113          	li	sp,15
    5524:	0020d1b3          	srl	gp,ra,sp
    5528:	00020eb7          	lui	t4,0x20
    552c:	fffe8e93          	addi	t4,t4,-1 # 1ffff <tdat10+0x171e6>
    5530:	00600e13          	li	t3,6
    5534:	53d19c63          	bne	gp,t4,5a6c <fail>

00005538 <test_7>:
    5538:	fff00093          	li	ra,-1
    553c:	00000113          	li	sp,0
    5540:	0020d1b3          	srl	gp,ra,sp
    5544:	fff00e93          	li	t4,-1
    5548:	00700e13          	li	t3,7
    554c:	53d19063          	bne	gp,t4,5a6c <fail>

00005550 <test_8>:
    5550:	fff00093          	li	ra,-1
    5554:	00100113          	li	sp,1
    5558:	0020d1b3          	srl	gp,ra,sp
    555c:	80000eb7          	lui	t4,0x80000
    5560:	fffe8e93          	addi	t4,t4,-1 # 7fffffff <io+0xffffffff>
    5564:	00800e13          	li	t3,8
    5568:	51d19263          	bne	gp,t4,5a6c <fail>

0000556c <test_9>:
    556c:	fff00093          	li	ra,-1
    5570:	00700113          	li	sp,7
    5574:	0020d1b3          	srl	gp,ra,sp
    5578:	02000eb7          	lui	t4,0x2000
    557c:	fffe8e93          	addi	t4,t4,-1 # 1ffffff <tdat10+0x1ff71e6>
    5580:	00900e13          	li	t3,9
    5584:	4fd19463          	bne	gp,t4,5a6c <fail>

00005588 <test_10>:
    5588:	fff00093          	li	ra,-1
    558c:	00e00113          	li	sp,14
    5590:	0020d1b3          	srl	gp,ra,sp
    5594:	00040eb7          	lui	t4,0x40
    5598:	fffe8e93          	addi	t4,t4,-1 # 3ffff <tdat10+0x371e6>
    559c:	00a00e13          	li	t3,10
    55a0:	4dd19663          	bne	gp,t4,5a6c <fail>

000055a4 <test_11>:
    55a4:	fff00093          	li	ra,-1
    55a8:	01f00113          	li	sp,31
    55ac:	0020d1b3          	srl	gp,ra,sp
    55b0:	00100e93          	li	t4,1
    55b4:	00b00e13          	li	t3,11
    55b8:	4bd19a63          	bne	gp,t4,5a6c <fail>

000055bc <test_12>:
    55bc:	212120b7          	lui	ra,0x21212
    55c0:	12108093          	addi	ra,ra,289 # 21212121 <tdat10+0x21209308>
    55c4:	00000113          	li	sp,0
    55c8:	0020d1b3          	srl	gp,ra,sp
    55cc:	21212eb7          	lui	t4,0x21212
    55d0:	121e8e93          	addi	t4,t4,289 # 21212121 <tdat10+0x21209308>
    55d4:	00c00e13          	li	t3,12
    55d8:	49d19a63          	bne	gp,t4,5a6c <fail>

000055dc <test_13>:
    55dc:	212120b7          	lui	ra,0x21212
    55e0:	12108093          	addi	ra,ra,289 # 21212121 <tdat10+0x21209308>
    55e4:	00100113          	li	sp,1
    55e8:	0020d1b3          	srl	gp,ra,sp
    55ec:	10909eb7          	lui	t4,0x10909
    55f0:	090e8e93          	addi	t4,t4,144 # 10909090 <tdat10+0x10900277>
    55f4:	00d00e13          	li	t3,13
    55f8:	47d19a63          	bne	gp,t4,5a6c <fail>

000055fc <test_14>:
    55fc:	212120b7          	lui	ra,0x21212
    5600:	12108093          	addi	ra,ra,289 # 21212121 <tdat10+0x21209308>
    5604:	00700113          	li	sp,7
    5608:	0020d1b3          	srl	gp,ra,sp
    560c:	00424eb7          	lui	t4,0x424
    5610:	242e8e93          	addi	t4,t4,578 # 424242 <tdat10+0x41b429>
    5614:	00e00e13          	li	t3,14
    5618:	45d19a63          	bne	gp,t4,5a6c <fail>

0000561c <test_15>:
    561c:	212120b7          	lui	ra,0x21212
    5620:	12108093          	addi	ra,ra,289 # 21212121 <tdat10+0x21209308>
    5624:	00e00113          	li	sp,14
    5628:	0020d1b3          	srl	gp,ra,sp
    562c:	00008eb7          	lui	t4,0x8
    5630:	484e8e93          	addi	t4,t4,1156 # 8484 <test_22>
    5634:	00f00e13          	li	t3,15
    5638:	43d19a63          	bne	gp,t4,5a6c <fail>

0000563c <test_16>:
    563c:	212120b7          	lui	ra,0x21212
    5640:	12108093          	addi	ra,ra,289 # 21212121 <tdat10+0x21209308>
    5644:	01f00113          	li	sp,31
    5648:	0020d1b3          	srl	gp,ra,sp
    564c:	00000e93          	li	t4,0
    5650:	01000e13          	li	t3,16
    5654:	41d19c63          	bne	gp,t4,5a6c <fail>

00005658 <test_17>:
    5658:	212120b7          	lui	ra,0x21212
    565c:	12108093          	addi	ra,ra,289 # 21212121 <tdat10+0x21209308>
    5660:	fe000113          	li	sp,-32
    5664:	0020d1b3          	srl	gp,ra,sp
    5668:	21212eb7          	lui	t4,0x21212
    566c:	121e8e93          	addi	t4,t4,289 # 21212121 <tdat10+0x21209308>
    5670:	01100e13          	li	t3,17
    5674:	3fd19c63          	bne	gp,t4,5a6c <fail>

00005678 <test_18>:
    5678:	212120b7          	lui	ra,0x21212
    567c:	12108093          	addi	ra,ra,289 # 21212121 <tdat10+0x21209308>
    5680:	fe100113          	li	sp,-31
    5684:	0020d1b3          	srl	gp,ra,sp
    5688:	10909eb7          	lui	t4,0x10909
    568c:	090e8e93          	addi	t4,t4,144 # 10909090 <tdat10+0x10900277>
    5690:	01200e13          	li	t3,18
    5694:	3dd19c63          	bne	gp,t4,5a6c <fail>

00005698 <test_19>:
    5698:	212120b7          	lui	ra,0x21212
    569c:	12108093          	addi	ra,ra,289 # 21212121 <tdat10+0x21209308>
    56a0:	fe700113          	li	sp,-25
    56a4:	0020d1b3          	srl	gp,ra,sp
    56a8:	00424eb7          	lui	t4,0x424
    56ac:	242e8e93          	addi	t4,t4,578 # 424242 <tdat10+0x41b429>
    56b0:	01300e13          	li	t3,19
    56b4:	3bd19c63          	bne	gp,t4,5a6c <fail>

000056b8 <test_20>:
    56b8:	212120b7          	lui	ra,0x21212
    56bc:	12108093          	addi	ra,ra,289 # 21212121 <tdat10+0x21209308>
    56c0:	fee00113          	li	sp,-18
    56c4:	0020d1b3          	srl	gp,ra,sp
    56c8:	00008eb7          	lui	t4,0x8
    56cc:	484e8e93          	addi	t4,t4,1156 # 8484 <test_22>
    56d0:	01400e13          	li	t3,20
    56d4:	39d19c63          	bne	gp,t4,5a6c <fail>

000056d8 <test_21>:
    56d8:	212120b7          	lui	ra,0x21212
    56dc:	12108093          	addi	ra,ra,289 # 21212121 <tdat10+0x21209308>
    56e0:	fff00113          	li	sp,-1
    56e4:	0020d1b3          	srl	gp,ra,sp
    56e8:	00000e93          	li	t4,0
    56ec:	01500e13          	li	t3,21
    56f0:	37d19e63          	bne	gp,t4,5a6c <fail>

000056f4 <test_22>:
    56f4:	ffff80b7          	lui	ra,0xffff8
    56f8:	00100113          	li	sp,1
    56fc:	0020d0b3          	srl	ra,ra,sp
    5700:	7fffceb7          	lui	t4,0x7fffc
    5704:	01600e13          	li	t3,22
    5708:	37d09263          	bne	ra,t4,5a6c <fail>

0000570c <test_23>:
    570c:	ffff80b7          	lui	ra,0xffff8
    5710:	00e00113          	li	sp,14
    5714:	0020d133          	srl	sp,ra,sp
    5718:	00040eb7          	lui	t4,0x40
    571c:	ffee8e93          	addi	t4,t4,-2 # 3fffe <tdat10+0x371e5>
    5720:	01700e13          	li	t3,23
    5724:	35d11463          	bne	sp,t4,5a6c <fail>

00005728 <test_24>:
    5728:	00700093          	li	ra,7
    572c:	0010d0b3          	srl	ra,ra,ra
    5730:	00000e93          	li	t4,0
    5734:	01800e13          	li	t3,24
    5738:	33d09a63          	bne	ra,t4,5a6c <fail>

0000573c <test_25>:
    573c:	00000213          	li	tp,0
    5740:	ffff80b7          	lui	ra,0xffff8
    5744:	00100113          	li	sp,1
    5748:	0020d1b3          	srl	gp,ra,sp
    574c:	00018313          	mv	t1,gp
    5750:	00120213          	addi	tp,tp,1 # 1 <boot+0x1>
    5754:	00200293          	li	t0,2
    5758:	fe5214e3          	bne	tp,t0,5740 <test_25+0x4>
    575c:	7fffceb7          	lui	t4,0x7fffc
    5760:	01900e13          	li	t3,25
    5764:	31d31463          	bne	t1,t4,5a6c <fail>

00005768 <test_26>:
    5768:	00000213          	li	tp,0
    576c:	ffff80b7          	lui	ra,0xffff8
    5770:	00e00113          	li	sp,14
    5774:	0020d1b3          	srl	gp,ra,sp
    5778:	00000013          	nop
    577c:	00018313          	mv	t1,gp
    5780:	00120213          	addi	tp,tp,1 # 1 <boot+0x1>
    5784:	00200293          	li	t0,2
    5788:	fe5212e3          	bne	tp,t0,576c <test_26+0x4>
    578c:	00040eb7          	lui	t4,0x40
    5790:	ffee8e93          	addi	t4,t4,-2 # 3fffe <tdat10+0x371e5>
    5794:	01a00e13          	li	t3,26
    5798:	2dd31a63          	bne	t1,t4,5a6c <fail>

0000579c <test_27>:
    579c:	00000213          	li	tp,0
    57a0:	ffff80b7          	lui	ra,0xffff8
    57a4:	00f00113          	li	sp,15
    57a8:	0020d1b3          	srl	gp,ra,sp
    57ac:	00000013          	nop
    57b0:	00000013          	nop
    57b4:	00018313          	mv	t1,gp
    57b8:	00120213          	addi	tp,tp,1 # 1 <boot+0x1>
    57bc:	00200293          	li	t0,2
    57c0:	fe5210e3          	bne	tp,t0,57a0 <test_27+0x4>
    57c4:	00020eb7          	lui	t4,0x20
    57c8:	fffe8e93          	addi	t4,t4,-1 # 1ffff <tdat10+0x171e6>
    57cc:	01b00e13          	li	t3,27
    57d0:	29d31e63          	bne	t1,t4,5a6c <fail>

000057d4 <test_28>:
    57d4:	00000213          	li	tp,0
    57d8:	ffff80b7          	lui	ra,0xffff8
    57dc:	00100113          	li	sp,1
    57e0:	0020d1b3          	srl	gp,ra,sp
    57e4:	00120213          	addi	tp,tp,1 # 1 <boot+0x1>
    57e8:	00200293          	li	t0,2
    57ec:	fe5216e3          	bne	tp,t0,57d8 <test_28+0x4>
    57f0:	7fffceb7          	lui	t4,0x7fffc
    57f4:	01c00e13          	li	t3,28
    57f8:	27d19a63          	bne	gp,t4,5a6c <fail>

000057fc <test_29>:
    57fc:	00000213          	li	tp,0
    5800:	ffff80b7          	lui	ra,0xffff8
    5804:	00700113          	li	sp,7
    5808:	00000013          	nop
    580c:	0020d1b3          	srl	gp,ra,sp
    5810:	00120213          	addi	tp,tp,1 # 1 <boot+0x1>
    5814:	00200293          	li	t0,2
    5818:	fe5214e3          	bne	tp,t0,5800 <test_29+0x4>
    581c:	02000eb7          	lui	t4,0x2000
    5820:	f00e8e93          	addi	t4,t4,-256 # 1ffff00 <tdat10+0x1ff70e7>
    5824:	01d00e13          	li	t3,29
    5828:	25d19263          	bne	gp,t4,5a6c <fail>

0000582c <test_30>:
    582c:	00000213          	li	tp,0
    5830:	ffff80b7          	lui	ra,0xffff8
    5834:	00f00113          	li	sp,15
    5838:	00000013          	nop
    583c:	00000013          	nop
    5840:	0020d1b3          	srl	gp,ra,sp
    5844:	00120213          	addi	tp,tp,1 # 1 <boot+0x1>
    5848:	00200293          	li	t0,2
    584c:	fe5212e3          	bne	tp,t0,5830 <test_30+0x4>
    5850:	00020eb7          	lui	t4,0x20
    5854:	fffe8e93          	addi	t4,t4,-1 # 1ffff <tdat10+0x171e6>
    5858:	01e00e13          	li	t3,30
    585c:	21d19863          	bne	gp,t4,5a6c <fail>

00005860 <test_31>:
    5860:	00000213          	li	tp,0
    5864:	ffff80b7          	lui	ra,0xffff8
    5868:	00000013          	nop
    586c:	00100113          	li	sp,1
    5870:	0020d1b3          	srl	gp,ra,sp
    5874:	00120213          	addi	tp,tp,1 # 1 <boot+0x1>
    5878:	00200293          	li	t0,2
    587c:	fe5214e3          	bne	tp,t0,5864 <test_31+0x4>
    5880:	7fffceb7          	lui	t4,0x7fffc
    5884:	01f00e13          	li	t3,31
    5888:	1fd19263          	bne	gp,t4,5a6c <fail>

0000588c <test_32>:
    588c:	00000213          	li	tp,0
    5890:	ffff80b7          	lui	ra,0xffff8
    5894:	00000013          	nop
    5898:	00700113          	li	sp,7
    589c:	00000013          	nop
    58a0:	0020d1b3          	srl	gp,ra,sp
    58a4:	00120213          	addi	tp,tp,1 # 1 <boot+0x1>
    58a8:	00200293          	li	t0,2
    58ac:	fe5212e3          	bne	tp,t0,5890 <test_32+0x4>
    58b0:	02000eb7          	lui	t4,0x2000
    58b4:	f00e8e93          	addi	t4,t4,-256 # 1ffff00 <tdat10+0x1ff70e7>
    58b8:	02000e13          	li	t3,32
    58bc:	1bd19863          	bne	gp,t4,5a6c <fail>

000058c0 <test_33>:
    58c0:	00000213          	li	tp,0
    58c4:	ffff80b7          	lui	ra,0xffff8
    58c8:	00000013          	nop
    58cc:	00000013          	nop
    58d0:	00f00113          	li	sp,15
    58d4:	0020d1b3          	srl	gp,ra,sp
    58d8:	00120213          	addi	tp,tp,1 # 1 <boot+0x1>
    58dc:	00200293          	li	t0,2
    58e0:	fe5212e3          	bne	tp,t0,58c4 <test_33+0x4>
    58e4:	00020eb7          	lui	t4,0x20
    58e8:	fffe8e93          	addi	t4,t4,-1 # 1ffff <tdat10+0x171e6>
    58ec:	02100e13          	li	t3,33
    58f0:	17d19e63          	bne	gp,t4,5a6c <fail>

000058f4 <test_34>:
    58f4:	00000213          	li	tp,0
    58f8:	00100113          	li	sp,1
    58fc:	ffff80b7          	lui	ra,0xffff8
    5900:	0020d1b3          	srl	gp,ra,sp
    5904:	00120213          	addi	tp,tp,1 # 1 <boot+0x1>
    5908:	00200293          	li	t0,2
    590c:	fe5216e3          	bne	tp,t0,58f8 <test_34+0x4>
    5910:	7fffceb7          	lui	t4,0x7fffc
    5914:	02200e13          	li	t3,34
    5918:	15d19a63          	bne	gp,t4,5a6c <fail>

0000591c <test_35>:
    591c:	00000213          	li	tp,0
    5920:	00700113          	li	sp,7
    5924:	ffff80b7          	lui	ra,0xffff8
    5928:	00000013          	nop
    592c:	0020d1b3          	srl	gp,ra,sp
    5930:	00120213          	addi	tp,tp,1 # 1 <boot+0x1>
    5934:	00200293          	li	t0,2
    5938:	fe5214e3          	bne	tp,t0,5920 <test_35+0x4>
    593c:	02000eb7          	lui	t4,0x2000
    5940:	f00e8e93          	addi	t4,t4,-256 # 1ffff00 <tdat10+0x1ff70e7>
    5944:	02300e13          	li	t3,35
    5948:	13d19263          	bne	gp,t4,5a6c <fail>

0000594c <test_36>:
    594c:	00000213          	li	tp,0
    5950:	00f00113          	li	sp,15
    5954:	ffff80b7          	lui	ra,0xffff8
    5958:	00000013          	nop
    595c:	00000013          	nop
    5960:	0020d1b3          	srl	gp,ra,sp
    5964:	00120213          	addi	tp,tp,1 # 1 <boot+0x1>
    5968:	00200293          	li	t0,2
    596c:	fe5212e3          	bne	tp,t0,5950 <test_36+0x4>
    5970:	00020eb7          	lui	t4,0x20
    5974:	fffe8e93          	addi	t4,t4,-1 # 1ffff <tdat10+0x171e6>
    5978:	02400e13          	li	t3,36
    597c:	0fd19863          	bne	gp,t4,5a6c <fail>

00005980 <test_37>:
    5980:	00000213          	li	tp,0
    5984:	00100113          	li	sp,1
    5988:	00000013          	nop
    598c:	ffff80b7          	lui	ra,0xffff8
    5990:	0020d1b3          	srl	gp,ra,sp
    5994:	00120213          	addi	tp,tp,1 # 1 <boot+0x1>
    5998:	00200293          	li	t0,2
    599c:	fe5214e3          	bne	tp,t0,5984 <test_37+0x4>
    59a0:	7fffceb7          	lui	t4,0x7fffc
    59a4:	02500e13          	li	t3,37
    59a8:	0dd19263          	bne	gp,t4,5a6c <fail>

000059ac <test_38>:
    59ac:	00000213          	li	tp,0
    59b0:	00700113          	li	sp,7
    59b4:	00000013          	nop
    59b8:	ffff80b7          	lui	ra,0xffff8
    59bc:	00000013          	nop
    59c0:	0020d1b3          	srl	gp,ra,sp
    59c4:	00120213          	addi	tp,tp,1 # 1 <boot+0x1>
    59c8:	00200293          	li	t0,2
    59cc:	fe5212e3          	bne	tp,t0,59b0 <test_38+0x4>
    59d0:	02000eb7          	lui	t4,0x2000
    59d4:	f00e8e93          	addi	t4,t4,-256 # 1ffff00 <tdat10+0x1ff70e7>
    59d8:	02600e13          	li	t3,38
    59dc:	09d19863          	bne	gp,t4,5a6c <fail>

000059e0 <test_39>:
    59e0:	00000213          	li	tp,0
    59e4:	00f00113          	li	sp,15
    59e8:	00000013          	nop
    59ec:	00000013          	nop
    59f0:	ffff80b7          	lui	ra,0xffff8
    59f4:	0020d1b3          	srl	gp,ra,sp
    59f8:	00120213          	addi	tp,tp,1 # 1 <boot+0x1>
    59fc:	00200293          	li	t0,2
    5a00:	fe5212e3          	bne	tp,t0,59e4 <test_39+0x4>
    5a04:	00020eb7          	lui	t4,0x20
    5a08:	fffe8e93          	addi	t4,t4,-1 # 1ffff <tdat10+0x171e6>
    5a0c:	02700e13          	li	t3,39
    5a10:	05d19e63          	bne	gp,t4,5a6c <fail>

00005a14 <test_40>:
    5a14:	00f00093          	li	ra,15
    5a18:	00105133          	srl	sp,zero,ra
    5a1c:	00000e93          	li	t4,0
    5a20:	02800e13          	li	t3,40
    5a24:	05d11463          	bne	sp,t4,5a6c <fail>

00005a28 <test_41>:
    5a28:	02000093          	li	ra,32
    5a2c:	0000d133          	srl	sp,ra,zero
    5a30:	02000e93          	li	t4,32
    5a34:	02900e13          	li	t3,41
    5a38:	03d11a63          	bne	sp,t4,5a6c <fail>

00005a3c <test_42>:
    5a3c:	000050b3          	srl	ra,zero,zero
    5a40:	00000e93          	li	t4,0
    5a44:	02a00e13          	li	t3,42
    5a48:	03d09263          	bne	ra,t4,5a6c <fail>

00005a4c <test_43>:
    5a4c:	40000093          	li	ra,1024
    5a50:	00001137          	lui	sp,0x1
    5a54:	80010113          	addi	sp,sp,-2048 # 800 <__div_mod_si3+0x4c>
    5a58:	0020d033          	srl	zero,ra,sp
    5a5c:	00000e93          	li	t4,0
    5a60:	02b00e13          	li	t3,43
    5a64:	01d01463          	bne	zero,t4,5a6c <fail>
    5a68:	03c01c63          	bne	zero,t3,5aa0 <pass>

00005a6c <fail>:
    5a6c:	ebdfa0ef          	jal	ra,928 <failure>
    5a70:	10000537          	lui	a0,0x10000
    5a74:	04500593          	li	a1,69
    5a78:	05200613          	li	a2,82
    5a7c:	04f00693          	li	a3,79
    5a80:	00a00713          	li	a4,10
    5a84:	00b52023          	sw	a1,0(a0) # 10000000 <tdat10+0xfff71e7>
    5a88:	00c52023          	sw	a2,0(a0)
    5a8c:	00c52023          	sw	a2,0(a0)
    5a90:	00d52023          	sw	a3,0(a0)
    5a94:	00c52023          	sw	a2,0(a0)
    5a98:	00e52023          	sw	a4,0(a0)
    5a9c:	00100073          	ebreak

00005aa0 <pass>:
    5aa0:	00009137          	lui	sp,0x9
    5aa4:	e91fa0ef          	jal	ra,934 <OK>
    5aa8:	00000013          	nop
    5aac:	81cfb06f          	j	ac8 <srl_ret>

00005ab0 <slt>:
    5ab0:	00006537          	lui	a0,0x6
    5ab4:	ad050513          	addi	a0,a0,-1328 # 5ad0 <.test_name>

00005ab8 <loop>:
    5ab8:	fdcfa0ef          	jal	ra,294 <putstr>

00005abc <.prname_next>:
    5abc:	00050583          	lb	a1,0(a0)
    5ac0:	00058a63          	beqz	a1,5ad4 <.prname_done>
    5ac4:	00b62023          	sw	a1,0(a2)
    5ac8:	00150513          	addi	a0,a0,1
    5acc:	ff1ff06f          	j	5abc <.prname_next>

00005ad0 <.test_name>:
    5ad0:	00746c73          	csrrsi	s8,0x7,8

00005ad4 <.prname_done>:
    5ad4:	02e00593          	li	a1,46
    5ad8:	00b62023          	sw	a1,0(a2)
    5adc:	00b62023          	sw	a1,0(a2)

00005ae0 <test_2>:
    5ae0:	00000093          	li	ra,0
    5ae4:	00000113          	li	sp,0
    5ae8:	0020a1b3          	slt	gp,ra,sp
    5aec:	00000e93          	li	t4,0
    5af0:	00200e13          	li	t3,2
    5af4:	4bd19a63          	bne	gp,t4,5fa8 <fail>

00005af8 <test_3>:
    5af8:	00100093          	li	ra,1
    5afc:	00100113          	li	sp,1
    5b00:	0020a1b3          	slt	gp,ra,sp
    5b04:	00000e93          	li	t4,0
    5b08:	00300e13          	li	t3,3
    5b0c:	49d19e63          	bne	gp,t4,5fa8 <fail>

00005b10 <test_4>:
    5b10:	00300093          	li	ra,3
    5b14:	00700113          	li	sp,7
    5b18:	0020a1b3          	slt	gp,ra,sp
    5b1c:	00100e93          	li	t4,1
    5b20:	00400e13          	li	t3,4
    5b24:	49d19263          	bne	gp,t4,5fa8 <fail>

00005b28 <test_5>:
    5b28:	00700093          	li	ra,7
    5b2c:	00300113          	li	sp,3
    5b30:	0020a1b3          	slt	gp,ra,sp
    5b34:	00000e93          	li	t4,0
    5b38:	00500e13          	li	t3,5
    5b3c:	47d19663          	bne	gp,t4,5fa8 <fail>

00005b40 <test_6>:
    5b40:	00000093          	li	ra,0
    5b44:	ffff8137          	lui	sp,0xffff8
    5b48:	0020a1b3          	slt	gp,ra,sp
    5b4c:	00000e93          	li	t4,0
    5b50:	00600e13          	li	t3,6
    5b54:	45d19a63          	bne	gp,t4,5fa8 <fail>

00005b58 <test_7>:
    5b58:	800000b7          	lui	ra,0x80000
    5b5c:	00000113          	li	sp,0
    5b60:	0020a1b3          	slt	gp,ra,sp
    5b64:	00100e93          	li	t4,1
    5b68:	00700e13          	li	t3,7
    5b6c:	43d19e63          	bne	gp,t4,5fa8 <fail>

00005b70 <test_8>:
    5b70:	800000b7          	lui	ra,0x80000
    5b74:	ffff8137          	lui	sp,0xffff8
    5b78:	0020a1b3          	slt	gp,ra,sp
    5b7c:	00100e93          	li	t4,1
    5b80:	00800e13          	li	t3,8
    5b84:	43d19263          	bne	gp,t4,5fa8 <fail>

00005b88 <test_9>:
    5b88:	00000093          	li	ra,0
    5b8c:	00008137          	lui	sp,0x8
    5b90:	fff10113          	addi	sp,sp,-1 # 7fff <test_9+0x27>
    5b94:	0020a1b3          	slt	gp,ra,sp
    5b98:	00100e93          	li	t4,1
    5b9c:	00900e13          	li	t3,9
    5ba0:	41d19463          	bne	gp,t4,5fa8 <fail>

00005ba4 <test_10>:
    5ba4:	800000b7          	lui	ra,0x80000
    5ba8:	fff08093          	addi	ra,ra,-1 # 7fffffff <io+0xffffffff>
    5bac:	00000113          	li	sp,0
    5bb0:	0020a1b3          	slt	gp,ra,sp
    5bb4:	00000e93          	li	t4,0
    5bb8:	00a00e13          	li	t3,10
    5bbc:	3fd19663          	bne	gp,t4,5fa8 <fail>

00005bc0 <test_11>:
    5bc0:	800000b7          	lui	ra,0x80000
    5bc4:	fff08093          	addi	ra,ra,-1 # 7fffffff <io+0xffffffff>
    5bc8:	00008137          	lui	sp,0x8
    5bcc:	fff10113          	addi	sp,sp,-1 # 7fff <test_9+0x27>
    5bd0:	0020a1b3          	slt	gp,ra,sp
    5bd4:	00000e93          	li	t4,0
    5bd8:	00b00e13          	li	t3,11
    5bdc:	3dd19663          	bne	gp,t4,5fa8 <fail>

00005be0 <test_12>:
    5be0:	800000b7          	lui	ra,0x80000
    5be4:	00008137          	lui	sp,0x8
    5be8:	fff10113          	addi	sp,sp,-1 # 7fff <test_9+0x27>
    5bec:	0020a1b3          	slt	gp,ra,sp
    5bf0:	00100e93          	li	t4,1
    5bf4:	00c00e13          	li	t3,12
    5bf8:	3bd19863          	bne	gp,t4,5fa8 <fail>

00005bfc <test_13>:
    5bfc:	800000b7          	lui	ra,0x80000
    5c00:	fff08093          	addi	ra,ra,-1 # 7fffffff <io+0xffffffff>
    5c04:	ffff8137          	lui	sp,0xffff8
    5c08:	0020a1b3          	slt	gp,ra,sp
    5c0c:	00000e93          	li	t4,0
    5c10:	00d00e13          	li	t3,13
    5c14:	39d19a63          	bne	gp,t4,5fa8 <fail>

00005c18 <test_14>:
    5c18:	00000093          	li	ra,0
    5c1c:	fff00113          	li	sp,-1
    5c20:	0020a1b3          	slt	gp,ra,sp
    5c24:	00000e93          	li	t4,0
    5c28:	00e00e13          	li	t3,14
    5c2c:	37d19e63          	bne	gp,t4,5fa8 <fail>

00005c30 <test_15>:
    5c30:	fff00093          	li	ra,-1
    5c34:	00100113          	li	sp,1
    5c38:	0020a1b3          	slt	gp,ra,sp
    5c3c:	00100e93          	li	t4,1
    5c40:	00f00e13          	li	t3,15
    5c44:	37d19263          	bne	gp,t4,5fa8 <fail>

00005c48 <test_16>:
    5c48:	fff00093          	li	ra,-1
    5c4c:	fff00113          	li	sp,-1
    5c50:	0020a1b3          	slt	gp,ra,sp
    5c54:	00000e93          	li	t4,0
    5c58:	01000e13          	li	t3,16
    5c5c:	35d19663          	bne	gp,t4,5fa8 <fail>

00005c60 <test_17>:
    5c60:	00e00093          	li	ra,14
    5c64:	00d00113          	li	sp,13
    5c68:	0020a0b3          	slt	ra,ra,sp
    5c6c:	00000e93          	li	t4,0
    5c70:	01100e13          	li	t3,17
    5c74:	33d09a63          	bne	ra,t4,5fa8 <fail>

00005c78 <test_18>:
    5c78:	00b00093          	li	ra,11
    5c7c:	00d00113          	li	sp,13
    5c80:	0020a133          	slt	sp,ra,sp
    5c84:	00100e93          	li	t4,1
    5c88:	01200e13          	li	t3,18
    5c8c:	31d11e63          	bne	sp,t4,5fa8 <fail>

00005c90 <test_19>:
    5c90:	00d00093          	li	ra,13
    5c94:	0010a0b3          	slt	ra,ra,ra
    5c98:	00000e93          	li	t4,0
    5c9c:	01300e13          	li	t3,19
    5ca0:	31d09463          	bne	ra,t4,5fa8 <fail>

00005ca4 <test_20>:
    5ca4:	00000213          	li	tp,0
    5ca8:	00b00093          	li	ra,11
    5cac:	00d00113          	li	sp,13
    5cb0:	0020a1b3          	slt	gp,ra,sp
    5cb4:	00018313          	mv	t1,gp
    5cb8:	00120213          	addi	tp,tp,1 # 1 <boot+0x1>
    5cbc:	00200293          	li	t0,2
    5cc0:	fe5214e3          	bne	tp,t0,5ca8 <test_20+0x4>
    5cc4:	00100e93          	li	t4,1
    5cc8:	01400e13          	li	t3,20
    5ccc:	2dd31e63          	bne	t1,t4,5fa8 <fail>

00005cd0 <test_21>:
    5cd0:	00000213          	li	tp,0
    5cd4:	00e00093          	li	ra,14
    5cd8:	00d00113          	li	sp,13
    5cdc:	0020a1b3          	slt	gp,ra,sp
    5ce0:	00000013          	nop
    5ce4:	00018313          	mv	t1,gp
    5ce8:	00120213          	addi	tp,tp,1 # 1 <boot+0x1>
    5cec:	00200293          	li	t0,2
    5cf0:	fe5212e3          	bne	tp,t0,5cd4 <test_21+0x4>
    5cf4:	00000e93          	li	t4,0
    5cf8:	01500e13          	li	t3,21
    5cfc:	2bd31663          	bne	t1,t4,5fa8 <fail>

00005d00 <test_22>:
    5d00:	00000213          	li	tp,0
    5d04:	00c00093          	li	ra,12
    5d08:	00d00113          	li	sp,13
    5d0c:	0020a1b3          	slt	gp,ra,sp
    5d10:	00000013          	nop
    5d14:	00000013          	nop
    5d18:	00018313          	mv	t1,gp
    5d1c:	00120213          	addi	tp,tp,1 # 1 <boot+0x1>
    5d20:	00200293          	li	t0,2
    5d24:	fe5210e3          	bne	tp,t0,5d04 <test_22+0x4>
    5d28:	00100e93          	li	t4,1
    5d2c:	01600e13          	li	t3,22
    5d30:	27d31c63          	bne	t1,t4,5fa8 <fail>

00005d34 <test_23>:
    5d34:	00000213          	li	tp,0
    5d38:	00e00093          	li	ra,14
    5d3c:	00d00113          	li	sp,13
    5d40:	0020a1b3          	slt	gp,ra,sp
    5d44:	00120213          	addi	tp,tp,1 # 1 <boot+0x1>
    5d48:	00200293          	li	t0,2
    5d4c:	fe5216e3          	bne	tp,t0,5d38 <test_23+0x4>
    5d50:	00000e93          	li	t4,0
    5d54:	01700e13          	li	t3,23
    5d58:	25d19863          	bne	gp,t4,5fa8 <fail>

00005d5c <test_24>:
    5d5c:	00000213          	li	tp,0
    5d60:	00b00093          	li	ra,11
    5d64:	00d00113          	li	sp,13
    5d68:	00000013          	nop
    5d6c:	0020a1b3          	slt	gp,ra,sp
    5d70:	00120213          	addi	tp,tp,1 # 1 <boot+0x1>
    5d74:	00200293          	li	t0,2
    5d78:	fe5214e3          	bne	tp,t0,5d60 <test_24+0x4>
    5d7c:	00100e93          	li	t4,1
    5d80:	01800e13          	li	t3,24
    5d84:	23d19263          	bne	gp,t4,5fa8 <fail>

00005d88 <test_25>:
    5d88:	00000213          	li	tp,0
    5d8c:	00f00093          	li	ra,15
    5d90:	00d00113          	li	sp,13
    5d94:	00000013          	nop
    5d98:	00000013          	nop
    5d9c:	0020a1b3          	slt	gp,ra,sp
    5da0:	00120213          	addi	tp,tp,1 # 1 <boot+0x1>
    5da4:	00200293          	li	t0,2
    5da8:	fe5212e3          	bne	tp,t0,5d8c <test_25+0x4>
    5dac:	00000e93          	li	t4,0
    5db0:	01900e13          	li	t3,25
    5db4:	1fd19a63          	bne	gp,t4,5fa8 <fail>

00005db8 <test_26>:
    5db8:	00000213          	li	tp,0
    5dbc:	00a00093          	li	ra,10
    5dc0:	00000013          	nop
    5dc4:	00d00113          	li	sp,13
    5dc8:	0020a1b3          	slt	gp,ra,sp
    5dcc:	00120213          	addi	tp,tp,1 # 1 <boot+0x1>
    5dd0:	00200293          	li	t0,2
    5dd4:	fe5214e3          	bne	tp,t0,5dbc <test_26+0x4>
    5dd8:	00100e93          	li	t4,1
    5ddc:	01a00e13          	li	t3,26
    5de0:	1dd19463          	bne	gp,t4,5fa8 <fail>

00005de4 <test_27>:
    5de4:	00000213          	li	tp,0
    5de8:	01000093          	li	ra,16
    5dec:	00000013          	nop
    5df0:	00d00113          	li	sp,13
    5df4:	00000013          	nop
    5df8:	0020a1b3          	slt	gp,ra,sp
    5dfc:	00120213          	addi	tp,tp,1 # 1 <boot+0x1>
    5e00:	00200293          	li	t0,2
    5e04:	fe5212e3          	bne	tp,t0,5de8 <test_27+0x4>
    5e08:	00000e93          	li	t4,0
    5e0c:	01b00e13          	li	t3,27
    5e10:	19d19c63          	bne	gp,t4,5fa8 <fail>

00005e14 <test_28>:
    5e14:	00000213          	li	tp,0
    5e18:	00900093          	li	ra,9
    5e1c:	00000013          	nop
    5e20:	00000013          	nop
    5e24:	00d00113          	li	sp,13
    5e28:	0020a1b3          	slt	gp,ra,sp
    5e2c:	00120213          	addi	tp,tp,1 # 1 <boot+0x1>
    5e30:	00200293          	li	t0,2
    5e34:	fe5212e3          	bne	tp,t0,5e18 <test_28+0x4>
    5e38:	00100e93          	li	t4,1
    5e3c:	01c00e13          	li	t3,28
    5e40:	17d19463          	bne	gp,t4,5fa8 <fail>

00005e44 <test_29>:
    5e44:	00000213          	li	tp,0
    5e48:	00d00113          	li	sp,13
    5e4c:	01100093          	li	ra,17
    5e50:	0020a1b3          	slt	gp,ra,sp
    5e54:	00120213          	addi	tp,tp,1 # 1 <boot+0x1>
    5e58:	00200293          	li	t0,2
    5e5c:	fe5216e3          	bne	tp,t0,5e48 <test_29+0x4>
    5e60:	00000e93          	li	t4,0
    5e64:	01d00e13          	li	t3,29
    5e68:	15d19063          	bne	gp,t4,5fa8 <fail>

00005e6c <test_30>:
    5e6c:	00000213          	li	tp,0
    5e70:	00d00113          	li	sp,13
    5e74:	00800093          	li	ra,8
    5e78:	00000013          	nop
    5e7c:	0020a1b3          	slt	gp,ra,sp
    5e80:	00120213          	addi	tp,tp,1 # 1 <boot+0x1>
    5e84:	00200293          	li	t0,2
    5e88:	fe5214e3          	bne	tp,t0,5e70 <test_30+0x4>
    5e8c:	00100e93          	li	t4,1
    5e90:	01e00e13          	li	t3,30
    5e94:	11d19a63          	bne	gp,t4,5fa8 <fail>

00005e98 <test_31>:
    5e98:	00000213          	li	tp,0
    5e9c:	00d00113          	li	sp,13
    5ea0:	01200093          	li	ra,18
    5ea4:	00000013          	nop
    5ea8:	00000013          	nop
    5eac:	0020a1b3          	slt	gp,ra,sp
    5eb0:	00120213          	addi	tp,tp,1 # 1 <boot+0x1>
    5eb4:	00200293          	li	t0,2
    5eb8:	fe5212e3          	bne	tp,t0,5e9c <test_31+0x4>
    5ebc:	00000e93          	li	t4,0
    5ec0:	01f00e13          	li	t3,31
    5ec4:	0fd19263          	bne	gp,t4,5fa8 <fail>

00005ec8 <test_32>:
    5ec8:	00000213          	li	tp,0
    5ecc:	00d00113          	li	sp,13
    5ed0:	00000013          	nop
    5ed4:	00700093          	li	ra,7
    5ed8:	0020a1b3          	slt	gp,ra,sp
    5edc:	00120213          	addi	tp,tp,1 # 1 <boot+0x1>
    5ee0:	00200293          	li	t0,2
    5ee4:	fe5214e3          	bne	tp,t0,5ecc <test_32+0x4>
    5ee8:	00100e93          	li	t4,1
    5eec:	02000e13          	li	t3,32
    5ef0:	0bd19c63          	bne	gp,t4,5fa8 <fail>

00005ef4 <test_33>:
    5ef4:	00000213          	li	tp,0
    5ef8:	00d00113          	li	sp,13
    5efc:	00000013          	nop
    5f00:	01300093          	li	ra,19
    5f04:	00000013          	nop
    5f08:	0020a1b3          	slt	gp,ra,sp
    5f0c:	00120213          	addi	tp,tp,1 # 1 <boot+0x1>
    5f10:	00200293          	li	t0,2
    5f14:	fe5212e3          	bne	tp,t0,5ef8 <test_33+0x4>
    5f18:	00000e93          	li	t4,0
    5f1c:	02100e13          	li	t3,33
    5f20:	09d19463          	bne	gp,t4,5fa8 <fail>

00005f24 <test_34>:
    5f24:	00000213          	li	tp,0
    5f28:	00d00113          	li	sp,13
    5f2c:	00000013          	nop
    5f30:	00000013          	nop
    5f34:	00600093          	li	ra,6
    5f38:	0020a1b3          	slt	gp,ra,sp
    5f3c:	00120213          	addi	tp,tp,1 # 1 <boot+0x1>
    5f40:	00200293          	li	t0,2
    5f44:	fe5212e3          	bne	tp,t0,5f28 <test_34+0x4>
    5f48:	00100e93          	li	t4,1
    5f4c:	02200e13          	li	t3,34
    5f50:	05d19c63          	bne	gp,t4,5fa8 <fail>

00005f54 <test_35>:
    5f54:	fff00093          	li	ra,-1
    5f58:	00102133          	sgtz	sp,ra
    5f5c:	00000e93          	li	t4,0
    5f60:	02300e13          	li	t3,35
    5f64:	05d11263          	bne	sp,t4,5fa8 <fail>

00005f68 <test_36>:
    5f68:	fff00093          	li	ra,-1
    5f6c:	0000a133          	sltz	sp,ra
    5f70:	00100e93          	li	t4,1
    5f74:	02400e13          	li	t3,36
    5f78:	03d11863          	bne	sp,t4,5fa8 <fail>

00005f7c <test_37>:
    5f7c:	000020b3          	sltz	ra,zero
    5f80:	00000e93          	li	t4,0
    5f84:	02500e13          	li	t3,37
    5f88:	03d09063          	bne	ra,t4,5fa8 <fail>

00005f8c <test_38>:
    5f8c:	01000093          	li	ra,16
    5f90:	01e00113          	li	sp,30
    5f94:	0020a033          	slt	zero,ra,sp
    5f98:	00000e93          	li	t4,0
    5f9c:	02600e13          	li	t3,38
    5fa0:	01d01463          	bne	zero,t4,5fa8 <fail>
    5fa4:	03c01c63          	bne	zero,t3,5fdc <pass>

00005fa8 <fail>:
    5fa8:	981fa0ef          	jal	ra,928 <failure>
    5fac:	10000537          	lui	a0,0x10000
    5fb0:	04500593          	li	a1,69
    5fb4:	05200613          	li	a2,82
    5fb8:	04f00693          	li	a3,79
    5fbc:	00a00713          	li	a4,10
    5fc0:	00b52023          	sw	a1,0(a0) # 10000000 <tdat10+0xfff71e7>
    5fc4:	00c52023          	sw	a2,0(a0)
    5fc8:	00c52023          	sw	a2,0(a0)
    5fcc:	00d52023          	sw	a3,0(a0)
    5fd0:	00c52023          	sw	a2,0(a0)
    5fd4:	00e52023          	sw	a4,0(a0)
    5fd8:	00100073          	ebreak

00005fdc <pass>:
    5fdc:	00009137          	lui	sp,0x9
    5fe0:	955fa0ef          	jal	ra,934 <OK>
    5fe4:	00000013          	nop
    5fe8:	ad1fa06f          	j	ab8 <slt_ret>

00005fec <lbu>:
    5fec:	00006537          	lui	a0,0x6
    5ff0:	00c50513          	addi	a0,a0,12 # 600c <.test_name>

00005ff4 <loop>:
    5ff4:	aa0fa0ef          	jal	ra,294 <putstr>

00005ff8 <.prname_next>:
    5ff8:	00050583          	lb	a1,0(a0)
    5ffc:	00058a63          	beqz	a1,6010 <.prname_done>
    6000:	00b62023          	sw	a1,0(a2)
    6004:	00150513          	addi	a0,a0,1
    6008:	ff1ff06f          	j	5ff8 <.prname_next>

0000600c <.test_name>:
    600c:	626c                	flw	fa1,68(a2)
    600e:	0075                	c.nop	29

00006010 <.prname_done>:
    6010:	02e00593          	li	a1,46
    6014:	00b62023          	sw	a1,0(a2)
    6018:	00b62023          	sw	a1,0(a2)

0000601c <test_2>:
    601c:	00003097          	auipc	ra,0x3
    6020:	de808093          	addi	ra,ra,-536 # 8e04 <tdat>
    6024:	0000c183          	lbu	gp,0(ra)
    6028:	0ff00e93          	li	t4,255
    602c:	00200e13          	li	t3,2
    6030:	23d19c63          	bne	gp,t4,6268 <fail>

00006034 <test_3>:
    6034:	00003097          	auipc	ra,0x3
    6038:	dd008093          	addi	ra,ra,-560 # 8e04 <tdat>
    603c:	0010c183          	lbu	gp,1(ra)
    6040:	00000e93          	li	t4,0
    6044:	00300e13          	li	t3,3
    6048:	23d19063          	bne	gp,t4,6268 <fail>

0000604c <test_4>:
    604c:	00003097          	auipc	ra,0x3
    6050:	db808093          	addi	ra,ra,-584 # 8e04 <tdat>
    6054:	0020c183          	lbu	gp,2(ra)
    6058:	0f000e93          	li	t4,240
    605c:	00400e13          	li	t3,4
    6060:	21d19463          	bne	gp,t4,6268 <fail>

00006064 <test_5>:
    6064:	00003097          	auipc	ra,0x3
    6068:	da008093          	addi	ra,ra,-608 # 8e04 <tdat>
    606c:	0030c183          	lbu	gp,3(ra)
    6070:	00f00e93          	li	t4,15
    6074:	00500e13          	li	t3,5
    6078:	1fd19863          	bne	gp,t4,6268 <fail>

0000607c <test_6>:
    607c:	00003097          	auipc	ra,0x3
    6080:	d8b08093          	addi	ra,ra,-629 # 8e07 <tdat4>
    6084:	ffd0c183          	lbu	gp,-3(ra)
    6088:	0ff00e93          	li	t4,255
    608c:	00600e13          	li	t3,6
    6090:	1dd19c63          	bne	gp,t4,6268 <fail>

00006094 <test_7>:
    6094:	00003097          	auipc	ra,0x3
    6098:	d7308093          	addi	ra,ra,-653 # 8e07 <tdat4>
    609c:	ffe0c183          	lbu	gp,-2(ra)
    60a0:	00000e93          	li	t4,0
    60a4:	00700e13          	li	t3,7
    60a8:	1dd19063          	bne	gp,t4,6268 <fail>

000060ac <test_8>:
    60ac:	00003097          	auipc	ra,0x3
    60b0:	d5b08093          	addi	ra,ra,-677 # 8e07 <tdat4>
    60b4:	fff0c183          	lbu	gp,-1(ra)
    60b8:	0f000e93          	li	t4,240
    60bc:	00800e13          	li	t3,8
    60c0:	1bd19463          	bne	gp,t4,6268 <fail>

000060c4 <test_9>:
    60c4:	00003097          	auipc	ra,0x3
    60c8:	d4308093          	addi	ra,ra,-701 # 8e07 <tdat4>
    60cc:	0000c183          	lbu	gp,0(ra)
    60d0:	00f00e93          	li	t4,15
    60d4:	00900e13          	li	t3,9
    60d8:	19d19863          	bne	gp,t4,6268 <fail>

000060dc <test_10>:
    60dc:	00003097          	auipc	ra,0x3
    60e0:	d2808093          	addi	ra,ra,-728 # 8e04 <tdat>
    60e4:	fe008093          	addi	ra,ra,-32
    60e8:	0200c183          	lbu	gp,32(ra)
    60ec:	0ff00e93          	li	t4,255
    60f0:	00a00e13          	li	t3,10
    60f4:	17d19a63          	bne	gp,t4,6268 <fail>

000060f8 <test_11>:
    60f8:	00003097          	auipc	ra,0x3
    60fc:	d0c08093          	addi	ra,ra,-756 # 8e04 <tdat>
    6100:	ffa08093          	addi	ra,ra,-6
    6104:	0070c183          	lbu	gp,7(ra)
    6108:	00000e93          	li	t4,0
    610c:	00b00e13          	li	t3,11
    6110:	15d19c63          	bne	gp,t4,6268 <fail>

00006114 <test_12>:
    6114:	00c00e13          	li	t3,12
    6118:	00000213          	li	tp,0
    611c:	00003097          	auipc	ra,0x3
    6120:	ce908093          	addi	ra,ra,-791 # 8e05 <tdat2>
    6124:	0010c183          	lbu	gp,1(ra)
    6128:	00018313          	mv	t1,gp
    612c:	0f000e93          	li	t4,240
    6130:	13d31c63          	bne	t1,t4,6268 <fail>
    6134:	00120213          	addi	tp,tp,1 # 1 <boot+0x1>
    6138:	00200293          	li	t0,2
    613c:	fe5210e3          	bne	tp,t0,611c <test_12+0x8>

00006140 <test_13>:
    6140:	00d00e13          	li	t3,13
    6144:	00000213          	li	tp,0
    6148:	00003097          	auipc	ra,0x3
    614c:	cbe08093          	addi	ra,ra,-834 # 8e06 <tdat3>
    6150:	0010c183          	lbu	gp,1(ra)
    6154:	00000013          	nop
    6158:	00018313          	mv	t1,gp
    615c:	00f00e93          	li	t4,15
    6160:	11d31463          	bne	t1,t4,6268 <fail>
    6164:	00120213          	addi	tp,tp,1 # 1 <boot+0x1>
    6168:	00200293          	li	t0,2
    616c:	fc521ee3          	bne	tp,t0,6148 <test_13+0x8>

00006170 <test_14>:
    6170:	00e00e13          	li	t3,14
    6174:	00000213          	li	tp,0
    6178:	00003097          	auipc	ra,0x3
    617c:	c8c08093          	addi	ra,ra,-884 # 8e04 <tdat>
    6180:	0010c183          	lbu	gp,1(ra)
    6184:	00000013          	nop
    6188:	00000013          	nop
    618c:	00018313          	mv	t1,gp
    6190:	00000e93          	li	t4,0
    6194:	0dd31a63          	bne	t1,t4,6268 <fail>
    6198:	00120213          	addi	tp,tp,1 # 1 <boot+0x1>
    619c:	00200293          	li	t0,2
    61a0:	fc521ce3          	bne	tp,t0,6178 <test_14+0x8>

000061a4 <test_15>:
    61a4:	00f00e13          	li	t3,15
    61a8:	00000213          	li	tp,0
    61ac:	00003097          	auipc	ra,0x3
    61b0:	c5908093          	addi	ra,ra,-935 # 8e05 <tdat2>
    61b4:	0010c183          	lbu	gp,1(ra)
    61b8:	0f000e93          	li	t4,240
    61bc:	0bd19663          	bne	gp,t4,6268 <fail>
    61c0:	00120213          	addi	tp,tp,1 # 1 <boot+0x1>
    61c4:	00200293          	li	t0,2
    61c8:	fe5212e3          	bne	tp,t0,61ac <test_15+0x8>

000061cc <test_16>:
    61cc:	01000e13          	li	t3,16
    61d0:	00000213          	li	tp,0
    61d4:	00003097          	auipc	ra,0x3
    61d8:	c3208093          	addi	ra,ra,-974 # 8e06 <tdat3>
    61dc:	00000013          	nop
    61e0:	0010c183          	lbu	gp,1(ra)
    61e4:	00f00e93          	li	t4,15
    61e8:	09d19063          	bne	gp,t4,6268 <fail>
    61ec:	00120213          	addi	tp,tp,1 # 1 <boot+0x1>
    61f0:	00200293          	li	t0,2
    61f4:	fe5210e3          	bne	tp,t0,61d4 <test_16+0x8>

000061f8 <test_17>:
    61f8:	01100e13          	li	t3,17
    61fc:	00000213          	li	tp,0
    6200:	00003097          	auipc	ra,0x3
    6204:	c0408093          	addi	ra,ra,-1020 # 8e04 <tdat>
    6208:	00000013          	nop
    620c:	00000013          	nop
    6210:	0010c183          	lbu	gp,1(ra)
    6214:	00000e93          	li	t4,0
    6218:	05d19863          	bne	gp,t4,6268 <fail>
    621c:	00120213          	addi	tp,tp,1 # 1 <boot+0x1>
    6220:	00200293          	li	t0,2
    6224:	fc521ee3          	bne	tp,t0,6200 <test_17+0x8>

00006228 <test_18>:
    6228:	00003197          	auipc	gp,0x3
    622c:	bdc18193          	addi	gp,gp,-1060 # 8e04 <tdat>
    6230:	0001c103          	lbu	sp,0(gp)
    6234:	00200113          	li	sp,2
    6238:	00200e93          	li	t4,2
    623c:	01200e13          	li	t3,18
    6240:	03d11463          	bne	sp,t4,6268 <fail>

00006244 <test_19>:
    6244:	00003197          	auipc	gp,0x3
    6248:	bc018193          	addi	gp,gp,-1088 # 8e04 <tdat>
    624c:	0001c103          	lbu	sp,0(gp)
    6250:	00000013          	nop
    6254:	00200113          	li	sp,2
    6258:	00200e93          	li	t4,2
    625c:	01300e13          	li	t3,19
    6260:	01d11463          	bne	sp,t4,6268 <fail>
    6264:	03c01c63          	bne	zero,t3,629c <pass>

00006268 <fail>:
    6268:	ec0fa0ef          	jal	ra,928 <failure>
    626c:	10000537          	lui	a0,0x10000
    6270:	04500593          	li	a1,69
    6274:	05200613          	li	a2,82
    6278:	04f00693          	li	a3,79
    627c:	00a00713          	li	a4,10
    6280:	00b52023          	sw	a1,0(a0) # 10000000 <tdat10+0xfff71e7>
    6284:	00c52023          	sw	a2,0(a0)
    6288:	00c52023          	sw	a2,0(a0)
    628c:	00d52023          	sw	a3,0(a0)
    6290:	00c52023          	sw	a2,0(a0)
    6294:	00e52023          	sw	a4,0(a0)
    6298:	00100073          	ebreak

0000629c <pass>:
    629c:	00009137          	lui	sp,0x9
    62a0:	e94fa0ef          	jal	ra,934 <OK>
    62a4:	00000013          	nop
    62a8:	f90fa06f          	j	a38 <lbu_ret>

000062ac <lhu>:
    62ac:	00006537          	lui	a0,0x6
    62b0:	2cc50513          	addi	a0,a0,716 # 62cc <.test_name>

000062b4 <loop>:
    62b4:	fe1f90ef          	jal	ra,294 <putstr>

000062b8 <.prname_next>:
    62b8:	00050583          	lb	a1,0(a0)
    62bc:	00058a63          	beqz	a1,62d0 <.prname_done>
    62c0:	00b62023          	sw	a1,0(a2)
    62c4:	00150513          	addi	a0,a0,1
    62c8:	ff1ff06f          	j	62b8 <.prname_next>

000062cc <.test_name>:
    62cc:	686c                	flw	fa1,84(s0)
    62ce:	0075                	c.nop	29

000062d0 <.prname_done>:
    62d0:	02e00593          	li	a1,46
    62d4:	00b62023          	sw	a1,0(a2)
    62d8:	00b62023          	sw	a1,0(a2)

000062dc <test_2>:
    62dc:	00003097          	auipc	ra,0x3
    62e0:	b2c08093          	addi	ra,ra,-1236 # 8e08 <tdat>
    62e4:	0000d183          	lhu	gp,0(ra)
    62e8:	0ff00e93          	li	t4,255
    62ec:	00200e13          	li	t3,2
    62f0:	27d19663          	bne	gp,t4,655c <fail>

000062f4 <test_3>:
    62f4:	00003097          	auipc	ra,0x3
    62f8:	b1408093          	addi	ra,ra,-1260 # 8e08 <tdat>
    62fc:	0020d183          	lhu	gp,2(ra)
    6300:	00010eb7          	lui	t4,0x10
    6304:	f00e8e93          	addi	t4,t4,-256 # ff00 <tdat10+0x70e7>
    6308:	00300e13          	li	t3,3
    630c:	25d19863          	bne	gp,t4,655c <fail>

00006310 <test_4>:
    6310:	00003097          	auipc	ra,0x3
    6314:	af808093          	addi	ra,ra,-1288 # 8e08 <tdat>
    6318:	0040d183          	lhu	gp,4(ra)
    631c:	00001eb7          	lui	t4,0x1
    6320:	ff0e8e93          	addi	t4,t4,-16 # ff0 <fail>
    6324:	00400e13          	li	t3,4
    6328:	23d19a63          	bne	gp,t4,655c <fail>

0000632c <test_5>:
    632c:	00003097          	auipc	ra,0x3
    6330:	adc08093          	addi	ra,ra,-1316 # 8e08 <tdat>
    6334:	0060d183          	lhu	gp,6(ra)
    6338:	0000feb7          	lui	t4,0xf
    633c:	00fe8e93          	addi	t4,t4,15 # f00f <tdat10+0x61f6>
    6340:	00500e13          	li	t3,5
    6344:	21d19c63          	bne	gp,t4,655c <fail>

00006348 <test_6>:
    6348:	00003097          	auipc	ra,0x3
    634c:	ac608093          	addi	ra,ra,-1338 # 8e0e <tdat4>
    6350:	ffa0d183          	lhu	gp,-6(ra)
    6354:	0ff00e93          	li	t4,255
    6358:	00600e13          	li	t3,6
    635c:	21d19063          	bne	gp,t4,655c <fail>

00006360 <test_7>:
    6360:	00003097          	auipc	ra,0x3
    6364:	aae08093          	addi	ra,ra,-1362 # 8e0e <tdat4>
    6368:	ffc0d183          	lhu	gp,-4(ra)
    636c:	00010eb7          	lui	t4,0x10
    6370:	f00e8e93          	addi	t4,t4,-256 # ff00 <tdat10+0x70e7>
    6374:	00700e13          	li	t3,7
    6378:	1fd19263          	bne	gp,t4,655c <fail>

0000637c <test_8>:
    637c:	00003097          	auipc	ra,0x3
    6380:	a9208093          	addi	ra,ra,-1390 # 8e0e <tdat4>
    6384:	ffe0d183          	lhu	gp,-2(ra)
    6388:	00001eb7          	lui	t4,0x1
    638c:	ff0e8e93          	addi	t4,t4,-16 # ff0 <fail>
    6390:	00800e13          	li	t3,8
    6394:	1dd19463          	bne	gp,t4,655c <fail>

00006398 <test_9>:
    6398:	00003097          	auipc	ra,0x3
    639c:	a7608093          	addi	ra,ra,-1418 # 8e0e <tdat4>
    63a0:	0000d183          	lhu	gp,0(ra)
    63a4:	0000feb7          	lui	t4,0xf
    63a8:	00fe8e93          	addi	t4,t4,15 # f00f <tdat10+0x61f6>
    63ac:	00900e13          	li	t3,9
    63b0:	1bd19663          	bne	gp,t4,655c <fail>

000063b4 <test_10>:
    63b4:	00003097          	auipc	ra,0x3
    63b8:	a5408093          	addi	ra,ra,-1452 # 8e08 <tdat>
    63bc:	fe008093          	addi	ra,ra,-32
    63c0:	0200d183          	lhu	gp,32(ra)
    63c4:	0ff00e93          	li	t4,255
    63c8:	00a00e13          	li	t3,10
    63cc:	19d19863          	bne	gp,t4,655c <fail>

000063d0 <test_11>:
    63d0:	00003097          	auipc	ra,0x3
    63d4:	a3808093          	addi	ra,ra,-1480 # 8e08 <tdat>
    63d8:	ffb08093          	addi	ra,ra,-5
    63dc:	0070d183          	lhu	gp,7(ra)
    63e0:	00010eb7          	lui	t4,0x10
    63e4:	f00e8e93          	addi	t4,t4,-256 # ff00 <tdat10+0x70e7>
    63e8:	00b00e13          	li	t3,11
    63ec:	17d19863          	bne	gp,t4,655c <fail>

000063f0 <test_12>:
    63f0:	00c00e13          	li	t3,12
    63f4:	00000213          	li	tp,0
    63f8:	00003097          	auipc	ra,0x3
    63fc:	a1208093          	addi	ra,ra,-1518 # 8e0a <tdat2>
    6400:	0020d183          	lhu	gp,2(ra)
    6404:	00018313          	mv	t1,gp
    6408:	00001eb7          	lui	t4,0x1
    640c:	ff0e8e93          	addi	t4,t4,-16 # ff0 <fail>
    6410:	15d31663          	bne	t1,t4,655c <fail>
    6414:	00120213          	addi	tp,tp,1 # 1 <boot+0x1>
    6418:	00200293          	li	t0,2
    641c:	fc521ee3          	bne	tp,t0,63f8 <test_12+0x8>

00006420 <test_13>:
    6420:	00d00e13          	li	t3,13
    6424:	00000213          	li	tp,0
    6428:	00003097          	auipc	ra,0x3
    642c:	9e408093          	addi	ra,ra,-1564 # 8e0c <tdat3>
    6430:	0020d183          	lhu	gp,2(ra)
    6434:	00000013          	nop
    6438:	00018313          	mv	t1,gp
    643c:	0000feb7          	lui	t4,0xf
    6440:	00fe8e93          	addi	t4,t4,15 # f00f <tdat10+0x61f6>
    6444:	11d31c63          	bne	t1,t4,655c <fail>
    6448:	00120213          	addi	tp,tp,1 # 1 <boot+0x1>
    644c:	00200293          	li	t0,2
    6450:	fc521ce3          	bne	tp,t0,6428 <test_13+0x8>

00006454 <test_14>:
    6454:	00e00e13          	li	t3,14
    6458:	00000213          	li	tp,0
    645c:	00003097          	auipc	ra,0x3
    6460:	9ac08093          	addi	ra,ra,-1620 # 8e08 <tdat>
    6464:	0020d183          	lhu	gp,2(ra)
    6468:	00000013          	nop
    646c:	00000013          	nop
    6470:	00018313          	mv	t1,gp
    6474:	00010eb7          	lui	t4,0x10
    6478:	f00e8e93          	addi	t4,t4,-256 # ff00 <tdat10+0x70e7>
    647c:	0fd31063          	bne	t1,t4,655c <fail>
    6480:	00120213          	addi	tp,tp,1 # 1 <boot+0x1>
    6484:	00200293          	li	t0,2
    6488:	fc521ae3          	bne	tp,t0,645c <test_14+0x8>

0000648c <test_15>:
    648c:	00f00e13          	li	t3,15
    6490:	00000213          	li	tp,0
    6494:	00003097          	auipc	ra,0x3
    6498:	97608093          	addi	ra,ra,-1674 # 8e0a <tdat2>
    649c:	0020d183          	lhu	gp,2(ra)
    64a0:	00001eb7          	lui	t4,0x1
    64a4:	ff0e8e93          	addi	t4,t4,-16 # ff0 <fail>
    64a8:	0bd19a63          	bne	gp,t4,655c <fail>
    64ac:	00120213          	addi	tp,tp,1 # 1 <boot+0x1>
    64b0:	00200293          	li	t0,2
    64b4:	fe5210e3          	bne	tp,t0,6494 <test_15+0x8>

000064b8 <test_16>:
    64b8:	01000e13          	li	t3,16
    64bc:	00000213          	li	tp,0
    64c0:	00003097          	auipc	ra,0x3
    64c4:	94c08093          	addi	ra,ra,-1716 # 8e0c <tdat3>
    64c8:	00000013          	nop
    64cc:	0020d183          	lhu	gp,2(ra)
    64d0:	0000feb7          	lui	t4,0xf
    64d4:	00fe8e93          	addi	t4,t4,15 # f00f <tdat10+0x61f6>
    64d8:	09d19263          	bne	gp,t4,655c <fail>
    64dc:	00120213          	addi	tp,tp,1 # 1 <boot+0x1>
    64e0:	00200293          	li	t0,2
    64e4:	fc521ee3          	bne	tp,t0,64c0 <test_16+0x8>

000064e8 <test_17>:
    64e8:	01100e13          	li	t3,17
    64ec:	00000213          	li	tp,0
    64f0:	00003097          	auipc	ra,0x3
    64f4:	91808093          	addi	ra,ra,-1768 # 8e08 <tdat>
    64f8:	00000013          	nop
    64fc:	00000013          	nop
    6500:	0020d183          	lhu	gp,2(ra)
    6504:	00010eb7          	lui	t4,0x10
    6508:	f00e8e93          	addi	t4,t4,-256 # ff00 <tdat10+0x70e7>
    650c:	05d19863          	bne	gp,t4,655c <fail>
    6510:	00120213          	addi	tp,tp,1 # 1 <boot+0x1>
    6514:	00200293          	li	t0,2
    6518:	fc521ce3          	bne	tp,t0,64f0 <test_17+0x8>

0000651c <test_18>:
    651c:	00003197          	auipc	gp,0x3
    6520:	8ec18193          	addi	gp,gp,-1812 # 8e08 <tdat>
    6524:	0001d103          	lhu	sp,0(gp)
    6528:	00200113          	li	sp,2
    652c:	00200e93          	li	t4,2
    6530:	01200e13          	li	t3,18
    6534:	03d11463          	bne	sp,t4,655c <fail>

00006538 <test_19>:
    6538:	00003197          	auipc	gp,0x3
    653c:	8d018193          	addi	gp,gp,-1840 # 8e08 <tdat>
    6540:	0001d103          	lhu	sp,0(gp)
    6544:	00000013          	nop
    6548:	00200113          	li	sp,2
    654c:	00200e93          	li	t4,2
    6550:	01300e13          	li	t3,19
    6554:	01d11463          	bne	sp,t4,655c <fail>
    6558:	03c01c63          	bne	zero,t3,6590 <pass>

0000655c <fail>:
    655c:	bccfa0ef          	jal	ra,928 <failure>
    6560:	10000537          	lui	a0,0x10000
    6564:	04500593          	li	a1,69
    6568:	05200613          	li	a2,82
    656c:	04f00693          	li	a3,79
    6570:	00a00713          	li	a4,10
    6574:	00b52023          	sw	a1,0(a0) # 10000000 <tdat10+0xfff71e7>
    6578:	00c52023          	sw	a2,0(a0)
    657c:	00c52023          	sw	a2,0(a0)
    6580:	00d52023          	sw	a3,0(a0)
    6584:	00c52023          	sw	a2,0(a0)
    6588:	00e52023          	sw	a4,0(a0)
    658c:	00100073          	ebreak

00006590 <pass>:
    6590:	00009137          	lui	sp,0x9
    6594:	ba0fa0ef          	jal	ra,934 <OK>
    6598:	00000013          	nop
    659c:	ca4fa06f          	j	a40 <lhu_ret>

000065a0 <lui>:
    65a0:	00006537          	lui	a0,0x6
    65a4:	5c050513          	addi	a0,a0,1472 # 65c0 <.test_name>

000065a8 <loop>:
    65a8:	cedf90ef          	jal	ra,294 <putstr>

000065ac <.prname_next>:
    65ac:	00050583          	lb	a1,0(a0)
    65b0:	00058a63          	beqz	a1,65c4 <.prname_done>
    65b4:	00b62023          	sw	a1,0(a2)
    65b8:	00150513          	addi	a0,a0,1
    65bc:	ff1ff06f          	j	65ac <.prname_next>

000065c0 <.test_name>:
    65c0:	756c                	flw	fa1,108(a0)
    65c2:	0069                	c.nop	26

000065c4 <.prname_done>:
    65c4:	02e00593          	li	a1,46
    65c8:	00b62023          	sw	a1,0(a2)
    65cc:	00b62023          	sw	a1,0(a2)

000065d0 <test_2>:
    65d0:	000000b7          	lui	ra,0x0
    65d4:	00000e93          	li	t4,0
    65d8:	00200e13          	li	t3,2
    65dc:	05d09a63          	bne	ra,t4,6630 <fail>

000065e0 <test_3>:
    65e0:	fffff0b7          	lui	ra,0xfffff
    65e4:	4010d093          	srai	ra,ra,0x1
    65e8:	80000e93          	li	t4,-2048
    65ec:	00300e13          	li	t3,3
    65f0:	05d09063          	bne	ra,t4,6630 <fail>

000065f4 <test_4>:
    65f4:	7ffff0b7          	lui	ra,0x7ffff
    65f8:	4140d093          	srai	ra,ra,0x14
    65fc:	7ff00e93          	li	t4,2047
    6600:	00400e13          	li	t3,4
    6604:	03d09663          	bne	ra,t4,6630 <fail>

00006608 <test_5>:
    6608:	800000b7          	lui	ra,0x80000
    660c:	4140d093          	srai	ra,ra,0x14
    6610:	80000e93          	li	t4,-2048
    6614:	00500e13          	li	t3,5
    6618:	01d09c63          	bne	ra,t4,6630 <fail>

0000661c <test_6>:
    661c:	80000037          	lui	zero,0x80000
    6620:	00000e93          	li	t4,0
    6624:	00600e13          	li	t3,6
    6628:	01d01463          	bne	zero,t4,6630 <fail>
    662c:	03c01c63          	bne	zero,t3,6664 <pass>

00006630 <fail>:
    6630:	af8fa0ef          	jal	ra,928 <failure>
    6634:	10000537          	lui	a0,0x10000
    6638:	04500593          	li	a1,69
    663c:	05200613          	li	a2,82
    6640:	04f00693          	li	a3,79
    6644:	00a00713          	li	a4,10
    6648:	00b52023          	sw	a1,0(a0) # 10000000 <tdat10+0xfff71e7>
    664c:	00c52023          	sw	a2,0(a0)
    6650:	00c52023          	sw	a2,0(a0)
    6654:	00d52023          	sw	a3,0(a0)
    6658:	00c52023          	sw	a2,0(a0)
    665c:	00e52023          	sw	a4,0(a0)
    6660:	00100073          	ebreak

00006664 <pass>:
    6664:	00009137          	lui	sp,0x9
    6668:	accfa0ef          	jal	ra,934 <OK>
    666c:	00000013          	nop
    6670:	b58fa06f          	j	9c8 <lui_ret>

00006674 <simple>:
    6674:	00006537          	lui	a0,0x6
    6678:	69450513          	addi	a0,a0,1684 # 6694 <.test_name>

0000667c <loop>:
    667c:	c19f90ef          	jal	ra,294 <putstr>

00006680 <.prname_next>:
    6680:	00050583          	lb	a1,0(a0)
    6684:	00058c63          	beqz	a1,669c <.prname_done>
    6688:	00b62023          	sw	a1,0(a2)
    668c:	00150513          	addi	a0,a0,1
    6690:	ff1ff06f          	j	6680 <.prname_next>

00006694 <.test_name>:
    6694:	706d6973          	csrrsi	s2,0x706,26
    6698:	656c                	flw	fa1,76(a0)
	...

0000669c <.prname_done>:
    669c:	02e00593          	li	a1,46
    66a0:	00b62023          	sw	a1,0(a2)
    66a4:	00b62023          	sw	a1,0(a2)
    66a8:	00009137          	lui	sp,0x9
    66ac:	a88fa0ef          	jal	ra,934 <OK>
    66b0:	00000013          	nop
    66b4:	c34fa06f          	j	ae8 <simple_ret>

000066b8 <sra>:
    66b8:	00006537          	lui	a0,0x6
    66bc:	6d850513          	addi	a0,a0,1752 # 66d8 <.test_name>

000066c0 <loop>:
    66c0:	bd5f90ef          	jal	ra,294 <putstr>

000066c4 <.prname_next>:
    66c4:	00050583          	lb	a1,0(a0)
    66c8:	00058a63          	beqz	a1,66dc <.prname_done>
    66cc:	00b62023          	sw	a1,0(a2)
    66d0:	00150513          	addi	a0,a0,1
    66d4:	ff1ff06f          	j	66c4 <.prname_next>

000066d8 <.test_name>:
    66d8:	00617273          	csrrci	tp,0x6,2

000066dc <.prname_done>:
    66dc:	02e00593          	li	a1,46
    66e0:	00b62023          	sw	a1,0(a2)
    66e4:	00b62023          	sw	a1,0(a2)

000066e8 <test_2>:
    66e8:	800000b7          	lui	ra,0x80000
    66ec:	00000113          	li	sp,0
    66f0:	4020d1b3          	sra	gp,ra,sp
    66f4:	80000eb7          	lui	t4,0x80000
    66f8:	00200e13          	li	t3,2
    66fc:	59d19463          	bne	gp,t4,6c84 <fail>

00006700 <test_3>:
    6700:	800000b7          	lui	ra,0x80000
    6704:	00100113          	li	sp,1
    6708:	4020d1b3          	sra	gp,ra,sp
    670c:	c0000eb7          	lui	t4,0xc0000
    6710:	00300e13          	li	t3,3
    6714:	57d19863          	bne	gp,t4,6c84 <fail>

00006718 <test_4>:
    6718:	800000b7          	lui	ra,0x80000
    671c:	00700113          	li	sp,7
    6720:	4020d1b3          	sra	gp,ra,sp
    6724:	ff000eb7          	lui	t4,0xff000
    6728:	00400e13          	li	t3,4
    672c:	55d19c63          	bne	gp,t4,6c84 <fail>

00006730 <test_5>:
    6730:	800000b7          	lui	ra,0x80000
    6734:	00e00113          	li	sp,14
    6738:	4020d1b3          	sra	gp,ra,sp
    673c:	fffe0eb7          	lui	t4,0xfffe0
    6740:	00500e13          	li	t3,5
    6744:	55d19063          	bne	gp,t4,6c84 <fail>

00006748 <test_6>:
    6748:	800000b7          	lui	ra,0x80000
    674c:	00108093          	addi	ra,ra,1 # 80000001 <io+0x1>
    6750:	01f00113          	li	sp,31
    6754:	4020d1b3          	sra	gp,ra,sp
    6758:	fff00e93          	li	t4,-1
    675c:	00600e13          	li	t3,6
    6760:	53d19263          	bne	gp,t4,6c84 <fail>

00006764 <test_7>:
    6764:	800000b7          	lui	ra,0x80000
    6768:	fff08093          	addi	ra,ra,-1 # 7fffffff <io+0xffffffff>
    676c:	00000113          	li	sp,0
    6770:	4020d1b3          	sra	gp,ra,sp
    6774:	80000eb7          	lui	t4,0x80000
    6778:	fffe8e93          	addi	t4,t4,-1 # 7fffffff <io+0xffffffff>
    677c:	00700e13          	li	t3,7
    6780:	51d19263          	bne	gp,t4,6c84 <fail>

00006784 <test_8>:
    6784:	800000b7          	lui	ra,0x80000
    6788:	fff08093          	addi	ra,ra,-1 # 7fffffff <io+0xffffffff>
    678c:	00100113          	li	sp,1
    6790:	4020d1b3          	sra	gp,ra,sp
    6794:	40000eb7          	lui	t4,0x40000
    6798:	fffe8e93          	addi	t4,t4,-1 # 3fffffff <tdat10+0x3fff71e6>
    679c:	00800e13          	li	t3,8
    67a0:	4fd19263          	bne	gp,t4,6c84 <fail>

000067a4 <test_9>:
    67a4:	800000b7          	lui	ra,0x80000
    67a8:	fff08093          	addi	ra,ra,-1 # 7fffffff <io+0xffffffff>
    67ac:	00700113          	li	sp,7
    67b0:	4020d1b3          	sra	gp,ra,sp
    67b4:	01000eb7          	lui	t4,0x1000
    67b8:	fffe8e93          	addi	t4,t4,-1 # ffffff <tdat10+0xff71e6>
    67bc:	00900e13          	li	t3,9
    67c0:	4dd19263          	bne	gp,t4,6c84 <fail>

000067c4 <test_10>:
    67c4:	800000b7          	lui	ra,0x80000
    67c8:	fff08093          	addi	ra,ra,-1 # 7fffffff <io+0xffffffff>
    67cc:	00e00113          	li	sp,14
    67d0:	4020d1b3          	sra	gp,ra,sp
    67d4:	00020eb7          	lui	t4,0x20
    67d8:	fffe8e93          	addi	t4,t4,-1 # 1ffff <tdat10+0x171e6>
    67dc:	00a00e13          	li	t3,10
    67e0:	4bd19263          	bne	gp,t4,6c84 <fail>

000067e4 <test_11>:
    67e4:	800000b7          	lui	ra,0x80000
    67e8:	fff08093          	addi	ra,ra,-1 # 7fffffff <io+0xffffffff>
    67ec:	01f00113          	li	sp,31
    67f0:	4020d1b3          	sra	gp,ra,sp
    67f4:	00000e93          	li	t4,0
    67f8:	00b00e13          	li	t3,11
    67fc:	49d19463          	bne	gp,t4,6c84 <fail>

00006800 <test_12>:
    6800:	818180b7          	lui	ra,0x81818
    6804:	18108093          	addi	ra,ra,385 # 81818181 <io+0x1818181>
    6808:	00000113          	li	sp,0
    680c:	4020d1b3          	sra	gp,ra,sp
    6810:	81818eb7          	lui	t4,0x81818
    6814:	181e8e93          	addi	t4,t4,385 # 81818181 <io+0x1818181>
    6818:	00c00e13          	li	t3,12
    681c:	47d19463          	bne	gp,t4,6c84 <fail>

00006820 <test_13>:
    6820:	818180b7          	lui	ra,0x81818
    6824:	18108093          	addi	ra,ra,385 # 81818181 <io+0x1818181>
    6828:	00100113          	li	sp,1
    682c:	4020d1b3          	sra	gp,ra,sp
    6830:	c0c0ceb7          	lui	t4,0xc0c0c
    6834:	0c0e8e93          	addi	t4,t4,192 # c0c0c0c0 <io+0x40c0c0c0>
    6838:	00d00e13          	li	t3,13
    683c:	45d19463          	bne	gp,t4,6c84 <fail>

00006840 <test_14>:
    6840:	818180b7          	lui	ra,0x81818
    6844:	18108093          	addi	ra,ra,385 # 81818181 <io+0x1818181>
    6848:	00700113          	li	sp,7
    684c:	4020d1b3          	sra	gp,ra,sp
    6850:	ff030eb7          	lui	t4,0xff030
    6854:	303e8e93          	addi	t4,t4,771 # ff030303 <io+0x7f030303>
    6858:	00e00e13          	li	t3,14
    685c:	43d19463          	bne	gp,t4,6c84 <fail>

00006860 <test_15>:
    6860:	818180b7          	lui	ra,0x81818
    6864:	18108093          	addi	ra,ra,385 # 81818181 <io+0x1818181>
    6868:	00e00113          	li	sp,14
    686c:	4020d1b3          	sra	gp,ra,sp
    6870:	fffe0eb7          	lui	t4,0xfffe0
    6874:	606e8e93          	addi	t4,t4,1542 # fffe0606 <io+0x7ffe0606>
    6878:	00f00e13          	li	t3,15
    687c:	41d19463          	bne	gp,t4,6c84 <fail>

00006880 <test_16>:
    6880:	818180b7          	lui	ra,0x81818
    6884:	18108093          	addi	ra,ra,385 # 81818181 <io+0x1818181>
    6888:	01f00113          	li	sp,31
    688c:	4020d1b3          	sra	gp,ra,sp
    6890:	fff00e93          	li	t4,-1
    6894:	01000e13          	li	t3,16
    6898:	3fd19663          	bne	gp,t4,6c84 <fail>

0000689c <test_17>:
    689c:	818180b7          	lui	ra,0x81818
    68a0:	18108093          	addi	ra,ra,385 # 81818181 <io+0x1818181>
    68a4:	fc000113          	li	sp,-64
    68a8:	4020d1b3          	sra	gp,ra,sp
    68ac:	81818eb7          	lui	t4,0x81818
    68b0:	181e8e93          	addi	t4,t4,385 # 81818181 <io+0x1818181>
    68b4:	01100e13          	li	t3,17
    68b8:	3dd19663          	bne	gp,t4,6c84 <fail>

000068bc <test_18>:
    68bc:	818180b7          	lui	ra,0x81818
    68c0:	18108093          	addi	ra,ra,385 # 81818181 <io+0x1818181>
    68c4:	fc100113          	li	sp,-63
    68c8:	4020d1b3          	sra	gp,ra,sp
    68cc:	c0c0ceb7          	lui	t4,0xc0c0c
    68d0:	0c0e8e93          	addi	t4,t4,192 # c0c0c0c0 <io+0x40c0c0c0>
    68d4:	01200e13          	li	t3,18
    68d8:	3bd19663          	bne	gp,t4,6c84 <fail>

000068dc <test_19>:
    68dc:	818180b7          	lui	ra,0x81818
    68e0:	18108093          	addi	ra,ra,385 # 81818181 <io+0x1818181>
    68e4:	fc700113          	li	sp,-57
    68e8:	4020d1b3          	sra	gp,ra,sp
    68ec:	ff030eb7          	lui	t4,0xff030
    68f0:	303e8e93          	addi	t4,t4,771 # ff030303 <io+0x7f030303>
    68f4:	01300e13          	li	t3,19
    68f8:	39d19663          	bne	gp,t4,6c84 <fail>

000068fc <test_20>:
    68fc:	818180b7          	lui	ra,0x81818
    6900:	18108093          	addi	ra,ra,385 # 81818181 <io+0x1818181>
    6904:	fce00113          	li	sp,-50
    6908:	4020d1b3          	sra	gp,ra,sp
    690c:	fffe0eb7          	lui	t4,0xfffe0
    6910:	606e8e93          	addi	t4,t4,1542 # fffe0606 <io+0x7ffe0606>
    6914:	01400e13          	li	t3,20
    6918:	37d19663          	bne	gp,t4,6c84 <fail>

0000691c <test_21>:
    691c:	818180b7          	lui	ra,0x81818
    6920:	18108093          	addi	ra,ra,385 # 81818181 <io+0x1818181>
    6924:	fff00113          	li	sp,-1
    6928:	4020d1b3          	sra	gp,ra,sp
    692c:	fff00e93          	li	t4,-1
    6930:	01500e13          	li	t3,21
    6934:	35d19863          	bne	gp,t4,6c84 <fail>

00006938 <test_22>:
    6938:	800000b7          	lui	ra,0x80000
    693c:	00700113          	li	sp,7
    6940:	4020d0b3          	sra	ra,ra,sp
    6944:	ff000eb7          	lui	t4,0xff000
    6948:	01600e13          	li	t3,22
    694c:	33d09c63          	bne	ra,t4,6c84 <fail>

00006950 <test_23>:
    6950:	800000b7          	lui	ra,0x80000
    6954:	00e00113          	li	sp,14
    6958:	4020d133          	sra	sp,ra,sp
    695c:	fffe0eb7          	lui	t4,0xfffe0
    6960:	01700e13          	li	t3,23
    6964:	33d11063          	bne	sp,t4,6c84 <fail>

00006968 <test_24>:
    6968:	00700093          	li	ra,7
    696c:	4010d0b3          	sra	ra,ra,ra
    6970:	00000e93          	li	t4,0
    6974:	01800e13          	li	t3,24
    6978:	31d09663          	bne	ra,t4,6c84 <fail>

0000697c <test_25>:
    697c:	00000213          	li	tp,0
    6980:	800000b7          	lui	ra,0x80000
    6984:	00700113          	li	sp,7
    6988:	4020d1b3          	sra	gp,ra,sp
    698c:	00018313          	mv	t1,gp
    6990:	00120213          	addi	tp,tp,1 # 1 <boot+0x1>
    6994:	00200293          	li	t0,2
    6998:	fe5214e3          	bne	tp,t0,6980 <test_25+0x4>
    699c:	ff000eb7          	lui	t4,0xff000
    69a0:	01900e13          	li	t3,25
    69a4:	2fd31063          	bne	t1,t4,6c84 <fail>

000069a8 <test_26>:
    69a8:	00000213          	li	tp,0
    69ac:	800000b7          	lui	ra,0x80000
    69b0:	00e00113          	li	sp,14
    69b4:	4020d1b3          	sra	gp,ra,sp
    69b8:	00000013          	nop
    69bc:	00018313          	mv	t1,gp
    69c0:	00120213          	addi	tp,tp,1 # 1 <boot+0x1>
    69c4:	00200293          	li	t0,2
    69c8:	fe5212e3          	bne	tp,t0,69ac <test_26+0x4>
    69cc:	fffe0eb7          	lui	t4,0xfffe0
    69d0:	01a00e13          	li	t3,26
    69d4:	2bd31863          	bne	t1,t4,6c84 <fail>

000069d8 <test_27>:
    69d8:	00000213          	li	tp,0
    69dc:	800000b7          	lui	ra,0x80000
    69e0:	01f00113          	li	sp,31
    69e4:	4020d1b3          	sra	gp,ra,sp
    69e8:	00000013          	nop
    69ec:	00000013          	nop
    69f0:	00018313          	mv	t1,gp
    69f4:	00120213          	addi	tp,tp,1 # 1 <boot+0x1>
    69f8:	00200293          	li	t0,2
    69fc:	fe5210e3          	bne	tp,t0,69dc <test_27+0x4>
    6a00:	fff00e93          	li	t4,-1
    6a04:	01b00e13          	li	t3,27
    6a08:	27d31e63          	bne	t1,t4,6c84 <fail>

00006a0c <test_28>:
    6a0c:	00000213          	li	tp,0
    6a10:	800000b7          	lui	ra,0x80000
    6a14:	00700113          	li	sp,7
    6a18:	4020d1b3          	sra	gp,ra,sp
    6a1c:	00120213          	addi	tp,tp,1 # 1 <boot+0x1>
    6a20:	00200293          	li	t0,2
    6a24:	fe5216e3          	bne	tp,t0,6a10 <test_28+0x4>
    6a28:	ff000eb7          	lui	t4,0xff000
    6a2c:	01c00e13          	li	t3,28
    6a30:	25d19a63          	bne	gp,t4,6c84 <fail>

00006a34 <test_29>:
    6a34:	00000213          	li	tp,0
    6a38:	800000b7          	lui	ra,0x80000
    6a3c:	00e00113          	li	sp,14
    6a40:	00000013          	nop
    6a44:	4020d1b3          	sra	gp,ra,sp
    6a48:	00120213          	addi	tp,tp,1 # 1 <boot+0x1>
    6a4c:	00200293          	li	t0,2
    6a50:	fe5214e3          	bne	tp,t0,6a38 <test_29+0x4>
    6a54:	fffe0eb7          	lui	t4,0xfffe0
    6a58:	01d00e13          	li	t3,29
    6a5c:	23d19463          	bne	gp,t4,6c84 <fail>

00006a60 <test_30>:
    6a60:	00000213          	li	tp,0
    6a64:	800000b7          	lui	ra,0x80000
    6a68:	01f00113          	li	sp,31
    6a6c:	00000013          	nop
    6a70:	00000013          	nop
    6a74:	4020d1b3          	sra	gp,ra,sp
    6a78:	00120213          	addi	tp,tp,1 # 1 <boot+0x1>
    6a7c:	00200293          	li	t0,2
    6a80:	fe5212e3          	bne	tp,t0,6a64 <test_30+0x4>
    6a84:	fff00e93          	li	t4,-1
    6a88:	01e00e13          	li	t3,30
    6a8c:	1fd19c63          	bne	gp,t4,6c84 <fail>

00006a90 <test_31>:
    6a90:	00000213          	li	tp,0
    6a94:	800000b7          	lui	ra,0x80000
    6a98:	00000013          	nop
    6a9c:	00700113          	li	sp,7
    6aa0:	4020d1b3          	sra	gp,ra,sp
    6aa4:	00120213          	addi	tp,tp,1 # 1 <boot+0x1>
    6aa8:	00200293          	li	t0,2
    6aac:	fe5214e3          	bne	tp,t0,6a94 <test_31+0x4>
    6ab0:	ff000eb7          	lui	t4,0xff000
    6ab4:	01f00e13          	li	t3,31
    6ab8:	1dd19663          	bne	gp,t4,6c84 <fail>

00006abc <test_32>:
    6abc:	00000213          	li	tp,0
    6ac0:	800000b7          	lui	ra,0x80000
    6ac4:	00000013          	nop
    6ac8:	00e00113          	li	sp,14
    6acc:	00000013          	nop
    6ad0:	4020d1b3          	sra	gp,ra,sp
    6ad4:	00120213          	addi	tp,tp,1 # 1 <boot+0x1>
    6ad8:	00200293          	li	t0,2
    6adc:	fe5212e3          	bne	tp,t0,6ac0 <test_32+0x4>
    6ae0:	fffe0eb7          	lui	t4,0xfffe0
    6ae4:	02000e13          	li	t3,32
    6ae8:	19d19e63          	bne	gp,t4,6c84 <fail>

00006aec <test_33>:
    6aec:	00000213          	li	tp,0
    6af0:	800000b7          	lui	ra,0x80000
    6af4:	00000013          	nop
    6af8:	00000013          	nop
    6afc:	01f00113          	li	sp,31
    6b00:	4020d1b3          	sra	gp,ra,sp
    6b04:	00120213          	addi	tp,tp,1 # 1 <boot+0x1>
    6b08:	00200293          	li	t0,2
    6b0c:	fe5212e3          	bne	tp,t0,6af0 <test_33+0x4>
    6b10:	fff00e93          	li	t4,-1
    6b14:	02100e13          	li	t3,33
    6b18:	17d19663          	bne	gp,t4,6c84 <fail>

00006b1c <test_34>:
    6b1c:	00000213          	li	tp,0
    6b20:	00700113          	li	sp,7
    6b24:	800000b7          	lui	ra,0x80000
    6b28:	4020d1b3          	sra	gp,ra,sp
    6b2c:	00120213          	addi	tp,tp,1 # 1 <boot+0x1>
    6b30:	00200293          	li	t0,2
    6b34:	fe5216e3          	bne	tp,t0,6b20 <test_34+0x4>
    6b38:	ff000eb7          	lui	t4,0xff000
    6b3c:	02200e13          	li	t3,34
    6b40:	15d19263          	bne	gp,t4,6c84 <fail>

00006b44 <test_35>:
    6b44:	00000213          	li	tp,0
    6b48:	00e00113          	li	sp,14
    6b4c:	800000b7          	lui	ra,0x80000
    6b50:	00000013          	nop
    6b54:	4020d1b3          	sra	gp,ra,sp
    6b58:	00120213          	addi	tp,tp,1 # 1 <boot+0x1>
    6b5c:	00200293          	li	t0,2
    6b60:	fe5214e3          	bne	tp,t0,6b48 <test_35+0x4>
    6b64:	fffe0eb7          	lui	t4,0xfffe0
    6b68:	02300e13          	li	t3,35
    6b6c:	11d19c63          	bne	gp,t4,6c84 <fail>

00006b70 <test_36>:
    6b70:	00000213          	li	tp,0
    6b74:	01f00113          	li	sp,31
    6b78:	800000b7          	lui	ra,0x80000
    6b7c:	00000013          	nop
    6b80:	00000013          	nop
    6b84:	4020d1b3          	sra	gp,ra,sp
    6b88:	00120213          	addi	tp,tp,1 # 1 <boot+0x1>
    6b8c:	00200293          	li	t0,2
    6b90:	fe5212e3          	bne	tp,t0,6b74 <test_36+0x4>
    6b94:	fff00e93          	li	t4,-1
    6b98:	02400e13          	li	t3,36
    6b9c:	0fd19463          	bne	gp,t4,6c84 <fail>

00006ba0 <test_37>:
    6ba0:	00000213          	li	tp,0
    6ba4:	00700113          	li	sp,7
    6ba8:	00000013          	nop
    6bac:	800000b7          	lui	ra,0x80000
    6bb0:	4020d1b3          	sra	gp,ra,sp
    6bb4:	00120213          	addi	tp,tp,1 # 1 <boot+0x1>
    6bb8:	00200293          	li	t0,2
    6bbc:	fe5214e3          	bne	tp,t0,6ba4 <test_37+0x4>
    6bc0:	ff000eb7          	lui	t4,0xff000
    6bc4:	02500e13          	li	t3,37
    6bc8:	0bd19e63          	bne	gp,t4,6c84 <fail>

00006bcc <test_38>:
    6bcc:	00000213          	li	tp,0
    6bd0:	00e00113          	li	sp,14
    6bd4:	00000013          	nop
    6bd8:	800000b7          	lui	ra,0x80000
    6bdc:	00000013          	nop
    6be0:	4020d1b3          	sra	gp,ra,sp
    6be4:	00120213          	addi	tp,tp,1 # 1 <boot+0x1>
    6be8:	00200293          	li	t0,2
    6bec:	fe5212e3          	bne	tp,t0,6bd0 <test_38+0x4>
    6bf0:	fffe0eb7          	lui	t4,0xfffe0
    6bf4:	02600e13          	li	t3,38
    6bf8:	09d19663          	bne	gp,t4,6c84 <fail>

00006bfc <test_39>:
    6bfc:	00000213          	li	tp,0
    6c00:	01f00113          	li	sp,31
    6c04:	00000013          	nop
    6c08:	00000013          	nop
    6c0c:	800000b7          	lui	ra,0x80000
    6c10:	4020d1b3          	sra	gp,ra,sp
    6c14:	00120213          	addi	tp,tp,1 # 1 <boot+0x1>
    6c18:	00200293          	li	t0,2
    6c1c:	fe5212e3          	bne	tp,t0,6c00 <test_39+0x4>
    6c20:	fff00e93          	li	t4,-1
    6c24:	02700e13          	li	t3,39
    6c28:	05d19e63          	bne	gp,t4,6c84 <fail>

00006c2c <test_40>:
    6c2c:	00f00093          	li	ra,15
    6c30:	40105133          	sra	sp,zero,ra
    6c34:	00000e93          	li	t4,0
    6c38:	02800e13          	li	t3,40
    6c3c:	05d11463          	bne	sp,t4,6c84 <fail>

00006c40 <test_41>:
    6c40:	02000093          	li	ra,32
    6c44:	4000d133          	sra	sp,ra,zero
    6c48:	02000e93          	li	t4,32
    6c4c:	02900e13          	li	t3,41
    6c50:	03d11a63          	bne	sp,t4,6c84 <fail>

00006c54 <test_42>:
    6c54:	400050b3          	sra	ra,zero,zero
    6c58:	00000e93          	li	t4,0
    6c5c:	02a00e13          	li	t3,42
    6c60:	03d09263          	bne	ra,t4,6c84 <fail>

00006c64 <test_43>:
    6c64:	40000093          	li	ra,1024
    6c68:	00001137          	lui	sp,0x1
    6c6c:	80010113          	addi	sp,sp,-2048 # 800 <__div_mod_si3+0x4c>
    6c70:	4020d033          	sra	zero,ra,sp
    6c74:	00000e93          	li	t4,0
    6c78:	02b00e13          	li	t3,43
    6c7c:	01d01463          	bne	zero,t4,6c84 <fail>
    6c80:	03c01c63          	bne	zero,t3,6cb8 <pass>

00006c84 <fail>:
    6c84:	ca5f90ef          	jal	ra,928 <failure>
    6c88:	10000537          	lui	a0,0x10000
    6c8c:	04500593          	li	a1,69
    6c90:	05200613          	li	a2,82
    6c94:	04f00693          	li	a3,79
    6c98:	00a00713          	li	a4,10
    6c9c:	00b52023          	sw	a1,0(a0) # 10000000 <tdat10+0xfff71e7>
    6ca0:	00c52023          	sw	a2,0(a0)
    6ca4:	00c52023          	sw	a2,0(a0)
    6ca8:	00d52023          	sw	a3,0(a0)
    6cac:	00c52023          	sw	a2,0(a0)
    6cb0:	00e52023          	sw	a4,0(a0)
    6cb4:	00100073          	ebreak

00006cb8 <pass>:
    6cb8:	00009137          	lui	sp,0x9
    6cbc:	c79f90ef          	jal	ra,934 <OK>
    6cc0:	00000013          	nop
    6cc4:	e0df906f          	j	ad0 <sra_ret>

00006cc8 <and>:
    6cc8:	00007537          	lui	a0,0x7
    6ccc:	ce850513          	addi	a0,a0,-792 # 6ce8 <.test_name>

00006cd0 <loop>:
    6cd0:	dc4f90ef          	jal	ra,294 <putstr>

00006cd4 <.prname_next>:
    6cd4:	00050583          	lb	a1,0(a0)
    6cd8:	00058a63          	beqz	a1,6cec <.prname_done>
    6cdc:	00b62023          	sw	a1,0(a2)
    6ce0:	00150513          	addi	a0,a0,1
    6ce4:	ff1ff06f          	j	6cd4 <.prname_next>

00006ce8 <.test_name>:
    6ce8:	6e61                	lui	t3,0x18
    6cea:	0064                	addi	s1,sp,12

00006cec <.prname_done>:
    6cec:	02e00593          	li	a1,46
    6cf0:	00b62023          	sw	a1,0(a2)
    6cf4:	00b62023          	sw	a1,0(a2)

00006cf8 <test_2>:
    6cf8:	ff0100b7          	lui	ra,0xff010
    6cfc:	f0008093          	addi	ra,ra,-256 # ff00ff00 <io+0x7f00ff00>
    6d00:	0f0f1137          	lui	sp,0xf0f1
    6d04:	f0f10113          	addi	sp,sp,-241 # f0f0f0f <tdat10+0xf0e80f6>
    6d08:	0020f1b3          	and	gp,ra,sp
    6d0c:	0f001eb7          	lui	t4,0xf001
    6d10:	f00e8e93          	addi	t4,t4,-256 # f000f00 <tdat10+0xeff80e7>
    6d14:	00200e13          	li	t3,2
    6d18:	49d19c63          	bne	gp,t4,71b0 <fail>

00006d1c <test_3>:
    6d1c:	0ff010b7          	lui	ra,0xff01
    6d20:	ff008093          	addi	ra,ra,-16 # ff00ff0 <tdat10+0xfef81d7>
    6d24:	f0f0f137          	lui	sp,0xf0f0f
    6d28:	0f010113          	addi	sp,sp,240 # f0f0f0f0 <io+0x70f0f0f0>
    6d2c:	0020f1b3          	and	gp,ra,sp
    6d30:	00f00eb7          	lui	t4,0xf00
    6d34:	0f0e8e93          	addi	t4,t4,240 # f000f0 <tdat10+0xef72d7>
    6d38:	00300e13          	li	t3,3
    6d3c:	47d19a63          	bne	gp,t4,71b0 <fail>

00006d40 <test_4>:
    6d40:	00ff00b7          	lui	ra,0xff0
    6d44:	0ff08093          	addi	ra,ra,255 # ff00ff <tdat10+0xfe72e6>
    6d48:	0f0f1137          	lui	sp,0xf0f1
    6d4c:	f0f10113          	addi	sp,sp,-241 # f0f0f0f <tdat10+0xf0e80f6>
    6d50:	0020f1b3          	and	gp,ra,sp
    6d54:	000f0eb7          	lui	t4,0xf0
    6d58:	00fe8e93          	addi	t4,t4,15 # f000f <tdat10+0xe71f6>
    6d5c:	00400e13          	li	t3,4
    6d60:	45d19863          	bne	gp,t4,71b0 <fail>

00006d64 <test_5>:
    6d64:	f00ff0b7          	lui	ra,0xf00ff
    6d68:	00f08093          	addi	ra,ra,15 # f00ff00f <io+0x700ff00f>
    6d6c:	f0f0f137          	lui	sp,0xf0f0f
    6d70:	0f010113          	addi	sp,sp,240 # f0f0f0f0 <io+0x70f0f0f0>
    6d74:	0020f1b3          	and	gp,ra,sp
    6d78:	f000feb7          	lui	t4,0xf000f
    6d7c:	00500e13          	li	t3,5
    6d80:	43d19863          	bne	gp,t4,71b0 <fail>

00006d84 <test_6>:
    6d84:	ff0100b7          	lui	ra,0xff010
    6d88:	f0008093          	addi	ra,ra,-256 # ff00ff00 <io+0x7f00ff00>
    6d8c:	0f0f1137          	lui	sp,0xf0f1
    6d90:	f0f10113          	addi	sp,sp,-241 # f0f0f0f <tdat10+0xf0e80f6>
    6d94:	0020f0b3          	and	ra,ra,sp
    6d98:	0f001eb7          	lui	t4,0xf001
    6d9c:	f00e8e93          	addi	t4,t4,-256 # f000f00 <tdat10+0xeff80e7>
    6da0:	00600e13          	li	t3,6
    6da4:	41d09663          	bne	ra,t4,71b0 <fail>

00006da8 <test_7>:
    6da8:	0ff010b7          	lui	ra,0xff01
    6dac:	ff008093          	addi	ra,ra,-16 # ff00ff0 <tdat10+0xfef81d7>
    6db0:	f0f0f137          	lui	sp,0xf0f0f
    6db4:	0f010113          	addi	sp,sp,240 # f0f0f0f0 <io+0x70f0f0f0>
    6db8:	0020f133          	and	sp,ra,sp
    6dbc:	00f00eb7          	lui	t4,0xf00
    6dc0:	0f0e8e93          	addi	t4,t4,240 # f000f0 <tdat10+0xef72d7>
    6dc4:	00700e13          	li	t3,7
    6dc8:	3fd11463          	bne	sp,t4,71b0 <fail>

00006dcc <test_8>:
    6dcc:	ff0100b7          	lui	ra,0xff010
    6dd0:	f0008093          	addi	ra,ra,-256 # ff00ff00 <io+0x7f00ff00>
    6dd4:	0010f0b3          	and	ra,ra,ra
    6dd8:	ff010eb7          	lui	t4,0xff010
    6ddc:	f00e8e93          	addi	t4,t4,-256 # ff00ff00 <io+0x7f00ff00>
    6de0:	00800e13          	li	t3,8
    6de4:	3dd09663          	bne	ra,t4,71b0 <fail>

00006de8 <test_9>:
    6de8:	00000213          	li	tp,0
    6dec:	ff0100b7          	lui	ra,0xff010
    6df0:	f0008093          	addi	ra,ra,-256 # ff00ff00 <io+0x7f00ff00>
    6df4:	0f0f1137          	lui	sp,0xf0f1
    6df8:	f0f10113          	addi	sp,sp,-241 # f0f0f0f <tdat10+0xf0e80f6>
    6dfc:	0020f1b3          	and	gp,ra,sp
    6e00:	00018313          	mv	t1,gp
    6e04:	00120213          	addi	tp,tp,1 # 1 <boot+0x1>
    6e08:	00200293          	li	t0,2
    6e0c:	fe5210e3          	bne	tp,t0,6dec <test_9+0x4>
    6e10:	0f001eb7          	lui	t4,0xf001
    6e14:	f00e8e93          	addi	t4,t4,-256 # f000f00 <tdat10+0xeff80e7>
    6e18:	00900e13          	li	t3,9
    6e1c:	39d31a63          	bne	t1,t4,71b0 <fail>

00006e20 <test_10>:
    6e20:	00000213          	li	tp,0
    6e24:	0ff010b7          	lui	ra,0xff01
    6e28:	ff008093          	addi	ra,ra,-16 # ff00ff0 <tdat10+0xfef81d7>
    6e2c:	f0f0f137          	lui	sp,0xf0f0f
    6e30:	0f010113          	addi	sp,sp,240 # f0f0f0f0 <io+0x70f0f0f0>
    6e34:	0020f1b3          	and	gp,ra,sp
    6e38:	00000013          	nop
    6e3c:	00018313          	mv	t1,gp
    6e40:	00120213          	addi	tp,tp,1 # 1 <boot+0x1>
    6e44:	00200293          	li	t0,2
    6e48:	fc521ee3          	bne	tp,t0,6e24 <test_10+0x4>
    6e4c:	00f00eb7          	lui	t4,0xf00
    6e50:	0f0e8e93          	addi	t4,t4,240 # f000f0 <tdat10+0xef72d7>
    6e54:	00a00e13          	li	t3,10
    6e58:	35d31c63          	bne	t1,t4,71b0 <fail>

00006e5c <test_11>:
    6e5c:	00000213          	li	tp,0
    6e60:	00ff00b7          	lui	ra,0xff0
    6e64:	0ff08093          	addi	ra,ra,255 # ff00ff <tdat10+0xfe72e6>
    6e68:	0f0f1137          	lui	sp,0xf0f1
    6e6c:	f0f10113          	addi	sp,sp,-241 # f0f0f0f <tdat10+0xf0e80f6>
    6e70:	0020f1b3          	and	gp,ra,sp
    6e74:	00000013          	nop
    6e78:	00000013          	nop
    6e7c:	00018313          	mv	t1,gp
    6e80:	00120213          	addi	tp,tp,1 # 1 <boot+0x1>
    6e84:	00200293          	li	t0,2
    6e88:	fc521ce3          	bne	tp,t0,6e60 <test_11+0x4>
    6e8c:	000f0eb7          	lui	t4,0xf0
    6e90:	00fe8e93          	addi	t4,t4,15 # f000f <tdat10+0xe71f6>
    6e94:	00b00e13          	li	t3,11
    6e98:	31d31c63          	bne	t1,t4,71b0 <fail>

00006e9c <test_12>:
    6e9c:	00000213          	li	tp,0
    6ea0:	ff0100b7          	lui	ra,0xff010
    6ea4:	f0008093          	addi	ra,ra,-256 # ff00ff00 <io+0x7f00ff00>
    6ea8:	0f0f1137          	lui	sp,0xf0f1
    6eac:	f0f10113          	addi	sp,sp,-241 # f0f0f0f <tdat10+0xf0e80f6>
    6eb0:	0020f1b3          	and	gp,ra,sp
    6eb4:	00120213          	addi	tp,tp,1 # 1 <boot+0x1>
    6eb8:	00200293          	li	t0,2
    6ebc:	fe5212e3          	bne	tp,t0,6ea0 <test_12+0x4>
    6ec0:	0f001eb7          	lui	t4,0xf001
    6ec4:	f00e8e93          	addi	t4,t4,-256 # f000f00 <tdat10+0xeff80e7>
    6ec8:	00c00e13          	li	t3,12
    6ecc:	2fd19263          	bne	gp,t4,71b0 <fail>

00006ed0 <test_13>:
    6ed0:	00000213          	li	tp,0
    6ed4:	0ff010b7          	lui	ra,0xff01
    6ed8:	ff008093          	addi	ra,ra,-16 # ff00ff0 <tdat10+0xfef81d7>
    6edc:	f0f0f137          	lui	sp,0xf0f0f
    6ee0:	0f010113          	addi	sp,sp,240 # f0f0f0f0 <io+0x70f0f0f0>
    6ee4:	00000013          	nop
    6ee8:	0020f1b3          	and	gp,ra,sp
    6eec:	00120213          	addi	tp,tp,1 # 1 <boot+0x1>
    6ef0:	00200293          	li	t0,2
    6ef4:	fe5210e3          	bne	tp,t0,6ed4 <test_13+0x4>
    6ef8:	00f00eb7          	lui	t4,0xf00
    6efc:	0f0e8e93          	addi	t4,t4,240 # f000f0 <tdat10+0xef72d7>
    6f00:	00d00e13          	li	t3,13
    6f04:	2bd19663          	bne	gp,t4,71b0 <fail>

00006f08 <test_14>:
    6f08:	00000213          	li	tp,0
    6f0c:	00ff00b7          	lui	ra,0xff0
    6f10:	0ff08093          	addi	ra,ra,255 # ff00ff <tdat10+0xfe72e6>
    6f14:	0f0f1137          	lui	sp,0xf0f1
    6f18:	f0f10113          	addi	sp,sp,-241 # f0f0f0f <tdat10+0xf0e80f6>
    6f1c:	00000013          	nop
    6f20:	00000013          	nop
    6f24:	0020f1b3          	and	gp,ra,sp
    6f28:	00120213          	addi	tp,tp,1 # 1 <boot+0x1>
    6f2c:	00200293          	li	t0,2
    6f30:	fc521ee3          	bne	tp,t0,6f0c <test_14+0x4>
    6f34:	000f0eb7          	lui	t4,0xf0
    6f38:	00fe8e93          	addi	t4,t4,15 # f000f <tdat10+0xe71f6>
    6f3c:	00e00e13          	li	t3,14
    6f40:	27d19863          	bne	gp,t4,71b0 <fail>

00006f44 <test_15>:
    6f44:	00000213          	li	tp,0
    6f48:	ff0100b7          	lui	ra,0xff010
    6f4c:	f0008093          	addi	ra,ra,-256 # ff00ff00 <io+0x7f00ff00>
    6f50:	00000013          	nop
    6f54:	0f0f1137          	lui	sp,0xf0f1
    6f58:	f0f10113          	addi	sp,sp,-241 # f0f0f0f <tdat10+0xf0e80f6>
    6f5c:	0020f1b3          	and	gp,ra,sp
    6f60:	00120213          	addi	tp,tp,1 # 1 <boot+0x1>
    6f64:	00200293          	li	t0,2
    6f68:	fe5210e3          	bne	tp,t0,6f48 <test_15+0x4>
    6f6c:	0f001eb7          	lui	t4,0xf001
    6f70:	f00e8e93          	addi	t4,t4,-256 # f000f00 <tdat10+0xeff80e7>
    6f74:	00f00e13          	li	t3,15
    6f78:	23d19c63          	bne	gp,t4,71b0 <fail>

00006f7c <test_16>:
    6f7c:	00000213          	li	tp,0
    6f80:	0ff010b7          	lui	ra,0xff01
    6f84:	ff008093          	addi	ra,ra,-16 # ff00ff0 <tdat10+0xfef81d7>
    6f88:	00000013          	nop
    6f8c:	f0f0f137          	lui	sp,0xf0f0f
    6f90:	0f010113          	addi	sp,sp,240 # f0f0f0f0 <io+0x70f0f0f0>
    6f94:	00000013          	nop
    6f98:	0020f1b3          	and	gp,ra,sp
    6f9c:	00120213          	addi	tp,tp,1 # 1 <boot+0x1>
    6fa0:	00200293          	li	t0,2
    6fa4:	fc521ee3          	bne	tp,t0,6f80 <test_16+0x4>
    6fa8:	00f00eb7          	lui	t4,0xf00
    6fac:	0f0e8e93          	addi	t4,t4,240 # f000f0 <tdat10+0xef72d7>
    6fb0:	01000e13          	li	t3,16
    6fb4:	1fd19e63          	bne	gp,t4,71b0 <fail>

00006fb8 <test_17>:
    6fb8:	00000213          	li	tp,0
    6fbc:	00ff00b7          	lui	ra,0xff0
    6fc0:	0ff08093          	addi	ra,ra,255 # ff00ff <tdat10+0xfe72e6>
    6fc4:	00000013          	nop
    6fc8:	00000013          	nop
    6fcc:	0f0f1137          	lui	sp,0xf0f1
    6fd0:	f0f10113          	addi	sp,sp,-241 # f0f0f0f <tdat10+0xf0e80f6>
    6fd4:	0020f1b3          	and	gp,ra,sp
    6fd8:	00120213          	addi	tp,tp,1 # 1 <boot+0x1>
    6fdc:	00200293          	li	t0,2
    6fe0:	fc521ee3          	bne	tp,t0,6fbc <test_17+0x4>
    6fe4:	000f0eb7          	lui	t4,0xf0
    6fe8:	00fe8e93          	addi	t4,t4,15 # f000f <tdat10+0xe71f6>
    6fec:	01100e13          	li	t3,17
    6ff0:	1dd19063          	bne	gp,t4,71b0 <fail>

00006ff4 <test_18>:
    6ff4:	00000213          	li	tp,0
    6ff8:	0f0f1137          	lui	sp,0xf0f1
    6ffc:	f0f10113          	addi	sp,sp,-241 # f0f0f0f <tdat10+0xf0e80f6>
    7000:	ff0100b7          	lui	ra,0xff010
    7004:	f0008093          	addi	ra,ra,-256 # ff00ff00 <io+0x7f00ff00>
    7008:	0020f1b3          	and	gp,ra,sp
    700c:	00120213          	addi	tp,tp,1 # 1 <boot+0x1>
    7010:	00200293          	li	t0,2
    7014:	fe5212e3          	bne	tp,t0,6ff8 <test_18+0x4>
    7018:	0f001eb7          	lui	t4,0xf001
    701c:	f00e8e93          	addi	t4,t4,-256 # f000f00 <tdat10+0xeff80e7>
    7020:	01200e13          	li	t3,18
    7024:	19d19663          	bne	gp,t4,71b0 <fail>

00007028 <test_19>:
    7028:	00000213          	li	tp,0
    702c:	f0f0f137          	lui	sp,0xf0f0f
    7030:	0f010113          	addi	sp,sp,240 # f0f0f0f0 <io+0x70f0f0f0>
    7034:	0ff010b7          	lui	ra,0xff01
    7038:	ff008093          	addi	ra,ra,-16 # ff00ff0 <tdat10+0xfef81d7>
    703c:	00000013          	nop
    7040:	0020f1b3          	and	gp,ra,sp
    7044:	00120213          	addi	tp,tp,1 # 1 <boot+0x1>
    7048:	00200293          	li	t0,2
    704c:	fe5210e3          	bne	tp,t0,702c <test_19+0x4>
    7050:	00f00eb7          	lui	t4,0xf00
    7054:	0f0e8e93          	addi	t4,t4,240 # f000f0 <tdat10+0xef72d7>
    7058:	01300e13          	li	t3,19
    705c:	15d19a63          	bne	gp,t4,71b0 <fail>

00007060 <test_20>:
    7060:	00000213          	li	tp,0
    7064:	0f0f1137          	lui	sp,0xf0f1
    7068:	f0f10113          	addi	sp,sp,-241 # f0f0f0f <tdat10+0xf0e80f6>
    706c:	00ff00b7          	lui	ra,0xff0
    7070:	0ff08093          	addi	ra,ra,255 # ff00ff <tdat10+0xfe72e6>
    7074:	00000013          	nop
    7078:	00000013          	nop
    707c:	0020f1b3          	and	gp,ra,sp
    7080:	00120213          	addi	tp,tp,1 # 1 <boot+0x1>
    7084:	00200293          	li	t0,2
    7088:	fc521ee3          	bne	tp,t0,7064 <test_20+0x4>
    708c:	000f0eb7          	lui	t4,0xf0
    7090:	00fe8e93          	addi	t4,t4,15 # f000f <tdat10+0xe71f6>
    7094:	01400e13          	li	t3,20
    7098:	11d19c63          	bne	gp,t4,71b0 <fail>

0000709c <test_21>:
    709c:	00000213          	li	tp,0
    70a0:	0f0f1137          	lui	sp,0xf0f1
    70a4:	f0f10113          	addi	sp,sp,-241 # f0f0f0f <tdat10+0xf0e80f6>
    70a8:	00000013          	nop
    70ac:	ff0100b7          	lui	ra,0xff010
    70b0:	f0008093          	addi	ra,ra,-256 # ff00ff00 <io+0x7f00ff00>
    70b4:	0020f1b3          	and	gp,ra,sp
    70b8:	00120213          	addi	tp,tp,1 # 1 <boot+0x1>
    70bc:	00200293          	li	t0,2
    70c0:	fe5210e3          	bne	tp,t0,70a0 <test_21+0x4>
    70c4:	0f001eb7          	lui	t4,0xf001
    70c8:	f00e8e93          	addi	t4,t4,-256 # f000f00 <tdat10+0xeff80e7>
    70cc:	01500e13          	li	t3,21
    70d0:	0fd19063          	bne	gp,t4,71b0 <fail>

000070d4 <test_22>:
    70d4:	00000213          	li	tp,0
    70d8:	f0f0f137          	lui	sp,0xf0f0f
    70dc:	0f010113          	addi	sp,sp,240 # f0f0f0f0 <io+0x70f0f0f0>
    70e0:	00000013          	nop
    70e4:	0ff010b7          	lui	ra,0xff01
    70e8:	ff008093          	addi	ra,ra,-16 # ff00ff0 <tdat10+0xfef81d7>
    70ec:	00000013          	nop
    70f0:	0020f1b3          	and	gp,ra,sp
    70f4:	00120213          	addi	tp,tp,1 # 1 <boot+0x1>
    70f8:	00200293          	li	t0,2
    70fc:	fc521ee3          	bne	tp,t0,70d8 <test_22+0x4>
    7100:	00f00eb7          	lui	t4,0xf00
    7104:	0f0e8e93          	addi	t4,t4,240 # f000f0 <tdat10+0xef72d7>
    7108:	01600e13          	li	t3,22
    710c:	0bd19263          	bne	gp,t4,71b0 <fail>

00007110 <test_23>:
    7110:	00000213          	li	tp,0
    7114:	0f0f1137          	lui	sp,0xf0f1
    7118:	f0f10113          	addi	sp,sp,-241 # f0f0f0f <tdat10+0xf0e80f6>
    711c:	00000013          	nop
    7120:	00000013          	nop
    7124:	00ff00b7          	lui	ra,0xff0
    7128:	0ff08093          	addi	ra,ra,255 # ff00ff <tdat10+0xfe72e6>
    712c:	0020f1b3          	and	gp,ra,sp
    7130:	00120213          	addi	tp,tp,1 # 1 <boot+0x1>
    7134:	00200293          	li	t0,2
    7138:	fc521ee3          	bne	tp,t0,7114 <test_23+0x4>
    713c:	000f0eb7          	lui	t4,0xf0
    7140:	00fe8e93          	addi	t4,t4,15 # f000f <tdat10+0xe71f6>
    7144:	01700e13          	li	t3,23
    7148:	07d19463          	bne	gp,t4,71b0 <fail>

0000714c <test_24>:
    714c:	ff0100b7          	lui	ra,0xff010
    7150:	f0008093          	addi	ra,ra,-256 # ff00ff00 <io+0x7f00ff00>
    7154:	00107133          	and	sp,zero,ra
    7158:	00000e93          	li	t4,0
    715c:	01800e13          	li	t3,24
    7160:	05d11863          	bne	sp,t4,71b0 <fail>

00007164 <test_25>:
    7164:	00ff00b7          	lui	ra,0xff0
    7168:	0ff08093          	addi	ra,ra,255 # ff00ff <tdat10+0xfe72e6>
    716c:	0000f133          	and	sp,ra,zero
    7170:	00000e93          	li	t4,0
    7174:	01900e13          	li	t3,25
    7178:	03d11c63          	bne	sp,t4,71b0 <fail>

0000717c <test_26>:
    717c:	000070b3          	and	ra,zero,zero
    7180:	00000e93          	li	t4,0
    7184:	01a00e13          	li	t3,26
    7188:	03d09463          	bne	ra,t4,71b0 <fail>

0000718c <test_27>:
    718c:	111110b7          	lui	ra,0x11111
    7190:	11108093          	addi	ra,ra,273 # 11111111 <tdat10+0x111082f8>
    7194:	22222137          	lui	sp,0x22222
    7198:	22210113          	addi	sp,sp,546 # 22222222 <tdat10+0x22219409>
    719c:	0020f033          	and	zero,ra,sp
    71a0:	00000e93          	li	t4,0
    71a4:	01b00e13          	li	t3,27
    71a8:	01d01463          	bne	zero,t4,71b0 <fail>
    71ac:	03c01c63          	bne	zero,t3,71e4 <pass>

000071b0 <fail>:
    71b0:	f78f90ef          	jal	ra,928 <failure>
    71b4:	10000537          	lui	a0,0x10000
    71b8:	04500593          	li	a1,69
    71bc:	05200613          	li	a2,82
    71c0:	04f00693          	li	a3,79
    71c4:	00a00713          	li	a4,10
    71c8:	00b52023          	sw	a1,0(a0) # 10000000 <tdat10+0xfff71e7>
    71cc:	00c52023          	sw	a2,0(a0)
    71d0:	00c52023          	sw	a2,0(a0)
    71d4:	00d52023          	sw	a3,0(a0)
    71d8:	00c52023          	sw	a2,0(a0)
    71dc:	00e52023          	sw	a4,0(a0)
    71e0:	00100073          	ebreak

000071e4 <pass>:
    71e4:	00009137          	lui	sp,0x9
    71e8:	f4cf90ef          	jal	ra,934 <OK>
    71ec:	00000013          	nop
    71f0:	8f1f906f          	j	ae0 <and_ret>

000071f4 <ori>:
    71f4:	00007537          	lui	a0,0x7
    71f8:	21450513          	addi	a0,a0,532 # 7214 <.test_name>

000071fc <loop>:
    71fc:	898f90ef          	jal	ra,294 <putstr>

00007200 <.prname_next>:
    7200:	00050583          	lb	a1,0(a0)
    7204:	00058a63          	beqz	a1,7218 <.prname_done>
    7208:	00b62023          	sw	a1,0(a2)
    720c:	00150513          	addi	a0,a0,1
    7210:	ff1ff06f          	j	7200 <.prname_next>

00007214 <.test_name>:
    7214:	0069726f          	jal	tp,9e21a <tdat10+0x95401>

00007218 <.prname_done>:
    7218:	02e00593          	li	a1,46
    721c:	00b62023          	sw	a1,0(a2)
    7220:	00b62023          	sw	a1,0(a2)

00007224 <test_2>:
    7224:	ff0100b7          	lui	ra,0xff010
    7228:	f0008093          	addi	ra,ra,-256 # ff00ff00 <io+0x7f00ff00>
    722c:	f0f0e193          	ori	gp,ra,-241
    7230:	f0f00e93          	li	t4,-241
    7234:	00200e13          	li	t3,2
    7238:	1dd19463          	bne	gp,t4,7400 <fail>

0000723c <test_3>:
    723c:	0ff010b7          	lui	ra,0xff01
    7240:	ff008093          	addi	ra,ra,-16 # ff00ff0 <tdat10+0xfef81d7>
    7244:	0f00e193          	ori	gp,ra,240
    7248:	0ff01eb7          	lui	t4,0xff01
    724c:	ff0e8e93          	addi	t4,t4,-16 # ff00ff0 <tdat10+0xfef81d7>
    7250:	00300e13          	li	t3,3
    7254:	1bd19663          	bne	gp,t4,7400 <fail>

00007258 <test_4>:
    7258:	00ff00b7          	lui	ra,0xff0
    725c:	0ff08093          	addi	ra,ra,255 # ff00ff <tdat10+0xfe72e6>
    7260:	70f0e193          	ori	gp,ra,1807
    7264:	00ff0eb7          	lui	t4,0xff0
    7268:	7ffe8e93          	addi	t4,t4,2047 # ff07ff <tdat10+0xfe79e6>
    726c:	00400e13          	li	t3,4
    7270:	19d19863          	bne	gp,t4,7400 <fail>

00007274 <test_5>:
    7274:	f00ff0b7          	lui	ra,0xf00ff
    7278:	00f08093          	addi	ra,ra,15 # f00ff00f <io+0x700ff00f>
    727c:	0f00e193          	ori	gp,ra,240
    7280:	f00ffeb7          	lui	t4,0xf00ff
    7284:	0ffe8e93          	addi	t4,t4,255 # f00ff0ff <io+0x700ff0ff>
    7288:	00500e13          	li	t3,5
    728c:	17d19a63          	bne	gp,t4,7400 <fail>

00007290 <test_6>:
    7290:	ff0100b7          	lui	ra,0xff010
    7294:	f0008093          	addi	ra,ra,-256 # ff00ff00 <io+0x7f00ff00>
    7298:	0f00e093          	ori	ra,ra,240
    729c:	ff010eb7          	lui	t4,0xff010
    72a0:	ff0e8e93          	addi	t4,t4,-16 # ff00fff0 <io+0x7f00fff0>
    72a4:	00600e13          	li	t3,6
    72a8:	15d09c63          	bne	ra,t4,7400 <fail>

000072ac <test_7>:
    72ac:	00000213          	li	tp,0
    72b0:	0ff010b7          	lui	ra,0xff01
    72b4:	ff008093          	addi	ra,ra,-16 # ff00ff0 <tdat10+0xfef81d7>
    72b8:	0f00e193          	ori	gp,ra,240
    72bc:	00018313          	mv	t1,gp
    72c0:	00120213          	addi	tp,tp,1 # 1 <boot+0x1>
    72c4:	00200293          	li	t0,2
    72c8:	fe5214e3          	bne	tp,t0,72b0 <test_7+0x4>
    72cc:	0ff01eb7          	lui	t4,0xff01
    72d0:	ff0e8e93          	addi	t4,t4,-16 # ff00ff0 <tdat10+0xfef81d7>
    72d4:	00700e13          	li	t3,7
    72d8:	13d31463          	bne	t1,t4,7400 <fail>

000072dc <test_8>:
    72dc:	00000213          	li	tp,0
    72e0:	00ff00b7          	lui	ra,0xff0
    72e4:	0ff08093          	addi	ra,ra,255 # ff00ff <tdat10+0xfe72e6>
    72e8:	70f0e193          	ori	gp,ra,1807
    72ec:	00000013          	nop
    72f0:	00018313          	mv	t1,gp
    72f4:	00120213          	addi	tp,tp,1 # 1 <boot+0x1>
    72f8:	00200293          	li	t0,2
    72fc:	fe5212e3          	bne	tp,t0,72e0 <test_8+0x4>
    7300:	00ff0eb7          	lui	t4,0xff0
    7304:	7ffe8e93          	addi	t4,t4,2047 # ff07ff <tdat10+0xfe79e6>
    7308:	00800e13          	li	t3,8
    730c:	0fd31a63          	bne	t1,t4,7400 <fail>

00007310 <test_9>:
    7310:	00000213          	li	tp,0
    7314:	f00ff0b7          	lui	ra,0xf00ff
    7318:	00f08093          	addi	ra,ra,15 # f00ff00f <io+0x700ff00f>
    731c:	0f00e193          	ori	gp,ra,240
    7320:	00000013          	nop
    7324:	00000013          	nop
    7328:	00018313          	mv	t1,gp
    732c:	00120213          	addi	tp,tp,1 # 1 <boot+0x1>
    7330:	00200293          	li	t0,2
    7334:	fe5210e3          	bne	tp,t0,7314 <test_9+0x4>
    7338:	f00ffeb7          	lui	t4,0xf00ff
    733c:	0ffe8e93          	addi	t4,t4,255 # f00ff0ff <io+0x700ff0ff>
    7340:	00900e13          	li	t3,9
    7344:	0bd31e63          	bne	t1,t4,7400 <fail>

00007348 <test_10>:
    7348:	00000213          	li	tp,0
    734c:	0ff010b7          	lui	ra,0xff01
    7350:	ff008093          	addi	ra,ra,-16 # ff00ff0 <tdat10+0xfef81d7>
    7354:	0f00e193          	ori	gp,ra,240
    7358:	00120213          	addi	tp,tp,1 # 1 <boot+0x1>
    735c:	00200293          	li	t0,2
    7360:	fe5216e3          	bne	tp,t0,734c <test_10+0x4>
    7364:	0ff01eb7          	lui	t4,0xff01
    7368:	ff0e8e93          	addi	t4,t4,-16 # ff00ff0 <tdat10+0xfef81d7>
    736c:	00a00e13          	li	t3,10
    7370:	09d19863          	bne	gp,t4,7400 <fail>

00007374 <test_11>:
    7374:	00000213          	li	tp,0
    7378:	00ff00b7          	lui	ra,0xff0
    737c:	0ff08093          	addi	ra,ra,255 # ff00ff <tdat10+0xfe72e6>
    7380:	00000013          	nop
    7384:	f0f0e193          	ori	gp,ra,-241
    7388:	00120213          	addi	tp,tp,1 # 1 <boot+0x1>
    738c:	00200293          	li	t0,2
    7390:	fe5214e3          	bne	tp,t0,7378 <test_11+0x4>
    7394:	fff00e93          	li	t4,-1
    7398:	00b00e13          	li	t3,11
    739c:	07d19263          	bne	gp,t4,7400 <fail>

000073a0 <test_12>:
    73a0:	00000213          	li	tp,0
    73a4:	f00ff0b7          	lui	ra,0xf00ff
    73a8:	00f08093          	addi	ra,ra,15 # f00ff00f <io+0x700ff00f>
    73ac:	00000013          	nop
    73b0:	00000013          	nop
    73b4:	0f00e193          	ori	gp,ra,240
    73b8:	00120213          	addi	tp,tp,1 # 1 <boot+0x1>
    73bc:	00200293          	li	t0,2
    73c0:	fe5212e3          	bne	tp,t0,73a4 <test_12+0x4>
    73c4:	f00ffeb7          	lui	t4,0xf00ff
    73c8:	0ffe8e93          	addi	t4,t4,255 # f00ff0ff <io+0x700ff0ff>
    73cc:	00c00e13          	li	t3,12
    73d0:	03d19863          	bne	gp,t4,7400 <fail>

000073d4 <test_13>:
    73d4:	0f006093          	ori	ra,zero,240
    73d8:	0f000e93          	li	t4,240
    73dc:	00d00e13          	li	t3,13
    73e0:	03d09063          	bne	ra,t4,7400 <fail>

000073e4 <test_14>:
    73e4:	00ff00b7          	lui	ra,0xff0
    73e8:	0ff08093          	addi	ra,ra,255 # ff00ff <tdat10+0xfe72e6>
    73ec:	70f0e013          	ori	zero,ra,1807
    73f0:	00000e93          	li	t4,0
    73f4:	00e00e13          	li	t3,14
    73f8:	01d01463          	bne	zero,t4,7400 <fail>
    73fc:	03c01c63          	bne	zero,t3,7434 <pass>

00007400 <fail>:
    7400:	d28f90ef          	jal	ra,928 <failure>
    7404:	10000537          	lui	a0,0x10000
    7408:	04500593          	li	a1,69
    740c:	05200613          	li	a2,82
    7410:	04f00693          	li	a3,79
    7414:	00a00713          	li	a4,10
    7418:	00b52023          	sw	a1,0(a0) # 10000000 <tdat10+0xfff71e7>
    741c:	00c52023          	sw	a2,0(a0)
    7420:	00c52023          	sw	a2,0(a0)
    7424:	00d52023          	sw	a3,0(a0)
    7428:	00c52023          	sw	a2,0(a0)
    742c:	00e52023          	sw	a4,0(a0)
    7430:	00100073          	ebreak

00007434 <pass>:
    7434:	00009137          	lui	sp,0x9
    7438:	cfcf90ef          	jal	ra,934 <OK>
    743c:	00000013          	nop
    7440:	e38f906f          	j	a78 <ori_ret>

00007444 <jal>:
    7444:	00007537          	lui	a0,0x7
    7448:	46450513          	addi	a0,a0,1124 # 7464 <.test_name>

0000744c <loop>:
    744c:	e49f80ef          	jal	ra,294 <putstr>

00007450 <.prname_next>:
    7450:	00050583          	lb	a1,0(a0)
    7454:	00058a63          	beqz	a1,7468 <.prname_done>
    7458:	00b62023          	sw	a1,0(a2)
    745c:	00150513          	addi	a0,a0,1
    7460:	ff1ff06f          	j	7450 <.prname_next>

00007464 <.test_name>:
    7464:	616a                	flw	ft2,152(sp)
    7466:	006c                	addi	a1,sp,12

00007468 <.prname_done>:
    7468:	02e00593          	li	a1,46
    746c:	00b62023          	sw	a1,0(a2)
    7470:	00b62023          	sw	a1,0(a2)

00007474 <test_2>:
    7474:	00200e13          	li	t3,2
    7478:	00000093          	li	ra,0

0000747c <linkaddr_2>:
    747c:	010000ef          	jal	ra,748c <target_2>
    7480:	00000013          	nop
    7484:	00000013          	nop
    7488:	0440006f          	j	74cc <fail>

0000748c <target_2>:
    748c:	00000117          	auipc	sp,0x0
    7490:	ff010113          	addi	sp,sp,-16 # 747c <linkaddr_2>
    7494:	00410113          	addi	sp,sp,4
    7498:	02111a63          	bne	sp,ra,74cc <fail>

0000749c <test_3>:
    749c:	00100113          	li	sp,1
    74a0:	014000ef          	jal	ra,74b4 <test_3+0x18>
    74a4:	00110113          	addi	sp,sp,1
    74a8:	00110113          	addi	sp,sp,1
    74ac:	00110113          	addi	sp,sp,1
    74b0:	00110113          	addi	sp,sp,1
    74b4:	00110113          	addi	sp,sp,1
    74b8:	00110113          	addi	sp,sp,1
    74bc:	00300e93          	li	t4,3
    74c0:	00300e13          	li	t3,3
    74c4:	01d11463          	bne	sp,t4,74cc <fail>
    74c8:	03c01c63          	bne	zero,t3,7500 <pass>

000074cc <fail>:
    74cc:	c5cf90ef          	jal	ra,928 <failure>
    74d0:	10000537          	lui	a0,0x10000
    74d4:	04500593          	li	a1,69
    74d8:	05200613          	li	a2,82
    74dc:	04f00693          	li	a3,79
    74e0:	00a00713          	li	a4,10
    74e4:	00b52023          	sw	a1,0(a0) # 10000000 <tdat10+0xfff71e7>
    74e8:	00c52023          	sw	a2,0(a0)
    74ec:	00c52023          	sw	a2,0(a0)
    74f0:	00d52023          	sw	a3,0(a0)
    74f4:	00c52023          	sw	a2,0(a0)
    74f8:	00e52023          	sw	a4,0(a0)
    74fc:	00100073          	ebreak

00007500 <pass>:
    7500:	00009137          	lui	sp,0x9
    7504:	c30f90ef          	jal	ra,934 <OK>
    7508:	00000013          	nop
    750c:	cd4f906f          	j	9e0 <jal_ret>

00007510 <add>:
    7510:	00007537          	lui	a0,0x7
    7514:	53050513          	addi	a0,a0,1328 # 7530 <.test_name>

00007518 <loop>:
    7518:	d7df80ef          	jal	ra,294 <putstr>

0000751c <.prname_next>:
    751c:	00050583          	lb	a1,0(a0)
    7520:	00058a63          	beqz	a1,7534 <.prname_done>
    7524:	00b62023          	sw	a1,0(a2)
    7528:	00150513          	addi	a0,a0,1
    752c:	ff1ff06f          	j	751c <.prname_next>

00007530 <.test_name>:
    7530:	6461                	lui	s0,0x18
    7532:	0064                	addi	s1,sp,12

00007534 <.prname_done>:
    7534:	02e00593          	li	a1,46
    7538:	00b62023          	sw	a1,0(a2)
    753c:	00b62023          	sw	a1,0(a2)

00007540 <test_2>:
    7540:	00000093          	li	ra,0
    7544:	00000113          	li	sp,0
    7548:	002081b3          	add	gp,ra,sp
    754c:	00000e93          	li	t4,0
    7550:	00200e13          	li	t3,2
    7554:	4dd19663          	bne	gp,t4,7a20 <fail>

00007558 <test_3>:
    7558:	00100093          	li	ra,1
    755c:	00100113          	li	sp,1
    7560:	002081b3          	add	gp,ra,sp
    7564:	00200e93          	li	t4,2
    7568:	00300e13          	li	t3,3
    756c:	4bd19a63          	bne	gp,t4,7a20 <fail>

00007570 <test_4>:
    7570:	00300093          	li	ra,3
    7574:	00700113          	li	sp,7
    7578:	002081b3          	add	gp,ra,sp
    757c:	00a00e93          	li	t4,10
    7580:	00400e13          	li	t3,4
    7584:	49d19e63          	bne	gp,t4,7a20 <fail>

00007588 <test_5>:
    7588:	00000093          	li	ra,0
    758c:	ffff8137          	lui	sp,0xffff8
    7590:	002081b3          	add	gp,ra,sp
    7594:	ffff8eb7          	lui	t4,0xffff8
    7598:	00500e13          	li	t3,5
    759c:	49d19263          	bne	gp,t4,7a20 <fail>

000075a0 <test_6>:
    75a0:	800000b7          	lui	ra,0x80000
    75a4:	00000113          	li	sp,0
    75a8:	002081b3          	add	gp,ra,sp
    75ac:	80000eb7          	lui	t4,0x80000
    75b0:	00600e13          	li	t3,6
    75b4:	47d19663          	bne	gp,t4,7a20 <fail>

000075b8 <test_7>:
    75b8:	800000b7          	lui	ra,0x80000
    75bc:	ffff8137          	lui	sp,0xffff8
    75c0:	002081b3          	add	gp,ra,sp
    75c4:	7fff8eb7          	lui	t4,0x7fff8
    75c8:	00700e13          	li	t3,7
    75cc:	45d19a63          	bne	gp,t4,7a20 <fail>

000075d0 <test_8>:
    75d0:	00000093          	li	ra,0
    75d4:	00008137          	lui	sp,0x8
    75d8:	fff10113          	addi	sp,sp,-1 # 7fff <test_9+0x27>
    75dc:	002081b3          	add	gp,ra,sp
    75e0:	00008eb7          	lui	t4,0x8
    75e4:	fffe8e93          	addi	t4,t4,-1 # 7fff <test_9+0x27>
    75e8:	00800e13          	li	t3,8
    75ec:	43d19a63          	bne	gp,t4,7a20 <fail>

000075f0 <test_9>:
    75f0:	800000b7          	lui	ra,0x80000
    75f4:	fff08093          	addi	ra,ra,-1 # 7fffffff <io+0xffffffff>
    75f8:	00000113          	li	sp,0
    75fc:	002081b3          	add	gp,ra,sp
    7600:	80000eb7          	lui	t4,0x80000
    7604:	fffe8e93          	addi	t4,t4,-1 # 7fffffff <io+0xffffffff>
    7608:	00900e13          	li	t3,9
    760c:	41d19a63          	bne	gp,t4,7a20 <fail>

00007610 <test_10>:
    7610:	800000b7          	lui	ra,0x80000
    7614:	fff08093          	addi	ra,ra,-1 # 7fffffff <io+0xffffffff>
    7618:	00008137          	lui	sp,0x8
    761c:	fff10113          	addi	sp,sp,-1 # 7fff <test_9+0x27>
    7620:	002081b3          	add	gp,ra,sp
    7624:	80008eb7          	lui	t4,0x80008
    7628:	ffee8e93          	addi	t4,t4,-2 # 80007ffe <io+0x7ffe>
    762c:	00a00e13          	li	t3,10
    7630:	3fd19863          	bne	gp,t4,7a20 <fail>

00007634 <test_11>:
    7634:	800000b7          	lui	ra,0x80000
    7638:	00008137          	lui	sp,0x8
    763c:	fff10113          	addi	sp,sp,-1 # 7fff <test_9+0x27>
    7640:	002081b3          	add	gp,ra,sp
    7644:	80008eb7          	lui	t4,0x80008
    7648:	fffe8e93          	addi	t4,t4,-1 # 80007fff <io+0x7fff>
    764c:	00b00e13          	li	t3,11
    7650:	3dd19863          	bne	gp,t4,7a20 <fail>

00007654 <test_12>:
    7654:	800000b7          	lui	ra,0x80000
    7658:	fff08093          	addi	ra,ra,-1 # 7fffffff <io+0xffffffff>
    765c:	ffff8137          	lui	sp,0xffff8
    7660:	002081b3          	add	gp,ra,sp
    7664:	7fff8eb7          	lui	t4,0x7fff8
    7668:	fffe8e93          	addi	t4,t4,-1 # 7fff7fff <tdat10+0x7ffef1e6>
    766c:	00c00e13          	li	t3,12
    7670:	3bd19863          	bne	gp,t4,7a20 <fail>

00007674 <test_13>:
    7674:	00000093          	li	ra,0
    7678:	fff00113          	li	sp,-1
    767c:	002081b3          	add	gp,ra,sp
    7680:	fff00e93          	li	t4,-1
    7684:	00d00e13          	li	t3,13
    7688:	39d19c63          	bne	gp,t4,7a20 <fail>

0000768c <test_14>:
    768c:	fff00093          	li	ra,-1
    7690:	00100113          	li	sp,1
    7694:	002081b3          	add	gp,ra,sp
    7698:	00000e93          	li	t4,0
    769c:	00e00e13          	li	t3,14
    76a0:	39d19063          	bne	gp,t4,7a20 <fail>

000076a4 <test_15>:
    76a4:	fff00093          	li	ra,-1
    76a8:	fff00113          	li	sp,-1
    76ac:	002081b3          	add	gp,ra,sp
    76b0:	ffe00e93          	li	t4,-2
    76b4:	00f00e13          	li	t3,15
    76b8:	37d19463          	bne	gp,t4,7a20 <fail>

000076bc <test_16>:
    76bc:	00100093          	li	ra,1
    76c0:	80000137          	lui	sp,0x80000
    76c4:	fff10113          	addi	sp,sp,-1 # 7fffffff <io+0xffffffff>
    76c8:	002081b3          	add	gp,ra,sp
    76cc:	80000eb7          	lui	t4,0x80000
    76d0:	01000e13          	li	t3,16
    76d4:	35d19663          	bne	gp,t4,7a20 <fail>

000076d8 <test_17>:
    76d8:	00d00093          	li	ra,13
    76dc:	00b00113          	li	sp,11
    76e0:	002080b3          	add	ra,ra,sp
    76e4:	01800e93          	li	t4,24
    76e8:	01100e13          	li	t3,17
    76ec:	33d09a63          	bne	ra,t4,7a20 <fail>

000076f0 <test_18>:
    76f0:	00e00093          	li	ra,14
    76f4:	00b00113          	li	sp,11
    76f8:	00208133          	add	sp,ra,sp
    76fc:	01900e93          	li	t4,25
    7700:	01200e13          	li	t3,18
    7704:	31d11e63          	bne	sp,t4,7a20 <fail>

00007708 <test_19>:
    7708:	00d00093          	li	ra,13
    770c:	001080b3          	add	ra,ra,ra
    7710:	01a00e93          	li	t4,26
    7714:	01300e13          	li	t3,19
    7718:	31d09463          	bne	ra,t4,7a20 <fail>

0000771c <test_20>:
    771c:	00000213          	li	tp,0
    7720:	00d00093          	li	ra,13
    7724:	00b00113          	li	sp,11
    7728:	002081b3          	add	gp,ra,sp
    772c:	00018313          	mv	t1,gp
    7730:	00120213          	addi	tp,tp,1 # 1 <boot+0x1>
    7734:	00200293          	li	t0,2
    7738:	fe5214e3          	bne	tp,t0,7720 <test_20+0x4>
    773c:	01800e93          	li	t4,24
    7740:	01400e13          	li	t3,20
    7744:	2dd31e63          	bne	t1,t4,7a20 <fail>

00007748 <test_21>:
    7748:	00000213          	li	tp,0
    774c:	00e00093          	li	ra,14
    7750:	00b00113          	li	sp,11
    7754:	002081b3          	add	gp,ra,sp
    7758:	00000013          	nop
    775c:	00018313          	mv	t1,gp
    7760:	00120213          	addi	tp,tp,1 # 1 <boot+0x1>
    7764:	00200293          	li	t0,2
    7768:	fe5212e3          	bne	tp,t0,774c <test_21+0x4>
    776c:	01900e93          	li	t4,25
    7770:	01500e13          	li	t3,21
    7774:	2bd31663          	bne	t1,t4,7a20 <fail>

00007778 <test_22>:
    7778:	00000213          	li	tp,0
    777c:	00f00093          	li	ra,15
    7780:	00b00113          	li	sp,11
    7784:	002081b3          	add	gp,ra,sp
    7788:	00000013          	nop
    778c:	00000013          	nop
    7790:	00018313          	mv	t1,gp
    7794:	00120213          	addi	tp,tp,1 # 1 <boot+0x1>
    7798:	00200293          	li	t0,2
    779c:	fe5210e3          	bne	tp,t0,777c <test_22+0x4>
    77a0:	01a00e93          	li	t4,26
    77a4:	01600e13          	li	t3,22
    77a8:	27d31c63          	bne	t1,t4,7a20 <fail>

000077ac <test_23>:
    77ac:	00000213          	li	tp,0
    77b0:	00d00093          	li	ra,13
    77b4:	00b00113          	li	sp,11
    77b8:	002081b3          	add	gp,ra,sp
    77bc:	00120213          	addi	tp,tp,1 # 1 <boot+0x1>
    77c0:	00200293          	li	t0,2
    77c4:	fe5216e3          	bne	tp,t0,77b0 <test_23+0x4>
    77c8:	01800e93          	li	t4,24
    77cc:	01700e13          	li	t3,23
    77d0:	25d19863          	bne	gp,t4,7a20 <fail>

000077d4 <test_24>:
    77d4:	00000213          	li	tp,0
    77d8:	00e00093          	li	ra,14
    77dc:	00b00113          	li	sp,11
    77e0:	00000013          	nop
    77e4:	002081b3          	add	gp,ra,sp
    77e8:	00120213          	addi	tp,tp,1 # 1 <boot+0x1>
    77ec:	00200293          	li	t0,2
    77f0:	fe5214e3          	bne	tp,t0,77d8 <test_24+0x4>
    77f4:	01900e93          	li	t4,25
    77f8:	01800e13          	li	t3,24
    77fc:	23d19263          	bne	gp,t4,7a20 <fail>

00007800 <test_25>:
    7800:	00000213          	li	tp,0
    7804:	00f00093          	li	ra,15
    7808:	00b00113          	li	sp,11
    780c:	00000013          	nop
    7810:	00000013          	nop
    7814:	002081b3          	add	gp,ra,sp
    7818:	00120213          	addi	tp,tp,1 # 1 <boot+0x1>
    781c:	00200293          	li	t0,2
    7820:	fe5212e3          	bne	tp,t0,7804 <test_25+0x4>
    7824:	01a00e93          	li	t4,26
    7828:	01900e13          	li	t3,25
    782c:	1fd19a63          	bne	gp,t4,7a20 <fail>

00007830 <test_26>:
    7830:	00000213          	li	tp,0
    7834:	00d00093          	li	ra,13
    7838:	00000013          	nop
    783c:	00b00113          	li	sp,11
    7840:	002081b3          	add	gp,ra,sp
    7844:	00120213          	addi	tp,tp,1 # 1 <boot+0x1>
    7848:	00200293          	li	t0,2
    784c:	fe5214e3          	bne	tp,t0,7834 <test_26+0x4>
    7850:	01800e93          	li	t4,24
    7854:	01a00e13          	li	t3,26
    7858:	1dd19463          	bne	gp,t4,7a20 <fail>

0000785c <test_27>:
    785c:	00000213          	li	tp,0
    7860:	00e00093          	li	ra,14
    7864:	00000013          	nop
    7868:	00b00113          	li	sp,11
    786c:	00000013          	nop
    7870:	002081b3          	add	gp,ra,sp
    7874:	00120213          	addi	tp,tp,1 # 1 <boot+0x1>
    7878:	00200293          	li	t0,2
    787c:	fe5212e3          	bne	tp,t0,7860 <test_27+0x4>
    7880:	01900e93          	li	t4,25
    7884:	01b00e13          	li	t3,27
    7888:	19d19c63          	bne	gp,t4,7a20 <fail>

0000788c <test_28>:
    788c:	00000213          	li	tp,0
    7890:	00f00093          	li	ra,15
    7894:	00000013          	nop
    7898:	00000013          	nop
    789c:	00b00113          	li	sp,11
    78a0:	002081b3          	add	gp,ra,sp
    78a4:	00120213          	addi	tp,tp,1 # 1 <boot+0x1>
    78a8:	00200293          	li	t0,2
    78ac:	fe5212e3          	bne	tp,t0,7890 <test_28+0x4>
    78b0:	01a00e93          	li	t4,26
    78b4:	01c00e13          	li	t3,28
    78b8:	17d19463          	bne	gp,t4,7a20 <fail>

000078bc <test_29>:
    78bc:	00000213          	li	tp,0
    78c0:	00b00113          	li	sp,11
    78c4:	00d00093          	li	ra,13
    78c8:	002081b3          	add	gp,ra,sp
    78cc:	00120213          	addi	tp,tp,1 # 1 <boot+0x1>
    78d0:	00200293          	li	t0,2
    78d4:	fe5216e3          	bne	tp,t0,78c0 <test_29+0x4>
    78d8:	01800e93          	li	t4,24
    78dc:	01d00e13          	li	t3,29
    78e0:	15d19063          	bne	gp,t4,7a20 <fail>

000078e4 <test_30>:
    78e4:	00000213          	li	tp,0
    78e8:	00b00113          	li	sp,11
    78ec:	00e00093          	li	ra,14
    78f0:	00000013          	nop
    78f4:	002081b3          	add	gp,ra,sp
    78f8:	00120213          	addi	tp,tp,1 # 1 <boot+0x1>
    78fc:	00200293          	li	t0,2
    7900:	fe5214e3          	bne	tp,t0,78e8 <test_30+0x4>
    7904:	01900e93          	li	t4,25
    7908:	01e00e13          	li	t3,30
    790c:	11d19a63          	bne	gp,t4,7a20 <fail>

00007910 <test_31>:
    7910:	00000213          	li	tp,0
    7914:	00b00113          	li	sp,11
    7918:	00f00093          	li	ra,15
    791c:	00000013          	nop
    7920:	00000013          	nop
    7924:	002081b3          	add	gp,ra,sp
    7928:	00120213          	addi	tp,tp,1 # 1 <boot+0x1>
    792c:	00200293          	li	t0,2
    7930:	fe5212e3          	bne	tp,t0,7914 <test_31+0x4>
    7934:	01a00e93          	li	t4,26
    7938:	01f00e13          	li	t3,31
    793c:	0fd19263          	bne	gp,t4,7a20 <fail>

00007940 <test_32>:
    7940:	00000213          	li	tp,0
    7944:	00b00113          	li	sp,11
    7948:	00000013          	nop
    794c:	00d00093          	li	ra,13
    7950:	002081b3          	add	gp,ra,sp
    7954:	00120213          	addi	tp,tp,1 # 1 <boot+0x1>
    7958:	00200293          	li	t0,2
    795c:	fe5214e3          	bne	tp,t0,7944 <test_32+0x4>
    7960:	01800e93          	li	t4,24
    7964:	02000e13          	li	t3,32
    7968:	0bd19c63          	bne	gp,t4,7a20 <fail>

0000796c <test_33>:
    796c:	00000213          	li	tp,0
    7970:	00b00113          	li	sp,11
    7974:	00000013          	nop
    7978:	00e00093          	li	ra,14
    797c:	00000013          	nop
    7980:	002081b3          	add	gp,ra,sp
    7984:	00120213          	addi	tp,tp,1 # 1 <boot+0x1>
    7988:	00200293          	li	t0,2
    798c:	fe5212e3          	bne	tp,t0,7970 <test_33+0x4>
    7990:	01900e93          	li	t4,25
    7994:	02100e13          	li	t3,33
    7998:	09d19463          	bne	gp,t4,7a20 <fail>

0000799c <test_34>:
    799c:	00000213          	li	tp,0
    79a0:	00b00113          	li	sp,11
    79a4:	00000013          	nop
    79a8:	00000013          	nop
    79ac:	00f00093          	li	ra,15
    79b0:	002081b3          	add	gp,ra,sp
    79b4:	00120213          	addi	tp,tp,1 # 1 <boot+0x1>
    79b8:	00200293          	li	t0,2
    79bc:	fe5212e3          	bne	tp,t0,79a0 <test_34+0x4>
    79c0:	01a00e93          	li	t4,26
    79c4:	02200e13          	li	t3,34
    79c8:	05d19c63          	bne	gp,t4,7a20 <fail>

000079cc <test_35>:
    79cc:	00f00093          	li	ra,15
    79d0:	00100133          	add	sp,zero,ra
    79d4:	00f00e93          	li	t4,15
    79d8:	02300e13          	li	t3,35
    79dc:	05d11263          	bne	sp,t4,7a20 <fail>

000079e0 <test_36>:
    79e0:	02000093          	li	ra,32
    79e4:	00008133          	add	sp,ra,zero
    79e8:	02000e93          	li	t4,32
    79ec:	02400e13          	li	t3,36
    79f0:	03d11863          	bne	sp,t4,7a20 <fail>

000079f4 <test_37>:
    79f4:	000000b3          	add	ra,zero,zero
    79f8:	00000e93          	li	t4,0
    79fc:	02500e13          	li	t3,37
    7a00:	03d09063          	bne	ra,t4,7a20 <fail>

00007a04 <test_38>:
    7a04:	01000093          	li	ra,16
    7a08:	01e00113          	li	sp,30
    7a0c:	00208033          	add	zero,ra,sp
    7a10:	00000e93          	li	t4,0
    7a14:	02600e13          	li	t3,38
    7a18:	01d01463          	bne	zero,t4,7a20 <fail>
    7a1c:	03c01c63          	bne	zero,t3,7a54 <pass>

00007a20 <fail>:
    7a20:	f09f80ef          	jal	ra,928 <failure>
    7a24:	10000537          	lui	a0,0x10000
    7a28:	04500593          	li	a1,69
    7a2c:	05200613          	li	a2,82
    7a30:	04f00693          	li	a3,79
    7a34:	00a00713          	li	a4,10
    7a38:	00b52023          	sw	a1,0(a0) # 10000000 <tdat10+0xfff71e7>
    7a3c:	00c52023          	sw	a2,0(a0)
    7a40:	00c52023          	sw	a2,0(a0)
    7a44:	00d52023          	sw	a3,0(a0)
    7a48:	00c52023          	sw	a2,0(a0)
    7a4c:	00e52023          	sw	a4,0(a0)
    7a50:	00100073          	ebreak

00007a54 <pass>:
    7a54:	00009137          	lui	sp,0x9
    7a58:	eddf80ef          	jal	ra,934 <OK>
    7a5c:	00000013          	nop
    7a60:	840f906f          	j	aa0 <add_ret>

00007a64 <sb>:
    7a64:	00008537          	lui	a0,0x8
    7a68:	a8450513          	addi	a0,a0,-1404 # 7a84 <.test_name>

00007a6c <loop>:
    7a6c:	829f80ef          	jal	ra,294 <putstr>

00007a70 <.prname_next>:
    7a70:	00050583          	lb	a1,0(a0)
    7a74:	00058a63          	beqz	a1,7a88 <.prname_done>
    7a78:	00b62023          	sw	a1,0(a2)
    7a7c:	00150513          	addi	a0,a0,1
    7a80:	ff1ff06f          	j	7a70 <.prname_next>

00007a84 <.test_name>:
    7a84:	00006273          	csrrsi	tp,ustatus,0

00007a88 <.prname_done>:
    7a88:	02e00593          	li	a1,46
    7a8c:	00b62023          	sw	a1,0(a2)
    7a90:	00b62023          	sw	a1,0(a2)

00007a94 <test_2>:
    7a94:	00001097          	auipc	ra,0x1
    7a98:	37c08093          	addi	ra,ra,892 # 8e10 <tdat>
    7a9c:	faa00113          	li	sp,-86
    7aa0:	00208023          	sb	sp,0(ra)
    7aa4:	00008183          	lb	gp,0(ra)
    7aa8:	faa00e93          	li	t4,-86
    7aac:	00200e13          	li	t3,2
    7ab0:	3dd19c63          	bne	gp,t4,7e88 <fail>

00007ab4 <test_3>:
    7ab4:	00001097          	auipc	ra,0x1
    7ab8:	35c08093          	addi	ra,ra,860 # 8e10 <tdat>
    7abc:	00000113          	li	sp,0
    7ac0:	002080a3          	sb	sp,1(ra)
    7ac4:	00108183          	lb	gp,1(ra)
    7ac8:	00000e93          	li	t4,0
    7acc:	00300e13          	li	t3,3
    7ad0:	3bd19c63          	bne	gp,t4,7e88 <fail>

00007ad4 <test_4>:
    7ad4:	00001097          	auipc	ra,0x1
    7ad8:	33c08093          	addi	ra,ra,828 # 8e10 <tdat>
    7adc:	fffff137          	lui	sp,0xfffff
    7ae0:	fa010113          	addi	sp,sp,-96 # ffffefa0 <io+0x7fffefa0>
    7ae4:	00208123          	sb	sp,2(ra)
    7ae8:	00209183          	lh	gp,2(ra)
    7aec:	fffffeb7          	lui	t4,0xfffff
    7af0:	fa0e8e93          	addi	t4,t4,-96 # ffffefa0 <io+0x7fffefa0>
    7af4:	00400e13          	li	t3,4
    7af8:	39d19863          	bne	gp,t4,7e88 <fail>

00007afc <test_5>:
    7afc:	00001097          	auipc	ra,0x1
    7b00:	31408093          	addi	ra,ra,788 # 8e10 <tdat>
    7b04:	00a00113          	li	sp,10
    7b08:	002081a3          	sb	sp,3(ra)
    7b0c:	00308183          	lb	gp,3(ra)
    7b10:	00a00e93          	li	t4,10
    7b14:	00500e13          	li	t3,5
    7b18:	37d19863          	bne	gp,t4,7e88 <fail>

00007b1c <test_6>:
    7b1c:	00001097          	auipc	ra,0x1
    7b20:	2fb08093          	addi	ra,ra,763 # 8e17 <tdat8>
    7b24:	faa00113          	li	sp,-86
    7b28:	fe208ea3          	sb	sp,-3(ra)
    7b2c:	ffd08183          	lb	gp,-3(ra)
    7b30:	faa00e93          	li	t4,-86
    7b34:	00600e13          	li	t3,6
    7b38:	35d19863          	bne	gp,t4,7e88 <fail>

00007b3c <test_7>:
    7b3c:	00001097          	auipc	ra,0x1
    7b40:	2db08093          	addi	ra,ra,731 # 8e17 <tdat8>
    7b44:	00000113          	li	sp,0
    7b48:	fe208f23          	sb	sp,-2(ra)
    7b4c:	ffe08183          	lb	gp,-2(ra)
    7b50:	00000e93          	li	t4,0
    7b54:	00700e13          	li	t3,7
    7b58:	33d19863          	bne	gp,t4,7e88 <fail>

00007b5c <test_8>:
    7b5c:	00001097          	auipc	ra,0x1
    7b60:	2bb08093          	addi	ra,ra,699 # 8e17 <tdat8>
    7b64:	fa000113          	li	sp,-96
    7b68:	fe208fa3          	sb	sp,-1(ra)
    7b6c:	fff08183          	lb	gp,-1(ra)
    7b70:	fa000e93          	li	t4,-96
    7b74:	00800e13          	li	t3,8
    7b78:	31d19863          	bne	gp,t4,7e88 <fail>

00007b7c <test_9>:
    7b7c:	00001097          	auipc	ra,0x1
    7b80:	29b08093          	addi	ra,ra,667 # 8e17 <tdat8>
    7b84:	00a00113          	li	sp,10
    7b88:	00208023          	sb	sp,0(ra)
    7b8c:	00008183          	lb	gp,0(ra)
    7b90:	00a00e93          	li	t4,10
    7b94:	00900e13          	li	t3,9
    7b98:	2fd19863          	bne	gp,t4,7e88 <fail>

00007b9c <test_10>:
    7b9c:	00001097          	auipc	ra,0x1
    7ba0:	27c08093          	addi	ra,ra,636 # 8e18 <tdat9>
    7ba4:	12345137          	lui	sp,0x12345
    7ba8:	67810113          	addi	sp,sp,1656 # 12345678 <tdat10+0x1233c85f>
    7bac:	fe008213          	addi	tp,ra,-32
    7bb0:	02220023          	sb	sp,32(tp) # 20 <boot+0x20>
    7bb4:	00008183          	lb	gp,0(ra)
    7bb8:	07800e93          	li	t4,120
    7bbc:	00a00e13          	li	t3,10
    7bc0:	2dd19463          	bne	gp,t4,7e88 <fail>

00007bc4 <test_11>:
    7bc4:	00001097          	auipc	ra,0x1
    7bc8:	25408093          	addi	ra,ra,596 # 8e18 <tdat9>
    7bcc:	00003137          	lui	sp,0x3
    7bd0:	09810113          	addi	sp,sp,152 # 3098 <test_17+0x14>
    7bd4:	ffa08093          	addi	ra,ra,-6
    7bd8:	002083a3          	sb	sp,7(ra)
    7bdc:	00001217          	auipc	tp,0x1
    7be0:	23d20213          	addi	tp,tp,573 # 8e19 <tdat10>
    7be4:	00020183          	lb	gp,0(tp) # 0 <boot>
    7be8:	f9800e93          	li	t4,-104
    7bec:	00b00e13          	li	t3,11
    7bf0:	29d19c63          	bne	gp,t4,7e88 <fail>

00007bf4 <test_12>:
    7bf4:	00c00e13          	li	t3,12
    7bf8:	00000213          	li	tp,0
    7bfc:	fdd00093          	li	ra,-35
    7c00:	00001117          	auipc	sp,0x1
    7c04:	21010113          	addi	sp,sp,528 # 8e10 <tdat>
    7c08:	00110023          	sb	ra,0(sp)
    7c0c:	00010183          	lb	gp,0(sp)
    7c10:	fdd00e93          	li	t4,-35
    7c14:	27d19a63          	bne	gp,t4,7e88 <fail>
    7c18:	00120213          	addi	tp,tp,1 # 1 <boot+0x1>
    7c1c:	00200293          	li	t0,2
    7c20:	fc521ee3          	bne	tp,t0,7bfc <test_12+0x8>

00007c24 <test_13>:
    7c24:	00d00e13          	li	t3,13
    7c28:	00000213          	li	tp,0
    7c2c:	fcd00093          	li	ra,-51
    7c30:	00001117          	auipc	sp,0x1
    7c34:	1e010113          	addi	sp,sp,480 # 8e10 <tdat>
    7c38:	00000013          	nop
    7c3c:	001100a3          	sb	ra,1(sp)
    7c40:	00110183          	lb	gp,1(sp)
    7c44:	fcd00e93          	li	t4,-51
    7c48:	25d19063          	bne	gp,t4,7e88 <fail>
    7c4c:	00120213          	addi	tp,tp,1 # 1 <boot+0x1>
    7c50:	00200293          	li	t0,2
    7c54:	fc521ce3          	bne	tp,t0,7c2c <test_13+0x8>

00007c58 <test_14>:
    7c58:	00e00e13          	li	t3,14
    7c5c:	00000213          	li	tp,0
    7c60:	fcc00093          	li	ra,-52
    7c64:	00001117          	auipc	sp,0x1
    7c68:	1ac10113          	addi	sp,sp,428 # 8e10 <tdat>
    7c6c:	00000013          	nop
    7c70:	00000013          	nop
    7c74:	00110123          	sb	ra,2(sp)
    7c78:	00210183          	lb	gp,2(sp)
    7c7c:	fcc00e93          	li	t4,-52
    7c80:	21d19463          	bne	gp,t4,7e88 <fail>
    7c84:	00120213          	addi	tp,tp,1 # 1 <boot+0x1>
    7c88:	00200293          	li	t0,2
    7c8c:	fc521ae3          	bne	tp,t0,7c60 <test_14+0x8>

00007c90 <test_15>:
    7c90:	00f00e13          	li	t3,15
    7c94:	00000213          	li	tp,0
    7c98:	fbc00093          	li	ra,-68
    7c9c:	00000013          	nop
    7ca0:	00001117          	auipc	sp,0x1
    7ca4:	17010113          	addi	sp,sp,368 # 8e10 <tdat>
    7ca8:	001101a3          	sb	ra,3(sp)
    7cac:	00310183          	lb	gp,3(sp)
    7cb0:	fbc00e93          	li	t4,-68
    7cb4:	1dd19a63          	bne	gp,t4,7e88 <fail>
    7cb8:	00120213          	addi	tp,tp,1 # 1 <boot+0x1>
    7cbc:	00200293          	li	t0,2
    7cc0:	fc521ce3          	bne	tp,t0,7c98 <test_15+0x8>

00007cc4 <test_16>:
    7cc4:	01000e13          	li	t3,16
    7cc8:	00000213          	li	tp,0
    7ccc:	fbb00093          	li	ra,-69
    7cd0:	00000013          	nop
    7cd4:	00001117          	auipc	sp,0x1
    7cd8:	13c10113          	addi	sp,sp,316 # 8e10 <tdat>
    7cdc:	00000013          	nop
    7ce0:	00110223          	sb	ra,4(sp)
    7ce4:	00410183          	lb	gp,4(sp)
    7ce8:	fbb00e93          	li	t4,-69
    7cec:	19d19e63          	bne	gp,t4,7e88 <fail>
    7cf0:	00120213          	addi	tp,tp,1 # 1 <boot+0x1>
    7cf4:	00200293          	li	t0,2
    7cf8:	fc521ae3          	bne	tp,t0,7ccc <test_16+0x8>

00007cfc <test_17>:
    7cfc:	01100e13          	li	t3,17
    7d00:	00000213          	li	tp,0
    7d04:	fab00093          	li	ra,-85
    7d08:	00000013          	nop
    7d0c:	00000013          	nop
    7d10:	00001117          	auipc	sp,0x1
    7d14:	10010113          	addi	sp,sp,256 # 8e10 <tdat>
    7d18:	001102a3          	sb	ra,5(sp)
    7d1c:	00510183          	lb	gp,5(sp)
    7d20:	fab00e93          	li	t4,-85
    7d24:	17d19263          	bne	gp,t4,7e88 <fail>
    7d28:	00120213          	addi	tp,tp,1 # 1 <boot+0x1>
    7d2c:	00200293          	li	t0,2
    7d30:	fc521ae3          	bne	tp,t0,7d04 <test_17+0x8>

00007d34 <test_18>:
    7d34:	01200e13          	li	t3,18
    7d38:	00000213          	li	tp,0
    7d3c:	00001117          	auipc	sp,0x1
    7d40:	0d410113          	addi	sp,sp,212 # 8e10 <tdat>
    7d44:	03300093          	li	ra,51
    7d48:	00110023          	sb	ra,0(sp)
    7d4c:	00010183          	lb	gp,0(sp)
    7d50:	03300e93          	li	t4,51
    7d54:	13d19a63          	bne	gp,t4,7e88 <fail>
    7d58:	00120213          	addi	tp,tp,1 # 1 <boot+0x1>
    7d5c:	00200293          	li	t0,2
    7d60:	fc521ee3          	bne	tp,t0,7d3c <test_18+0x8>

00007d64 <test_19>:
    7d64:	01300e13          	li	t3,19
    7d68:	00000213          	li	tp,0
    7d6c:	00001117          	auipc	sp,0x1
    7d70:	0a410113          	addi	sp,sp,164 # 8e10 <tdat>
    7d74:	02300093          	li	ra,35
    7d78:	00000013          	nop
    7d7c:	001100a3          	sb	ra,1(sp)
    7d80:	00110183          	lb	gp,1(sp)
    7d84:	02300e93          	li	t4,35
    7d88:	11d19063          	bne	gp,t4,7e88 <fail>
    7d8c:	00120213          	addi	tp,tp,1 # 1 <boot+0x1>
    7d90:	00200293          	li	t0,2
    7d94:	fc521ce3          	bne	tp,t0,7d6c <test_19+0x8>

00007d98 <test_20>:
    7d98:	01400e13          	li	t3,20
    7d9c:	00000213          	li	tp,0
    7da0:	00001117          	auipc	sp,0x1
    7da4:	07010113          	addi	sp,sp,112 # 8e10 <tdat>
    7da8:	02200093          	li	ra,34
    7dac:	00000013          	nop
    7db0:	00000013          	nop
    7db4:	00110123          	sb	ra,2(sp)
    7db8:	00210183          	lb	gp,2(sp)
    7dbc:	02200e93          	li	t4,34
    7dc0:	0dd19463          	bne	gp,t4,7e88 <fail>
    7dc4:	00120213          	addi	tp,tp,1 # 1 <boot+0x1>
    7dc8:	00200293          	li	t0,2
    7dcc:	fc521ae3          	bne	tp,t0,7da0 <test_20+0x8>

00007dd0 <test_21>:
    7dd0:	01500e13          	li	t3,21
    7dd4:	00000213          	li	tp,0
    7dd8:	00001117          	auipc	sp,0x1
    7ddc:	03810113          	addi	sp,sp,56 # 8e10 <tdat>
    7de0:	00000013          	nop
    7de4:	01200093          	li	ra,18
    7de8:	001101a3          	sb	ra,3(sp)
    7dec:	00310183          	lb	gp,3(sp)
    7df0:	01200e93          	li	t4,18
    7df4:	09d19a63          	bne	gp,t4,7e88 <fail>
    7df8:	00120213          	addi	tp,tp,1 # 1 <boot+0x1>
    7dfc:	00200293          	li	t0,2
    7e00:	fc521ce3          	bne	tp,t0,7dd8 <test_21+0x8>

00007e04 <test_22>:
    7e04:	01600e13          	li	t3,22
    7e08:	00000213          	li	tp,0
    7e0c:	00001117          	auipc	sp,0x1
    7e10:	00410113          	addi	sp,sp,4 # 8e10 <tdat>
    7e14:	00000013          	nop
    7e18:	01100093          	li	ra,17
    7e1c:	00000013          	nop
    7e20:	00110223          	sb	ra,4(sp)
    7e24:	00410183          	lb	gp,4(sp)
    7e28:	01100e93          	li	t4,17
    7e2c:	05d19e63          	bne	gp,t4,7e88 <fail>
    7e30:	00120213          	addi	tp,tp,1 # 1 <boot+0x1>
    7e34:	00200293          	li	t0,2
    7e38:	fc521ae3          	bne	tp,t0,7e0c <test_22+0x8>

00007e3c <test_23>:
    7e3c:	01700e13          	li	t3,23
    7e40:	00000213          	li	tp,0
    7e44:	00001117          	auipc	sp,0x1
    7e48:	fcc10113          	addi	sp,sp,-52 # 8e10 <tdat>
    7e4c:	00000013          	nop
    7e50:	00000013          	nop
    7e54:	00100093          	li	ra,1
    7e58:	001102a3          	sb	ra,5(sp)
    7e5c:	00510183          	lb	gp,5(sp)
    7e60:	00100e93          	li	t4,1
    7e64:	03d19263          	bne	gp,t4,7e88 <fail>
    7e68:	00120213          	addi	tp,tp,1 # 1 <boot+0x1>
    7e6c:	00200293          	li	t0,2
    7e70:	fc521ae3          	bne	tp,t0,7e44 <test_23+0x8>
    7e74:	0ef00513          	li	a0,239
    7e78:	00001597          	auipc	a1,0x1
    7e7c:	f9858593          	addi	a1,a1,-104 # 8e10 <tdat>
    7e80:	00a581a3          	sb	a0,3(a1)
    7e84:	03c01c63          	bne	zero,t3,7ebc <pass>

00007e88 <fail>:
    7e88:	aa1f80ef          	jal	ra,928 <failure>
    7e8c:	10000537          	lui	a0,0x10000
    7e90:	04500593          	li	a1,69
    7e94:	05200613          	li	a2,82
    7e98:	04f00693          	li	a3,79
    7e9c:	00a00713          	li	a4,10
    7ea0:	00b52023          	sw	a1,0(a0) # 10000000 <tdat10+0xfff71e7>
    7ea4:	00c52023          	sw	a2,0(a0)
    7ea8:	00c52023          	sw	a2,0(a0)
    7eac:	00d52023          	sw	a3,0(a0)
    7eb0:	00c52023          	sw	a2,0(a0)
    7eb4:	00e52023          	sw	a4,0(a0)
    7eb8:	00100073          	ebreak

00007ebc <pass>:
    7ebc:	00009137          	lui	sp,0x9
    7ec0:	a75f80ef          	jal	ra,934 <OK>
    7ec4:	00000013          	nop
    7ec8:	b81f806f          	j	a48 <sb_ret>

00007ecc <andi>:
    7ecc:	00008537          	lui	a0,0x8
    7ed0:	eec50513          	addi	a0,a0,-276 # 7eec <.test_name>

00007ed4 <loop>:
    7ed4:	bc0f80ef          	jal	ra,294 <putstr>

00007ed8 <.prname_next>:
    7ed8:	00050583          	lb	a1,0(a0)
    7edc:	00058c63          	beqz	a1,7ef4 <.prname_done>
    7ee0:	00b62023          	sw	a1,0(a2)
    7ee4:	00150513          	addi	a0,a0,1
    7ee8:	ff1ff06f          	j	7ed8 <.prname_next>

00007eec <.test_name>:
    7eec:	6e61                	lui	t3,0x18
    7eee:	6964                	flw	fs1,84(a0)
    7ef0:	0000                	unimp
	...

00007ef4 <.prname_done>:
    7ef4:	02e00593          	li	a1,46
    7ef8:	00b62023          	sw	a1,0(a2)
    7efc:	00b62023          	sw	a1,0(a2)

00007f00 <test_2>:
    7f00:	ff0100b7          	lui	ra,0xff010
    7f04:	f0008093          	addi	ra,ra,-256 # ff00ff00 <io+0x7f00ff00>
    7f08:	f0f0f193          	andi	gp,ra,-241
    7f0c:	ff010eb7          	lui	t4,0xff010
    7f10:	f00e8e93          	addi	t4,t4,-256 # ff00ff00 <io+0x7f00ff00>
    7f14:	00200e13          	li	t3,2
    7f18:	1bd19463          	bne	gp,t4,80c0 <fail>

00007f1c <test_3>:
    7f1c:	0ff010b7          	lui	ra,0xff01
    7f20:	ff008093          	addi	ra,ra,-16 # ff00ff0 <tdat10+0xfef81d7>
    7f24:	0f00f193          	andi	gp,ra,240
    7f28:	0f000e93          	li	t4,240
    7f2c:	00300e13          	li	t3,3
    7f30:	19d19863          	bne	gp,t4,80c0 <fail>

00007f34 <test_4>:
    7f34:	00ff00b7          	lui	ra,0xff0
    7f38:	0ff08093          	addi	ra,ra,255 # ff00ff <tdat10+0xfe72e6>
    7f3c:	70f0f193          	andi	gp,ra,1807
    7f40:	00f00e93          	li	t4,15
    7f44:	00400e13          	li	t3,4
    7f48:	17d19c63          	bne	gp,t4,80c0 <fail>

00007f4c <test_5>:
    7f4c:	f00ff0b7          	lui	ra,0xf00ff
    7f50:	00f08093          	addi	ra,ra,15 # f00ff00f <io+0x700ff00f>
    7f54:	0f00f193          	andi	gp,ra,240
    7f58:	00000e93          	li	t4,0
    7f5c:	00500e13          	li	t3,5
    7f60:	17d19063          	bne	gp,t4,80c0 <fail>

00007f64 <test_6>:
    7f64:	ff0100b7          	lui	ra,0xff010
    7f68:	f0008093          	addi	ra,ra,-256 # ff00ff00 <io+0x7f00ff00>
    7f6c:	0f00f093          	andi	ra,ra,240
    7f70:	00000e93          	li	t4,0
    7f74:	00600e13          	li	t3,6
    7f78:	15d09463          	bne	ra,t4,80c0 <fail>

00007f7c <test_7>:
    7f7c:	00000213          	li	tp,0
    7f80:	0ff010b7          	lui	ra,0xff01
    7f84:	ff008093          	addi	ra,ra,-16 # ff00ff0 <tdat10+0xfef81d7>
    7f88:	70f0f193          	andi	gp,ra,1807
    7f8c:	00018313          	mv	t1,gp
    7f90:	00120213          	addi	tp,tp,1 # 1 <boot+0x1>
    7f94:	00200293          	li	t0,2
    7f98:	fe5214e3          	bne	tp,t0,7f80 <test_7+0x4>
    7f9c:	70000e93          	li	t4,1792
    7fa0:	00700e13          	li	t3,7
    7fa4:	11d31e63          	bne	t1,t4,80c0 <fail>

00007fa8 <test_8>:
    7fa8:	00000213          	li	tp,0
    7fac:	00ff00b7          	lui	ra,0xff0
    7fb0:	0ff08093          	addi	ra,ra,255 # ff00ff <tdat10+0xfe72e6>
    7fb4:	0f00f193          	andi	gp,ra,240
    7fb8:	00000013          	nop
    7fbc:	00018313          	mv	t1,gp
    7fc0:	00120213          	addi	tp,tp,1 # 1 <boot+0x1>
    7fc4:	00200293          	li	t0,2
    7fc8:	fe5212e3          	bne	tp,t0,7fac <test_8+0x4>
    7fcc:	0f000e93          	li	t4,240
    7fd0:	00800e13          	li	t3,8
    7fd4:	0fd31663          	bne	t1,t4,80c0 <fail>

00007fd8 <test_9>:
    7fd8:	00000213          	li	tp,0
    7fdc:	f00ff0b7          	lui	ra,0xf00ff
    7fe0:	00f08093          	addi	ra,ra,15 # f00ff00f <io+0x700ff00f>
    7fe4:	f0f0f193          	andi	gp,ra,-241
    7fe8:	00000013          	nop
    7fec:	00000013          	nop
    7ff0:	00018313          	mv	t1,gp
    7ff4:	00120213          	addi	tp,tp,1 # 1 <boot+0x1>
    7ff8:	00200293          	li	t0,2
    7ffc:	fe5210e3          	bne	tp,t0,7fdc <test_9+0x4>
    8000:	f00ffeb7          	lui	t4,0xf00ff
    8004:	00fe8e93          	addi	t4,t4,15 # f00ff00f <io+0x700ff00f>
    8008:	00900e13          	li	t3,9
    800c:	0bd31a63          	bne	t1,t4,80c0 <fail>

00008010 <test_10>:
    8010:	00000213          	li	tp,0
    8014:	0ff010b7          	lui	ra,0xff01
    8018:	ff008093          	addi	ra,ra,-16 # ff00ff0 <tdat10+0xfef81d7>
    801c:	70f0f193          	andi	gp,ra,1807
    8020:	00120213          	addi	tp,tp,1 # 1 <boot+0x1>
    8024:	00200293          	li	t0,2
    8028:	fe5216e3          	bne	tp,t0,8014 <test_10+0x4>
    802c:	70000e93          	li	t4,1792
    8030:	00a00e13          	li	t3,10
    8034:	09d19663          	bne	gp,t4,80c0 <fail>

00008038 <test_11>:
    8038:	00000213          	li	tp,0
    803c:	00ff00b7          	lui	ra,0xff0
    8040:	0ff08093          	addi	ra,ra,255 # ff00ff <tdat10+0xfe72e6>
    8044:	00000013          	nop
    8048:	0f00f193          	andi	gp,ra,240
    804c:	00120213          	addi	tp,tp,1 # 1 <boot+0x1>
    8050:	00200293          	li	t0,2
    8054:	fe5214e3          	bne	tp,t0,803c <test_11+0x4>
    8058:	0f000e93          	li	t4,240
    805c:	00b00e13          	li	t3,11
    8060:	07d19063          	bne	gp,t4,80c0 <fail>

00008064 <test_12>:
    8064:	00000213          	li	tp,0
    8068:	f00ff0b7          	lui	ra,0xf00ff
    806c:	00f08093          	addi	ra,ra,15 # f00ff00f <io+0x700ff00f>
    8070:	00000013          	nop
    8074:	00000013          	nop
    8078:	70f0f193          	andi	gp,ra,1807
    807c:	00120213          	addi	tp,tp,1 # 1 <boot+0x1>
    8080:	00200293          	li	t0,2
    8084:	fe5212e3          	bne	tp,t0,8068 <test_12+0x4>
    8088:	00f00e93          	li	t4,15
    808c:	00c00e13          	li	t3,12
    8090:	03d19863          	bne	gp,t4,80c0 <fail>

00008094 <test_13>:
    8094:	0f007093          	andi	ra,zero,240
    8098:	00000e93          	li	t4,0
    809c:	00d00e13          	li	t3,13
    80a0:	03d09063          	bne	ra,t4,80c0 <fail>

000080a4 <test_14>:
    80a4:	00ff00b7          	lui	ra,0xff0
    80a8:	0ff08093          	addi	ra,ra,255 # ff00ff <tdat10+0xfe72e6>
    80ac:	70f0f013          	andi	zero,ra,1807
    80b0:	00000e93          	li	t4,0
    80b4:	00e00e13          	li	t3,14
    80b8:	01d01463          	bne	zero,t4,80c0 <fail>
    80bc:	03c01c63          	bne	zero,t3,80f4 <pass>

000080c0 <fail>:
    80c0:	869f80ef          	jal	ra,928 <failure>
    80c4:	10000537          	lui	a0,0x10000
    80c8:	04500593          	li	a1,69
    80cc:	05200613          	li	a2,82
    80d0:	04f00693          	li	a3,79
    80d4:	00a00713          	li	a4,10
    80d8:	00b52023          	sw	a1,0(a0) # 10000000 <tdat10+0xfff71e7>
    80dc:	00c52023          	sw	a2,0(a0)
    80e0:	00c52023          	sw	a2,0(a0)
    80e4:	00d52023          	sw	a3,0(a0)
    80e8:	00c52023          	sw	a2,0(a0)
    80ec:	00e52023          	sw	a4,0(a0)
    80f0:	00100073          	ebreak

000080f4 <pass>:
    80f4:	00009137          	lui	sp,0x9
    80f8:	83df80ef          	jal	ra,934 <OK>
    80fc:	00000013          	nop
    8100:	981f806f          	j	a80 <andi_ret>

00008104 <j>:
    8104:	00008537          	lui	a0,0x8
    8108:	12450513          	addi	a0,a0,292 # 8124 <.test_name>

0000810c <loop>:
    810c:	988f80ef          	jal	ra,294 <putstr>

00008110 <.prname_next>:
    8110:	00050583          	lb	a1,0(a0)
    8114:	00058a63          	beqz	a1,8128 <.prname_done>
    8118:	00b62023          	sw	a1,0(a2)
    811c:	00150513          	addi	a0,a0,1
    8120:	ff1ff06f          	j	8110 <.prname_next>

00008124 <.test_name>:
    8124:	006a                	c.slli	zero,0x1a
	...

00008128 <.prname_done>:
    8128:	02e00593          	li	a1,46
    812c:	00b62023          	sw	a1,0(a2)
    8130:	00b62023          	sw	a1,0(a2)
    8134:	00200e13          	li	t3,2
    8138:	0080006f          	j	8140 <test_2>
    813c:	0340006f          	j	8170 <fail>

00008140 <test_2>:
    8140:	00100093          	li	ra,1
    8144:	0140006f          	j	8158 <test_2+0x18>
    8148:	00108093          	addi	ra,ra,1
    814c:	00108093          	addi	ra,ra,1
    8150:	00108093          	addi	ra,ra,1
    8154:	00108093          	addi	ra,ra,1
    8158:	00108093          	addi	ra,ra,1
    815c:	00108093          	addi	ra,ra,1
    8160:	00300e93          	li	t4,3
    8164:	00300e13          	li	t3,3
    8168:	01d09463          	bne	ra,t4,8170 <fail>
    816c:	03c01c63          	bne	zero,t3,81a4 <pass>

00008170 <fail>:
    8170:	fb8f80ef          	jal	ra,928 <failure>
    8174:	10000537          	lui	a0,0x10000
    8178:	04500593          	li	a1,69
    817c:	05200613          	li	a2,82
    8180:	04f00693          	li	a3,79
    8184:	00a00713          	li	a4,10
    8188:	00b52023          	sw	a1,0(a0) # 10000000 <tdat10+0xfff71e7>
    818c:	00c52023          	sw	a2,0(a0)
    8190:	00c52023          	sw	a2,0(a0)
    8194:	00d52023          	sw	a3,0(a0)
    8198:	00c52023          	sw	a2,0(a0)
    819c:	00e52023          	sw	a4,0(a0)
    81a0:	00100073          	ebreak

000081a4 <pass>:
    81a4:	00009137          	lui	sp,0x9
    81a8:	f8cf80ef          	jal	ra,934 <OK>
    81ac:	00000013          	nop
    81b0:	829f806f          	j	9d8 <j_ret>

000081b4 <bge>:
    81b4:	00008537          	lui	a0,0x8
    81b8:	1d450513          	addi	a0,a0,468 # 81d4 <.test_name>

000081bc <loop>:
    81bc:	8d8f80ef          	jal	ra,294 <putstr>

000081c0 <.prname_next>:
    81c0:	00050583          	lb	a1,0(a0)
    81c4:	00058a63          	beqz	a1,81d8 <.prname_done>
    81c8:	00b62023          	sw	a1,0(a2)
    81cc:	00150513          	addi	a0,a0,1
    81d0:	ff1ff06f          	j	81c0 <.prname_next>

000081d4 <.test_name>:
    81d4:	6762                	flw	fa4,24(sp)
    81d6:	0065                	c.nop	25

000081d8 <.prname_done>:
    81d8:	02e00593          	li	a1,46
    81dc:	00b62023          	sw	a1,0(a2)
    81e0:	00b62023          	sw	a1,0(a2)

000081e4 <test_2>:
    81e4:	00200e13          	li	t3,2
    81e8:	00000093          	li	ra,0
    81ec:	00000113          	li	sp,0
    81f0:	0020d663          	bge	ra,sp,81fc <test_2+0x18>
    81f4:	31c01863          	bne	zero,t3,8504 <fail>
    81f8:	01c01663          	bne	zero,t3,8204 <test_3>
    81fc:	fe20dee3          	bge	ra,sp,81f8 <test_2+0x14>
    8200:	31c01263          	bne	zero,t3,8504 <fail>

00008204 <test_3>:
    8204:	00300e13          	li	t3,3
    8208:	00100093          	li	ra,1
    820c:	00100113          	li	sp,1
    8210:	0020d663          	bge	ra,sp,821c <test_3+0x18>
    8214:	2fc01863          	bne	zero,t3,8504 <fail>
    8218:	01c01663          	bne	zero,t3,8224 <test_4>
    821c:	fe20dee3          	bge	ra,sp,8218 <test_3+0x14>
    8220:	2fc01263          	bne	zero,t3,8504 <fail>

00008224 <test_4>:
    8224:	00400e13          	li	t3,4
    8228:	fff00093          	li	ra,-1
    822c:	fff00113          	li	sp,-1
    8230:	0020d663          	bge	ra,sp,823c <test_4+0x18>
    8234:	2dc01863          	bne	zero,t3,8504 <fail>
    8238:	01c01663          	bne	zero,t3,8244 <test_5>
    823c:	fe20dee3          	bge	ra,sp,8238 <test_4+0x14>
    8240:	2dc01263          	bne	zero,t3,8504 <fail>

00008244 <test_5>:
    8244:	00500e13          	li	t3,5
    8248:	00100093          	li	ra,1
    824c:	00000113          	li	sp,0
    8250:	0020d663          	bge	ra,sp,825c <test_5+0x18>
    8254:	2bc01863          	bne	zero,t3,8504 <fail>
    8258:	01c01663          	bne	zero,t3,8264 <test_6>
    825c:	fe20dee3          	bge	ra,sp,8258 <test_5+0x14>
    8260:	2bc01263          	bne	zero,t3,8504 <fail>

00008264 <test_6>:
    8264:	00600e13          	li	t3,6
    8268:	00100093          	li	ra,1
    826c:	fff00113          	li	sp,-1
    8270:	0020d663          	bge	ra,sp,827c <test_6+0x18>
    8274:	29c01863          	bne	zero,t3,8504 <fail>
    8278:	01c01663          	bne	zero,t3,8284 <test_7>
    827c:	fe20dee3          	bge	ra,sp,8278 <test_6+0x14>
    8280:	29c01263          	bne	zero,t3,8504 <fail>

00008284 <test_7>:
    8284:	00700e13          	li	t3,7
    8288:	fff00093          	li	ra,-1
    828c:	ffe00113          	li	sp,-2
    8290:	0020d663          	bge	ra,sp,829c <test_7+0x18>
    8294:	27c01863          	bne	zero,t3,8504 <fail>
    8298:	01c01663          	bne	zero,t3,82a4 <test_8>
    829c:	fe20dee3          	bge	ra,sp,8298 <test_7+0x14>
    82a0:	27c01263          	bne	zero,t3,8504 <fail>

000082a4 <test_8>:
    82a4:	00800e13          	li	t3,8
    82a8:	00000093          	li	ra,0
    82ac:	00100113          	li	sp,1
    82b0:	0020d463          	bge	ra,sp,82b8 <test_8+0x14>
    82b4:	01c01463          	bne	zero,t3,82bc <test_8+0x18>
    82b8:	25c01663          	bne	zero,t3,8504 <fail>
    82bc:	fe20dee3          	bge	ra,sp,82b8 <test_8+0x14>

000082c0 <test_9>:
    82c0:	00900e13          	li	t3,9
    82c4:	fff00093          	li	ra,-1
    82c8:	00100113          	li	sp,1
    82cc:	0020d463          	bge	ra,sp,82d4 <test_9+0x14>
    82d0:	01c01463          	bne	zero,t3,82d8 <test_9+0x18>
    82d4:	23c01863          	bne	zero,t3,8504 <fail>
    82d8:	fe20dee3          	bge	ra,sp,82d4 <test_9+0x14>

000082dc <test_10>:
    82dc:	00a00e13          	li	t3,10
    82e0:	ffe00093          	li	ra,-2
    82e4:	fff00113          	li	sp,-1
    82e8:	0020d463          	bge	ra,sp,82f0 <test_10+0x14>
    82ec:	01c01463          	bne	zero,t3,82f4 <test_10+0x18>
    82f0:	21c01a63          	bne	zero,t3,8504 <fail>
    82f4:	fe20dee3          	bge	ra,sp,82f0 <test_10+0x14>

000082f8 <test_11>:
    82f8:	00b00e13          	li	t3,11
    82fc:	ffe00093          	li	ra,-2
    8300:	00100113          	li	sp,1
    8304:	0020d463          	bge	ra,sp,830c <test_11+0x14>
    8308:	01c01463          	bne	zero,t3,8310 <test_11+0x18>
    830c:	1fc01c63          	bne	zero,t3,8504 <fail>
    8310:	fe20dee3          	bge	ra,sp,830c <test_11+0x14>

00008314 <test_12>:
    8314:	00c00e13          	li	t3,12
    8318:	00000213          	li	tp,0
    831c:	fff00093          	li	ra,-1
    8320:	00000113          	li	sp,0
    8324:	1e20d063          	bge	ra,sp,8504 <fail>
    8328:	00120213          	addi	tp,tp,1 # 1 <boot+0x1>
    832c:	00200293          	li	t0,2
    8330:	fe5216e3          	bne	tp,t0,831c <test_12+0x8>

00008334 <test_13>:
    8334:	00d00e13          	li	t3,13
    8338:	00000213          	li	tp,0
    833c:	fff00093          	li	ra,-1
    8340:	00000113          	li	sp,0
    8344:	00000013          	nop
    8348:	1a20de63          	bge	ra,sp,8504 <fail>
    834c:	00120213          	addi	tp,tp,1 # 1 <boot+0x1>
    8350:	00200293          	li	t0,2
    8354:	fe5214e3          	bne	tp,t0,833c <test_13+0x8>

00008358 <test_14>:
    8358:	00e00e13          	li	t3,14
    835c:	00000213          	li	tp,0
    8360:	fff00093          	li	ra,-1
    8364:	00000113          	li	sp,0
    8368:	00000013          	nop
    836c:	00000013          	nop
    8370:	1820da63          	bge	ra,sp,8504 <fail>
    8374:	00120213          	addi	tp,tp,1 # 1 <boot+0x1>
    8378:	00200293          	li	t0,2
    837c:	fe5212e3          	bne	tp,t0,8360 <test_14+0x8>

00008380 <test_15>:
    8380:	00f00e13          	li	t3,15
    8384:	00000213          	li	tp,0
    8388:	fff00093          	li	ra,-1
    838c:	00000013          	nop
    8390:	00000113          	li	sp,0
    8394:	1620d863          	bge	ra,sp,8504 <fail>
    8398:	00120213          	addi	tp,tp,1 # 1 <boot+0x1>
    839c:	00200293          	li	t0,2
    83a0:	fe5214e3          	bne	tp,t0,8388 <test_15+0x8>

000083a4 <test_16>:
    83a4:	01000e13          	li	t3,16
    83a8:	00000213          	li	tp,0
    83ac:	fff00093          	li	ra,-1
    83b0:	00000013          	nop
    83b4:	00000113          	li	sp,0
    83b8:	00000013          	nop
    83bc:	1420d463          	bge	ra,sp,8504 <fail>
    83c0:	00120213          	addi	tp,tp,1 # 1 <boot+0x1>
    83c4:	00200293          	li	t0,2
    83c8:	fe5212e3          	bne	tp,t0,83ac <test_16+0x8>

000083cc <test_17>:
    83cc:	01100e13          	li	t3,17
    83d0:	00000213          	li	tp,0
    83d4:	fff00093          	li	ra,-1
    83d8:	00000013          	nop
    83dc:	00000013          	nop
    83e0:	00000113          	li	sp,0
    83e4:	1220d063          	bge	ra,sp,8504 <fail>
    83e8:	00120213          	addi	tp,tp,1 # 1 <boot+0x1>
    83ec:	00200293          	li	t0,2
    83f0:	fe5212e3          	bne	tp,t0,83d4 <test_17+0x8>

000083f4 <test_18>:
    83f4:	01200e13          	li	t3,18
    83f8:	00000213          	li	tp,0
    83fc:	fff00093          	li	ra,-1
    8400:	00000113          	li	sp,0
    8404:	1020d063          	bge	ra,sp,8504 <fail>
    8408:	00120213          	addi	tp,tp,1 # 1 <boot+0x1>
    840c:	00200293          	li	t0,2
    8410:	fe5216e3          	bne	tp,t0,83fc <test_18+0x8>

00008414 <test_19>:
    8414:	01300e13          	li	t3,19
    8418:	00000213          	li	tp,0
    841c:	fff00093          	li	ra,-1
    8420:	00000113          	li	sp,0
    8424:	00000013          	nop
    8428:	0c20de63          	bge	ra,sp,8504 <fail>
    842c:	00120213          	addi	tp,tp,1 # 1 <boot+0x1>
    8430:	00200293          	li	t0,2
    8434:	fe5214e3          	bne	tp,t0,841c <test_19+0x8>

00008438 <test_20>:
    8438:	01400e13          	li	t3,20
    843c:	00000213          	li	tp,0
    8440:	fff00093          	li	ra,-1
    8444:	00000113          	li	sp,0
    8448:	00000013          	nop
    844c:	00000013          	nop
    8450:	0a20da63          	bge	ra,sp,8504 <fail>
    8454:	00120213          	addi	tp,tp,1 # 1 <boot+0x1>
    8458:	00200293          	li	t0,2
    845c:	fe5212e3          	bne	tp,t0,8440 <test_20+0x8>

00008460 <test_21>:
    8460:	01500e13          	li	t3,21
    8464:	00000213          	li	tp,0
    8468:	fff00093          	li	ra,-1
    846c:	00000013          	nop
    8470:	00000113          	li	sp,0
    8474:	0820d863          	bge	ra,sp,8504 <fail>
    8478:	00120213          	addi	tp,tp,1 # 1 <boot+0x1>
    847c:	00200293          	li	t0,2
    8480:	fe5214e3          	bne	tp,t0,8468 <test_21+0x8>

00008484 <test_22>:
    8484:	01600e13          	li	t3,22
    8488:	00000213          	li	tp,0
    848c:	fff00093          	li	ra,-1
    8490:	00000013          	nop
    8494:	00000113          	li	sp,0
    8498:	00000013          	nop
    849c:	0620d463          	bge	ra,sp,8504 <fail>
    84a0:	00120213          	addi	tp,tp,1 # 1 <boot+0x1>
    84a4:	00200293          	li	t0,2
    84a8:	fe5212e3          	bne	tp,t0,848c <test_22+0x8>

000084ac <test_23>:
    84ac:	01700e13          	li	t3,23
    84b0:	00000213          	li	tp,0
    84b4:	fff00093          	li	ra,-1
    84b8:	00000013          	nop
    84bc:	00000013          	nop
    84c0:	00000113          	li	sp,0
    84c4:	0420d063          	bge	ra,sp,8504 <fail>
    84c8:	00120213          	addi	tp,tp,1 # 1 <boot+0x1>
    84cc:	00200293          	li	t0,2
    84d0:	fe5212e3          	bne	tp,t0,84b4 <test_23+0x8>

000084d4 <test_24>:
    84d4:	00100093          	li	ra,1
    84d8:	0000da63          	bgez	ra,84ec <test_24+0x18>
    84dc:	00108093          	addi	ra,ra,1
    84e0:	00108093          	addi	ra,ra,1
    84e4:	00108093          	addi	ra,ra,1
    84e8:	00108093          	addi	ra,ra,1
    84ec:	00108093          	addi	ra,ra,1
    84f0:	00108093          	addi	ra,ra,1
    84f4:	00300e93          	li	t4,3
    84f8:	01800e13          	li	t3,24
    84fc:	01d09463          	bne	ra,t4,8504 <fail>
    8500:	03c01c63          	bne	zero,t3,8538 <pass>

00008504 <fail>:
    8504:	c24f80ef          	jal	ra,928 <failure>
    8508:	10000537          	lui	a0,0x10000
    850c:	04500593          	li	a1,69
    8510:	05200613          	li	a2,82
    8514:	04f00693          	li	a3,79
    8518:	00a00713          	li	a4,10
    851c:	00b52023          	sw	a1,0(a0) # 10000000 <tdat10+0xfff71e7>
    8520:	00c52023          	sw	a2,0(a0)
    8524:	00c52023          	sw	a2,0(a0)
    8528:	00d52023          	sw	a3,0(a0)
    852c:	00c52023          	sw	a2,0(a0)
    8530:	00e52023          	sw	a4,0(a0)
    8534:	00100073          	ebreak

00008538 <pass>:
    8538:	00009137          	lui	sp,0x9
    853c:	bf8f80ef          	jal	ra,934 <OK>
    8540:	00000013          	nop
    8544:	cc4f806f          	j	a08 <bge_ret>

00008548 <blt>:
    8548:	00008537          	lui	a0,0x8
    854c:	56850513          	addi	a0,a0,1384 # 8568 <.test_name>

00008550 <loop>:
    8550:	d45f70ef          	jal	ra,294 <putstr>

00008554 <.prname_next>:
    8554:	00050583          	lb	a1,0(a0)
    8558:	00058a63          	beqz	a1,856c <.prname_done>
    855c:	00b62023          	sw	a1,0(a2)
    8560:	00150513          	addi	a0,a0,1
    8564:	ff1ff06f          	j	8554 <.prname_next>

00008568 <.test_name>:
    8568:	6c62                	flw	fs8,24(sp)
    856a:	0074                	addi	a3,sp,12

0000856c <.prname_done>:
    856c:	02e00593          	li	a1,46
    8570:	00b62023          	sw	a1,0(a2)
    8574:	00b62023          	sw	a1,0(a2)

00008578 <test_2>:
    8578:	00200e13          	li	t3,2
    857c:	00000093          	li	ra,0
    8580:	00100113          	li	sp,1
    8584:	0020c663          	blt	ra,sp,8590 <test_2+0x18>
    8588:	2bc01863          	bne	zero,t3,8838 <fail>
    858c:	01c01663          	bne	zero,t3,8598 <test_3>
    8590:	fe20cee3          	blt	ra,sp,858c <test_2+0x14>
    8594:	2bc01263          	bne	zero,t3,8838 <fail>

00008598 <test_3>:
    8598:	00300e13          	li	t3,3
    859c:	fff00093          	li	ra,-1
    85a0:	00100113          	li	sp,1
    85a4:	0020c663          	blt	ra,sp,85b0 <test_3+0x18>
    85a8:	29c01863          	bne	zero,t3,8838 <fail>
    85ac:	01c01663          	bne	zero,t3,85b8 <test_4>
    85b0:	fe20cee3          	blt	ra,sp,85ac <test_3+0x14>
    85b4:	29c01263          	bne	zero,t3,8838 <fail>

000085b8 <test_4>:
    85b8:	00400e13          	li	t3,4
    85bc:	ffe00093          	li	ra,-2
    85c0:	fff00113          	li	sp,-1
    85c4:	0020c663          	blt	ra,sp,85d0 <test_4+0x18>
    85c8:	27c01863          	bne	zero,t3,8838 <fail>
    85cc:	01c01663          	bne	zero,t3,85d8 <test_5>
    85d0:	fe20cee3          	blt	ra,sp,85cc <test_4+0x14>
    85d4:	27c01263          	bne	zero,t3,8838 <fail>

000085d8 <test_5>:
    85d8:	00500e13          	li	t3,5
    85dc:	00100093          	li	ra,1
    85e0:	00000113          	li	sp,0
    85e4:	0020c463          	blt	ra,sp,85ec <test_5+0x14>
    85e8:	01c01463          	bne	zero,t3,85f0 <test_5+0x18>
    85ec:	25c01663          	bne	zero,t3,8838 <fail>
    85f0:	fe20cee3          	blt	ra,sp,85ec <test_5+0x14>

000085f4 <test_6>:
    85f4:	00600e13          	li	t3,6
    85f8:	00100093          	li	ra,1
    85fc:	fff00113          	li	sp,-1
    8600:	0020c463          	blt	ra,sp,8608 <test_6+0x14>
    8604:	01c01463          	bne	zero,t3,860c <test_6+0x18>
    8608:	23c01863          	bne	zero,t3,8838 <fail>
    860c:	fe20cee3          	blt	ra,sp,8608 <test_6+0x14>

00008610 <test_7>:
    8610:	00700e13          	li	t3,7
    8614:	fff00093          	li	ra,-1
    8618:	ffe00113          	li	sp,-2
    861c:	0020c463          	blt	ra,sp,8624 <test_7+0x14>
    8620:	01c01463          	bne	zero,t3,8628 <test_7+0x18>
    8624:	21c01a63          	bne	zero,t3,8838 <fail>
    8628:	fe20cee3          	blt	ra,sp,8624 <test_7+0x14>

0000862c <test_8>:
    862c:	00800e13          	li	t3,8
    8630:	00100093          	li	ra,1
    8634:	ffe00113          	li	sp,-2
    8638:	0020c463          	blt	ra,sp,8640 <test_8+0x14>
    863c:	01c01463          	bne	zero,t3,8644 <test_8+0x18>
    8640:	1fc01c63          	bne	zero,t3,8838 <fail>
    8644:	fe20cee3          	blt	ra,sp,8640 <test_8+0x14>

00008648 <test_9>:
    8648:	00900e13          	li	t3,9
    864c:	00000213          	li	tp,0
    8650:	00000093          	li	ra,0
    8654:	fff00113          	li	sp,-1
    8658:	1e20c063          	blt	ra,sp,8838 <fail>
    865c:	00120213          	addi	tp,tp,1 # 1 <boot+0x1>
    8660:	00200293          	li	t0,2
    8664:	fe5216e3          	bne	tp,t0,8650 <test_9+0x8>

00008668 <test_10>:
    8668:	00a00e13          	li	t3,10
    866c:	00000213          	li	tp,0
    8670:	00000093          	li	ra,0
    8674:	fff00113          	li	sp,-1
    8678:	00000013          	nop
    867c:	1a20ce63          	blt	ra,sp,8838 <fail>
    8680:	00120213          	addi	tp,tp,1 # 1 <boot+0x1>
    8684:	00200293          	li	t0,2
    8688:	fe5214e3          	bne	tp,t0,8670 <test_10+0x8>

0000868c <test_11>:
    868c:	00b00e13          	li	t3,11
    8690:	00000213          	li	tp,0
    8694:	00000093          	li	ra,0
    8698:	fff00113          	li	sp,-1
    869c:	00000013          	nop
    86a0:	00000013          	nop
    86a4:	1820ca63          	blt	ra,sp,8838 <fail>
    86a8:	00120213          	addi	tp,tp,1 # 1 <boot+0x1>
    86ac:	00200293          	li	t0,2
    86b0:	fe5212e3          	bne	tp,t0,8694 <test_11+0x8>

000086b4 <test_12>:
    86b4:	00c00e13          	li	t3,12
    86b8:	00000213          	li	tp,0
    86bc:	00000093          	li	ra,0
    86c0:	00000013          	nop
    86c4:	fff00113          	li	sp,-1
    86c8:	1620c863          	blt	ra,sp,8838 <fail>
    86cc:	00120213          	addi	tp,tp,1 # 1 <boot+0x1>
    86d0:	00200293          	li	t0,2
    86d4:	fe5214e3          	bne	tp,t0,86bc <test_12+0x8>

000086d8 <test_13>:
    86d8:	00d00e13          	li	t3,13
    86dc:	00000213          	li	tp,0
    86e0:	00000093          	li	ra,0
    86e4:	00000013          	nop
    86e8:	fff00113          	li	sp,-1
    86ec:	00000013          	nop
    86f0:	1420c463          	blt	ra,sp,8838 <fail>
    86f4:	00120213          	addi	tp,tp,1 # 1 <boot+0x1>
    86f8:	00200293          	li	t0,2
    86fc:	fe5212e3          	bne	tp,t0,86e0 <test_13+0x8>

00008700 <test_14>:
    8700:	00e00e13          	li	t3,14
    8704:	00000213          	li	tp,0
    8708:	00000093          	li	ra,0
    870c:	00000013          	nop
    8710:	00000013          	nop
    8714:	fff00113          	li	sp,-1
    8718:	1220c063          	blt	ra,sp,8838 <fail>
    871c:	00120213          	addi	tp,tp,1 # 1 <boot+0x1>
    8720:	00200293          	li	t0,2
    8724:	fe5212e3          	bne	tp,t0,8708 <test_14+0x8>

00008728 <test_15>:
    8728:	00f00e13          	li	t3,15
    872c:	00000213          	li	tp,0
    8730:	00000093          	li	ra,0
    8734:	fff00113          	li	sp,-1
    8738:	1020c063          	blt	ra,sp,8838 <fail>
    873c:	00120213          	addi	tp,tp,1 # 1 <boot+0x1>
    8740:	00200293          	li	t0,2
    8744:	fe5216e3          	bne	tp,t0,8730 <test_15+0x8>

00008748 <test_16>:
    8748:	01000e13          	li	t3,16
    874c:	00000213          	li	tp,0
    8750:	00000093          	li	ra,0
    8754:	fff00113          	li	sp,-1
    8758:	00000013          	nop
    875c:	0c20ce63          	blt	ra,sp,8838 <fail>
    8760:	00120213          	addi	tp,tp,1 # 1 <boot+0x1>
    8764:	00200293          	li	t0,2
    8768:	fe5214e3          	bne	tp,t0,8750 <test_16+0x8>

0000876c <test_17>:
    876c:	01100e13          	li	t3,17
    8770:	00000213          	li	tp,0
    8774:	00000093          	li	ra,0
    8778:	fff00113          	li	sp,-1
    877c:	00000013          	nop
    8780:	00000013          	nop
    8784:	0a20ca63          	blt	ra,sp,8838 <fail>
    8788:	00120213          	addi	tp,tp,1 # 1 <boot+0x1>
    878c:	00200293          	li	t0,2
    8790:	fe5212e3          	bne	tp,t0,8774 <test_17+0x8>

00008794 <test_18>:
    8794:	01200e13          	li	t3,18
    8798:	00000213          	li	tp,0
    879c:	00000093          	li	ra,0
    87a0:	00000013          	nop
    87a4:	fff00113          	li	sp,-1
    87a8:	0820c863          	blt	ra,sp,8838 <fail>
    87ac:	00120213          	addi	tp,tp,1 # 1 <boot+0x1>
    87b0:	00200293          	li	t0,2
    87b4:	fe5214e3          	bne	tp,t0,879c <test_18+0x8>

000087b8 <test_19>:
    87b8:	01300e13          	li	t3,19
    87bc:	00000213          	li	tp,0
    87c0:	00000093          	li	ra,0
    87c4:	00000013          	nop
    87c8:	fff00113          	li	sp,-1
    87cc:	00000013          	nop
    87d0:	0620c463          	blt	ra,sp,8838 <fail>
    87d4:	00120213          	addi	tp,tp,1 # 1 <boot+0x1>
    87d8:	00200293          	li	t0,2
    87dc:	fe5212e3          	bne	tp,t0,87c0 <test_19+0x8>

000087e0 <test_20>:
    87e0:	01400e13          	li	t3,20
    87e4:	00000213          	li	tp,0
    87e8:	00000093          	li	ra,0
    87ec:	00000013          	nop
    87f0:	00000013          	nop
    87f4:	fff00113          	li	sp,-1
    87f8:	0420c063          	blt	ra,sp,8838 <fail>
    87fc:	00120213          	addi	tp,tp,1 # 1 <boot+0x1>
    8800:	00200293          	li	t0,2
    8804:	fe5212e3          	bne	tp,t0,87e8 <test_20+0x8>

00008808 <test_21>:
    8808:	00100093          	li	ra,1
    880c:	00104a63          	bgtz	ra,8820 <test_21+0x18>
    8810:	00108093          	addi	ra,ra,1
    8814:	00108093          	addi	ra,ra,1
    8818:	00108093          	addi	ra,ra,1
    881c:	00108093          	addi	ra,ra,1
    8820:	00108093          	addi	ra,ra,1
    8824:	00108093          	addi	ra,ra,1
    8828:	00300e93          	li	t4,3
    882c:	01500e13          	li	t3,21
    8830:	01d09463          	bne	ra,t4,8838 <fail>
    8834:	03c01c63          	bne	zero,t3,886c <pass>

00008838 <fail>:
    8838:	8f0f80ef          	jal	ra,928 <failure>
    883c:	10000537          	lui	a0,0x10000
    8840:	04500593          	li	a1,69
    8844:	05200613          	li	a2,82
    8848:	04f00693          	li	a3,79
    884c:	00a00713          	li	a4,10
    8850:	00b52023          	sw	a1,0(a0) # 10000000 <tdat10+0xfff71e7>
    8854:	00c52023          	sw	a2,0(a0)
    8858:	00c52023          	sw	a2,0(a0)
    885c:	00d52023          	sw	a3,0(a0)
    8860:	00c52023          	sw	a2,0(a0)
    8864:	00e52023          	sw	a4,0(a0)
    8868:	00100073          	ebreak

0000886c <pass>:
    886c:	00009137          	lui	sp,0x9
    8870:	8c4f80ef          	jal	ra,934 <OK>
    8874:	00000013          	nop
    8878:	988f806f          	j	a00 <blt_ret>

Disassembly of section .text.startup:

0000887c <main>:
    887c:	fd010113          	addi	sp,sp,-48 # 8fd0 <tdat10+0x1b7>
    8880:	02812423          	sw	s0,40(sp)
    8884:	80000437          	lui	s0,0x80000
    8888:	02112623          	sw	ra,44(sp)
    888c:	02912223          	sw	s1,36(sp)
    8890:	03212023          	sw	s2,32(sp)
    8894:	00040493          	mv	s1,s0
    8898:	01312e23          	sw	s3,28(sp)
    889c:	0004c503          	lbu	a0,0(s1)
    88a0:	00040413          	mv	s0,s0
    88a4:	0ff57513          	andi	a0,a0,255
    88a8:	ff4f70ef          	jal	ra,9c <board_name>
    88ac:	0004c603          	lbu	a2,0(s1)
    88b0:	00050593          	mv	a1,a0
    88b4:	00009537          	lui	a0,0x9
    88b8:	0ff67613          	andi	a2,a2,255
    88bc:	ca050513          	addi	a0,a0,-864 # 8ca0 <nxt.0+0x280>
    88c0:	b39f70ef          	jal	ra,3f8 <printf>
    88c4:	000095b7          	lui	a1,0x9
    88c8:	00009537          	lui	a0,0x9
    88cc:	cb458593          	addi	a1,a1,-844 # 8cb4 <nxt.0+0x294>
    88d0:	cd450513          	addi	a0,a0,-812 # 8cd4 <nxt.0+0x2b4>
    88d4:	b25f70ef          	jal	ra,3f8 <printf>
    88d8:	000097b7          	lui	a5,0x9
    88dc:	0014c903          	lbu	s2,1(s1)
    88e0:	0024c483          	lbu	s1,2(s1)
    88e4:	a1c7a683          	lw	a3,-1508(a5) # 8a1c <threads>
    88e8:	00100713          	li	a4,1
    88ec:	0ff97913          	andi	s2,s2,255
    88f0:	0ff4f493          	andi	s1,s1,255
    88f4:	00078993          	mv	s3,a5
    88f8:	10d74463          	blt	a4,a3,8a00 <main+0x184>
    88fc:	00009737          	lui	a4,0x9
    8900:	c9070713          	addi	a4,a4,-880 # 8c90 <nxt.0+0x270>
    8904:	01000613          	li	a2,16
    8908:	01000593          	li	a1,16
    890c:	3e800513          	li	a0,1000
    8910:	00e12623          	sw	a4,12(sp)
    8914:	db1f70ef          	jal	ra,6c4 <mac>
    8918:	4e800793          	li	a5,1256
    891c:	00c12703          	lw	a4,12(sp)
    8920:	0ef50663          	beq	a0,a5,8a0c <main+0x190>
    8924:	000097b7          	lui	a5,0x9
    8928:	c9078793          	addi	a5,a5,-880 # 8c90 <nxt.0+0x270>
    892c:	000096b7          	lui	a3,0x9
    8930:	00009537          	lui	a0,0x9
    8934:	cf468693          	addi	a3,a3,-780 # 8cf4 <nxt.0+0x2d4>
    8938:	00048613          	mv	a2,s1
    893c:	00090593          	mv	a1,s2
    8940:	cfc50513          	addi	a0,a0,-772 # 8cfc <nxt.0+0x2dc>
    8944:	ab5f70ef          	jal	ra,3f8 <printf>
    8948:	a009ae23          	sw	zero,-1508(s3)
    894c:	00645583          	lhu	a1,6(s0) # 80000006 <io+0x6>
    8950:	00009537          	lui	a0,0x9
    8954:	d2450513          	addi	a0,a0,-732 # 8d24 <nxt.0+0x304>
    8958:	01059593          	slli	a1,a1,0x10
    895c:	0105d593          	srli	a1,a1,0x10
    8960:	a99f70ef          	jal	ra,3f8 <printf>
    8964:	00144503          	lbu	a0,1(s0)
    8968:	00244483          	lbu	s1,2(s0)
    896c:	00c42903          	lw	s2,12(s0)
    8970:	00c42603          	lw	a2,12(s0)
    8974:	000f45b7          	lui	a1,0xf4
    8978:	24058593          	addi	a1,a1,576 # f4240 <tdat10+0xeb427>
    897c:	0ff57513          	andi	a0,a0,255
    8980:	00c12623          	sw	a2,12(sp)
    8984:	d7df70ef          	jal	ra,700 <__mulsi3>
    8988:	0ff4f493          	andi	s1,s1,255
    898c:	000025b7          	lui	a1,0x2
    8990:	00050413          	mv	s0,a0
    8994:	71058593          	addi	a1,a1,1808 # 2710 <test_14+0x24>
    8998:	00048513          	mv	a0,s1
    899c:	d65f70ef          	jal	ra,700 <__mulsi3>
    89a0:	00190593          	addi	a1,s2,1
    89a4:	00a40533          	add	a0,s0,a0
    89a8:	dfdf70ef          	jal	ra,7a4 <__udivsi3>
    89ac:	00c12603          	lw	a2,12(sp)
    89b0:	00050593          	mv	a1,a0
    89b4:	00009537          	lui	a0,0x9
    89b8:	d4050513          	addi	a0,a0,-704 # 8d40 <nxt.0+0x320>
    89bc:	a3df70ef          	jal	ra,3f8 <printf>
    89c0:	00a00513          	li	a0,10
    89c4:	fc8f70ef          	jal	ra,18c <putchar>
    89c8:	00009537          	lui	a0,0x9
    89cc:	d6c50513          	addi	a0,a0,-660 # 8d6c <nxt.0+0x34c>
    89d0:	905f70ef          	jal	ra,2d4 <puts>
    89d4:	00a00513          	li	a0,10
    89d8:	e71f70ef          	jal	ra,848 <usleep>
    89dc:	f69f706f          	j	944 <start>
    89e0:	02c12083          	lw	ra,44(sp)
    89e4:	02812403          	lw	s0,40(sp)
    89e8:	02412483          	lw	s1,36(sp)
    89ec:	02012903          	lw	s2,32(sp)
    89f0:	01c12983          	lw	s3,28(sp)
    89f4:	00000513          	li	a0,0
    89f8:	03010113          	addi	sp,sp,48
    89fc:	00008067          	ret
    8a00:	00009737          	lui	a4,0x9
    8a04:	c9470713          	addi	a4,a4,-876 # 8c94 <nxt.0+0x274>
    8a08:	efdff06f          	j	8904 <main+0x88>
    8a0c:	000097b7          	lui	a5,0x9
    8a10:	c9878793          	addi	a5,a5,-872 # 8c98 <nxt.0+0x278>
    8a14:	f19ff06f          	j	892c <main+0xb0>
