
darksocv.o:     file format elf32-littleriscv


Disassembly of section .text:

00000000 <boot>:
   0:	00001737          	lui	a4,0x1
   4:	ac472783          	lw	a5,-1340(a4) # ac4 <threads>
   8:	fe010113          	addi	sp,sp,-32
   c:	00812c23          	sw	s0,24(sp)
  10:	00178693          	addi	a3,a5,1
  14:	0017f793          	andi	a5,a5,1
  18:	00112e23          	sw	ra,28(sp)
  1c:	00912a23          	sw	s1,20(sp)
  20:	01212823          	sw	s2,16(sp)
  24:	acd72223          	sw	a3,-1340(a4)
  28:	00f12623          	sw	a5,12(sp)
  2c:	00001437          	lui	s0,0x1
  30:	04078463          	beqz	a5,78 <boot+0x78>
  34:	800007b7          	lui	a5,0x80000
  38:	000f46b7          	lui	a3,0xf4
  3c:	00078793          	mv	a5,a5
  40:	23f68693          	addi	a3,a3,575 # f423f <nxt.0+0xf3777>
  44:	f8000613          	li	a2,-128
  48:	ac042703          	lw	a4,-1344(s0) # ac0 <utimers>
  4c:	fff70593          	addi	a1,a4,-1
  50:	acb42023          	sw	a1,-1344(s0)
  54:	00071e63          	bnez	a4,70 <boot+0x70>
  58:	0087d703          	lhu	a4,8(a5) # 80000008 <io+0x8>
  5c:	00170713          	addi	a4,a4,1
  60:	01071713          	slli	a4,a4,0x10
  64:	01075713          	srli	a4,a4,0x10
  68:	00e79423          	sh	a4,8(a5)
  6c:	acd42023          	sw	a3,-1344(s0)
  70:	00c781a3          	sb	a2,3(a5)
  74:	fd5ff06f          	j	48 <boot+0x48>
  78:	000014b7          	lui	s1,0x1
  7c:	03d000ef          	jal	ra,8b8 <banner>
  80:	01c10693          	addi	a3,sp,28
  84:	ac040613          	addi	a2,s0,-1344
  88:	00000593          	li	a1,0
  8c:	bac48513          	addi	a0,s1,-1108 # bac <nxt.0+0xe4>
  90:	368000ef          	jal	ra,3f8 <printf>
  94:	095000ef          	jal	ra,928 <main>
  98:	fe5ff06f          	j	7c <boot+0x7c>

0000009c <board_name>:
  9c:	04050c63          	beqz	a0,f4 <board_name+0x58>
  a0:	00100793          	li	a5,1
  a4:	04f50e63          	beq	a0,a5,100 <board_name+0x64>
  a8:	00200793          	li	a5,2
  ac:	06f50063          	beq	a0,a5,10c <board_name+0x70>
  b0:	00300793          	li	a5,3
  b4:	06f50263          	beq	a0,a5,118 <board_name+0x7c>
  b8:	00400793          	li	a5,4
  bc:	06f50463          	beq	a0,a5,124 <board_name+0x88>
  c0:	00500793          	li	a5,5
  c4:	06f50663          	beq	a0,a5,130 <board_name+0x94>
  c8:	00600793          	li	a5,6
  cc:	06f50863          	beq	a0,a5,13c <board_name+0xa0>
  d0:	00700793          	li	a5,7
  d4:	06f50a63          	beq	a0,a5,148 <board_name+0xac>
  d8:	00800793          	li	a5,8
  dc:	06f50c63          	beq	a0,a5,154 <board_name+0xb8>
  e0:	00900793          	li	a5,9
  e4:	06f50e63          	beq	a0,a5,160 <board_name+0xc4>
  e8:	00001537          	lui	a0,0x1
  ec:	ba450513          	addi	a0,a0,-1116 # ba4 <nxt.0+0xdc>
  f0:	00008067          	ret
  f4:	00001537          	lui	a0,0x1
  f8:	af850513          	addi	a0,a0,-1288 # af8 <nxt.0+0x30>
  fc:	00008067          	ret
 100:	00001537          	lui	a0,0x1
 104:	b0850513          	addi	a0,a0,-1272 # b08 <nxt.0+0x40>
 108:	00008067          	ret
 10c:	00001537          	lui	a0,0x1
 110:	b2050513          	addi	a0,a0,-1248 # b20 <nxt.0+0x58>
 114:	00008067          	ret
 118:	00001537          	lui	a0,0x1
 11c:	b3450513          	addi	a0,a0,-1228 # b34 <nxt.0+0x6c>
 120:	00008067          	ret
 124:	00001537          	lui	a0,0x1
 128:	b4850513          	addi	a0,a0,-1208 # b48 <nxt.0+0x80>
 12c:	00008067          	ret
 130:	00001537          	lui	a0,0x1
 134:	b5c50513          	addi	a0,a0,-1188 # b5c <nxt.0+0x94>
 138:	00008067          	ret
 13c:	00001537          	lui	a0,0x1
 140:	b7450513          	addi	a0,a0,-1164 # b74 <nxt.0+0xac>
 144:	00008067          	ret
 148:	00001537          	lui	a0,0x1
 14c:	ae050513          	addi	a0,a0,-1312 # ae0 <nxt.0+0x18>
 150:	00008067          	ret
 154:	00001537          	lui	a0,0x1
 158:	b8850513          	addi	a0,a0,-1144 # b88 <nxt.0+0xc0>
 15c:	00008067          	ret
 160:	00001537          	lui	a0,0x1
 164:	acc50513          	addi	a0,a0,-1332 # acc <nxt.0+0x4>
 168:	00008067          	ret

0000016c <getchar>:
 16c:	800007b7          	lui	a5,0x80000
 170:	00078793          	mv	a5,a5
 174:	0047c703          	lbu	a4,4(a5) # 80000004 <io+0x4>
 178:	00277713          	andi	a4,a4,2
 17c:	fe070ce3          	beqz	a4,174 <getchar+0x8>
 180:	0057c503          	lbu	a0,5(a5)
 184:	0ff57513          	andi	a0,a0,255
 188:	00008067          	ret

0000018c <putchar>:
 18c:	800007b7          	lui	a5,0x80000
 190:	00a00713          	li	a4,10
 194:	00078793          	mv	a5,a5
 198:	00e51c63          	bne	a0,a4,1b0 <putchar+0x24>
 19c:	0047c703          	lbu	a4,4(a5) # 80000004 <io+0x4>
 1a0:	00177713          	andi	a4,a4,1
 1a4:	fe071ce3          	bnez	a4,19c <putchar+0x10>
 1a8:	00d00713          	li	a4,13
 1ac:	00e782a3          	sb	a4,5(a5)
 1b0:	0047c703          	lbu	a4,4(a5)
 1b4:	00177713          	andi	a4,a4,1
 1b8:	fe071ce3          	bnez	a4,1b0 <putchar+0x24>
 1bc:	0ff57713          	andi	a4,a0,255
 1c0:	00e782a3          	sb	a4,5(a5)
 1c4:	00070513          	mv	a0,a4
 1c8:	00008067          	ret

000001cc <gets>:
 1cc:	fd010113          	addi	sp,sp,-48
 1d0:	02812423          	sw	s0,40(sp)
 1d4:	02912223          	sw	s1,36(sp)
 1d8:	01312e23          	sw	s3,28(sp)
 1dc:	01512a23          	sw	s5,20(sp)
 1e0:	01612823          	sw	s6,16(sp)
 1e4:	01712623          	sw	s7,12(sp)
 1e8:	02112623          	sw	ra,44(sp)
 1ec:	03212023          	sw	s2,32(sp)
 1f0:	01412c23          	sw	s4,24(sp)
 1f4:	00050493          	mv	s1,a0
 1f8:	00058993          	mv	s3,a1
 1fc:	00050413          	mv	s0,a0
 200:	00a00a93          	li	s5,10
 204:	00d00b13          	li	s6,13
 208:	00800b93          	li	s7,8
 20c:	fff98a13          	addi	s4,s3,-1
 210:	000a0863          	beqz	s4,220 <gets+0x54>
 214:	f59ff0ef          	jal	ra,16c <getchar>
 218:	00050913          	mv	s2,a0
 21c:	05551463          	bne	a0,s5,264 <gets+0x98>
 220:	00a00513          	li	a0,10
 224:	f69ff0ef          	jal	ra,18c <putchar>
 228:	00040023          	sb	zero,0(s0)
 22c:	00941463          	bne	s0,s1,234 <gets+0x68>
 230:	00000493          	li	s1,0
 234:	02c12083          	lw	ra,44(sp)
 238:	02812403          	lw	s0,40(sp)
 23c:	02012903          	lw	s2,32(sp)
 240:	01c12983          	lw	s3,28(sp)
 244:	01812a03          	lw	s4,24(sp)
 248:	01412a83          	lw	s5,20(sp)
 24c:	01012b03          	lw	s6,16(sp)
 250:	00c12b83          	lw	s7,12(sp)
 254:	00048513          	mv	a0,s1
 258:	02412483          	lw	s1,36(sp)
 25c:	03010113          	addi	sp,sp,48
 260:	00008067          	ret
 264:	fb650ee3          	beq	a0,s6,220 <gets+0x54>
 268:	f25ff0ef          	jal	ra,18c <putchar>
 26c:	01791e63          	bne	s2,s7,288 <gets+0xbc>
 270:	00940863          	beq	s0,s1,280 <gets+0xb4>
 274:	fe040fa3          	sb	zero,-1(s0)
 278:	00098a13          	mv	s4,s3
 27c:	fff40413          	addi	s0,s0,-1
 280:	000a0993          	mv	s3,s4
 284:	f89ff06f          	j	20c <gets+0x40>
 288:	01240023          	sb	s2,0(s0)
 28c:	00140413          	addi	s0,s0,1
 290:	ff1ff06f          	j	280 <gets+0xb4>

00000294 <putstr>:
 294:	ff010113          	addi	sp,sp,-16
 298:	00812423          	sw	s0,8(sp)
 29c:	00112623          	sw	ra,12(sp)
 2a0:	00050413          	mv	s0,a0
 2a4:	00051663          	bnez	a0,2b0 <putstr+0x1c>
 2a8:	00001437          	lui	s0,0x1
 2ac:	bd040413          	addi	s0,s0,-1072 # bd0 <nxt.0+0x108>
 2b0:	00044503          	lbu	a0,0(s0)
 2b4:	00051a63          	bnez	a0,2c8 <putstr+0x34>
 2b8:	00c12083          	lw	ra,12(sp)
 2bc:	00812403          	lw	s0,8(sp)
 2c0:	01010113          	addi	sp,sp,16
 2c4:	00008067          	ret
 2c8:	00140413          	addi	s0,s0,1
 2cc:	ec1ff0ef          	jal	ra,18c <putchar>
 2d0:	fe1ff06f          	j	2b0 <putstr+0x1c>

000002d4 <puts>:
 2d4:	ff010113          	addi	sp,sp,-16
 2d8:	00112623          	sw	ra,12(sp)
 2dc:	fb9ff0ef          	jal	ra,294 <putstr>
 2e0:	00c12083          	lw	ra,12(sp)
 2e4:	00a00513          	li	a0,10
 2e8:	01010113          	addi	sp,sp,16
 2ec:	ea1ff06f          	j	18c <putchar>

000002f0 <putdx>:
 2f0:	fa010113          	addi	sp,sp,-96
 2f4:	05412423          	sw	s4,72(sp)
 2f8:	00058a13          	mv	s4,a1
 2fc:	000015b7          	lui	a1,0x1
 300:	04812c23          	sw	s0,88(sp)
 304:	04912a23          	sw	s1,84(sp)
 308:	bec58413          	addi	s0,a1,-1044 # bec <nxt.0+0x124>
 30c:	02c00613          	li	a2,44
 310:	bec58593          	addi	a1,a1,-1044
 314:	00050493          	mv	s1,a0
 318:	01410513          	addi	a0,sp,20
 31c:	04112e23          	sw	ra,92(sp)
 320:	05212823          	sw	s2,80(sp)
 324:	05312623          	sw	s3,76(sp)
 328:	05512223          	sw	s5,68(sp)
 32c:	224000ef          	jal	ra,550 <memcpy>
 330:	02c40593          	addi	a1,s0,44
 334:	01400613          	li	a2,20
 338:	00010513          	mv	a0,sp
 33c:	214000ef          	jal	ra,550 <memcpy>
 340:	00010413          	mv	s0,sp
 344:	000a0463          	beqz	s4,34c <putdx+0x5c>
 348:	01410413          	addi	s0,sp,20
 34c:	00001937          	lui	s2,0x1
 350:	01800993          	li	s3,24
 354:	00100a93          	li	s5,1
 358:	bd890913          	addi	s2,s2,-1064 # bd8 <nxt.0+0x110>
 35c:	00042583          	lw	a1,0(s0)
 360:	02059463          	bnez	a1,388 <putdx+0x98>
 364:	05c12083          	lw	ra,92(sp)
 368:	05812403          	lw	s0,88(sp)
 36c:	05412483          	lw	s1,84(sp)
 370:	05012903          	lw	s2,80(sp)
 374:	04c12983          	lw	s3,76(sp)
 378:	04812a03          	lw	s4,72(sp)
 37c:	04412a83          	lw	s5,68(sp)
 380:	06010113          	addi	sp,sp,96
 384:	00008067          	ret
 388:	01558463          	beq	a1,s5,390 <putdx+0xa0>
 38c:	02b4e263          	bltu	s1,a1,3b0 <putdx+0xc0>
 390:	020a0663          	beqz	s4,3bc <putdx+0xcc>
 394:	00048513          	mv	a0,s1
 398:	40c000ef          	jal	ra,7a4 <__udivsi3>
 39c:	00a00593          	li	a1,10
 3a0:	40c000ef          	jal	ra,7ac <__umodsi3>
 3a4:	00a90533          	add	a0,s2,a0
 3a8:	00054503          	lbu	a0,0(a0)
 3ac:	de1ff0ef          	jal	ra,18c <putchar>
 3b0:	ff898993          	addi	s3,s3,-8
 3b4:	00440413          	addi	s0,s0,4
 3b8:	fa5ff06f          	j	35c <putdx+0x6c>
 3bc:	00498793          	addi	a5,s3,4
 3c0:	00f4d7b3          	srl	a5,s1,a5
 3c4:	00f7f793          	andi	a5,a5,15
 3c8:	00f907b3          	add	a5,s2,a5
 3cc:	0007c503          	lbu	a0,0(a5)
 3d0:	dbdff0ef          	jal	ra,18c <putchar>
 3d4:	0134d7b3          	srl	a5,s1,s3
 3d8:	00f7f793          	andi	a5,a5,15
 3dc:	00f907b3          	add	a5,s2,a5
 3e0:	0007c503          	lbu	a0,0(a5)
 3e4:	fc9ff06f          	j	3ac <putdx+0xbc>

000003e8 <putx>:
 3e8:	00000593          	li	a1,0
 3ec:	f05ff06f          	j	2f0 <putdx>

000003f0 <putd>:
 3f0:	00100593          	li	a1,1
 3f4:	efdff06f          	j	2f0 <putdx>

000003f8 <printf>:
 3f8:	fb010113          	addi	sp,sp,-80
 3fc:	04f12223          	sw	a5,68(sp)
 400:	03410793          	addi	a5,sp,52
 404:	02812423          	sw	s0,40(sp)
 408:	03212023          	sw	s2,32(sp)
 40c:	01312e23          	sw	s3,28(sp)
 410:	01412c23          	sw	s4,24(sp)
 414:	01512a23          	sw	s5,20(sp)
 418:	02112623          	sw	ra,44(sp)
 41c:	02912223          	sw	s1,36(sp)
 420:	00050413          	mv	s0,a0
 424:	02b12a23          	sw	a1,52(sp)
 428:	02c12c23          	sw	a2,56(sp)
 42c:	02d12e23          	sw	a3,60(sp)
 430:	04e12023          	sw	a4,64(sp)
 434:	05012423          	sw	a6,72(sp)
 438:	05112623          	sw	a7,76(sp)
 43c:	00f12623          	sw	a5,12(sp)
 440:	02500913          	li	s2,37
 444:	07300993          	li	s3,115
 448:	07800a13          	li	s4,120
 44c:	06400a93          	li	s5,100
 450:	00044503          	lbu	a0,0(s0)
 454:	02051463          	bnez	a0,47c <printf+0x84>
 458:	02c12083          	lw	ra,44(sp)
 45c:	02812403          	lw	s0,40(sp)
 460:	02412483          	lw	s1,36(sp)
 464:	02012903          	lw	s2,32(sp)
 468:	01c12983          	lw	s3,28(sp)
 46c:	01812a03          	lw	s4,24(sp)
 470:	01412a83          	lw	s5,20(sp)
 474:	05010113          	addi	sp,sp,80
 478:	00008067          	ret
 47c:	00140493          	addi	s1,s0,1
 480:	07251463          	bne	a0,s2,4e8 <printf+0xf0>
 484:	00144503          	lbu	a0,1(s0)
 488:	03351063          	bne	a0,s3,4a8 <printf+0xb0>
 48c:	00c12783          	lw	a5,12(sp)
 490:	0007a503          	lw	a0,0(a5)
 494:	00478713          	addi	a4,a5,4
 498:	00e12623          	sw	a4,12(sp)
 49c:	df9ff0ef          	jal	ra,294 <putstr>
 4a0:	00148413          	addi	s0,s1,1
 4a4:	fadff06f          	j	450 <printf+0x58>
 4a8:	01451e63          	bne	a0,s4,4c4 <printf+0xcc>
 4ac:	00c12783          	lw	a5,12(sp)
 4b0:	0007a503          	lw	a0,0(a5)
 4b4:	00478713          	addi	a4,a5,4
 4b8:	00e12623          	sw	a4,12(sp)
 4bc:	f2dff0ef          	jal	ra,3e8 <putx>
 4c0:	fe1ff06f          	j	4a0 <printf+0xa8>
 4c4:	01551e63          	bne	a0,s5,4e0 <printf+0xe8>
 4c8:	00c12783          	lw	a5,12(sp)
 4cc:	0007a503          	lw	a0,0(a5)
 4d0:	00478713          	addi	a4,a5,4
 4d4:	00e12623          	sw	a4,12(sp)
 4d8:	f19ff0ef          	jal	ra,3f0 <putd>
 4dc:	fc5ff06f          	j	4a0 <printf+0xa8>
 4e0:	cadff0ef          	jal	ra,18c <putchar>
 4e4:	fbdff06f          	j	4a0 <printf+0xa8>
 4e8:	ca5ff0ef          	jal	ra,18c <putchar>
 4ec:	00040493          	mv	s1,s0
 4f0:	fb1ff06f          	j	4a0 <printf+0xa8>

000004f4 <strncmp>:
 4f4:	fff60613          	addi	a2,a2,-1
 4f8:	00000793          	li	a5,0
 4fc:	00f50733          	add	a4,a0,a5
 500:	00074683          	lbu	a3,0(a4)
 504:	00f58733          	add	a4,a1,a5
 508:	00074703          	lbu	a4,0(a4)
 50c:	00c78a63          	beq	a5,a2,520 <strncmp+0x2c>
 510:	00068863          	beqz	a3,520 <strncmp+0x2c>
 514:	00070663          	beqz	a4,520 <strncmp+0x2c>
 518:	00178793          	addi	a5,a5,1
 51c:	fee680e3          	beq	a3,a4,4fc <strncmp+0x8>
 520:	40e68533          	sub	a0,a3,a4
 524:	00008067          	ret

00000528 <strcmp>:
 528:	fff00613          	li	a2,-1
 52c:	fc9ff06f          	j	4f4 <strncmp>

00000530 <strlen>:
 530:	00050793          	mv	a5,a0
 534:	00000513          	li	a0,0
 538:	00a78733          	add	a4,a5,a0
 53c:	00074703          	lbu	a4,0(a4)
 540:	00071463          	bnez	a4,548 <strlen+0x18>
 544:	00008067          	ret
 548:	00150513          	addi	a0,a0,1
 54c:	fedff06f          	j	538 <strlen+0x8>

00000550 <memcpy>:
 550:	00000793          	li	a5,0
 554:	00c79463          	bne	a5,a2,55c <memcpy+0xc>
 558:	00008067          	ret
 55c:	00f58733          	add	a4,a1,a5
 560:	00074683          	lbu	a3,0(a4)
 564:	00f50733          	add	a4,a0,a5
 568:	00178793          	addi	a5,a5,1
 56c:	00d70023          	sb	a3,0(a4)
 570:	fe5ff06f          	j	554 <memcpy+0x4>

00000574 <memset>:
 574:	00c50633          	add	a2,a0,a2
 578:	00050793          	mv	a5,a0
 57c:	00c79463          	bne	a5,a2,584 <memset+0x10>
 580:	00008067          	ret
 584:	00178793          	addi	a5,a5,1
 588:	feb78fa3          	sb	a1,-1(a5)
 58c:	ff1ff06f          	j	57c <memset+0x8>

00000590 <strtok>:
 590:	fe010113          	addi	sp,sp,-32
 594:	00812c23          	sw	s0,24(sp)
 598:	00050413          	mv	s0,a0
 59c:	00058513          	mv	a0,a1
 5a0:	01212823          	sw	s2,16(sp)
 5a4:	01312623          	sw	s3,12(sp)
 5a8:	00112e23          	sw	ra,28(sp)
 5ac:	00912a23          	sw	s1,20(sp)
 5b0:	00058913          	mv	s2,a1
 5b4:	f7dff0ef          	jal	ra,530 <strlen>
 5b8:	00050993          	mv	s3,a0
 5bc:	00041863          	bnez	s0,5cc <strtok+0x3c>
 5c0:	000017b7          	lui	a5,0x1
 5c4:	ac87a403          	lw	s0,-1336(a5) # ac8 <nxt.0>
 5c8:	04040063          	beqz	s0,608 <strtok+0x78>
 5cc:	00040493          	mv	s1,s0
 5d0:	0004c783          	lbu	a5,0(s1)
 5d4:	00079863          	bnez	a5,5e4 <strtok+0x54>
 5d8:	000017b7          	lui	a5,0x1
 5dc:	ac07a423          	sw	zero,-1336(a5) # ac8 <nxt.0>
 5e0:	0280006f          	j	608 <strtok+0x78>
 5e4:	00098613          	mv	a2,s3
 5e8:	00090593          	mv	a1,s2
 5ec:	00048513          	mv	a0,s1
 5f0:	f05ff0ef          	jal	ra,4f4 <strncmp>
 5f4:	00148793          	addi	a5,s1,1
 5f8:	02051863          	bnez	a0,628 <strtok+0x98>
 5fc:	00001737          	lui	a4,0x1
 600:	00048023          	sb	zero,0(s1)
 604:	acf72423          	sw	a5,-1336(a4) # ac8 <nxt.0>
 608:	01c12083          	lw	ra,28(sp)
 60c:	00040513          	mv	a0,s0
 610:	01812403          	lw	s0,24(sp)
 614:	01412483          	lw	s1,20(sp)
 618:	01012903          	lw	s2,16(sp)
 61c:	00c12983          	lw	s3,12(sp)
 620:	02010113          	addi	sp,sp,32
 624:	00008067          	ret
 628:	00078493          	mv	s1,a5
 62c:	fa5ff06f          	j	5d0 <strtok+0x40>

00000630 <atoi>:
 630:	00050713          	mv	a4,a0
 634:	00000693          	li	a3,0
 638:	00000513          	li	a0,0
 63c:	02d00613          	li	a2,45
 640:	00071a63          	bnez	a4,654 <atoi+0x24>
 644:	02069c63          	bnez	a3,67c <atoi+0x4c>
 648:	00008067          	ret
 64c:	00100693          	li	a3,1
 650:	0240006f          	j	674 <atoi+0x44>
 654:	00074783          	lbu	a5,0(a4)
 658:	fe0786e3          	beqz	a5,644 <atoi+0x14>
 65c:	fec788e3          	beq	a5,a2,64c <atoi+0x1c>
 660:	00351593          	slli	a1,a0,0x3
 664:	fd078793          	addi	a5,a5,-48
 668:	00b787b3          	add	a5,a5,a1
 66c:	00151513          	slli	a0,a0,0x1
 670:	00a78533          	add	a0,a5,a0
 674:	00170713          	addi	a4,a4,1
 678:	fc9ff06f          	j	640 <atoi+0x10>
 67c:	40a00533          	neg	a0,a0
 680:	00008067          	ret

00000684 <xtoi>:
 684:	00050713          	mv	a4,a0
 688:	03900693          	li	a3,57
 68c:	00000513          	li	a0,0
 690:	00070663          	beqz	a4,69c <xtoi+0x18>
 694:	00074783          	lbu	a5,0(a4)
 698:	00079463          	bnez	a5,6a0 <xtoi+0x1c>
 69c:	00008067          	ret
 6a0:	00451513          	slli	a0,a0,0x4
 6a4:	00f6ea63          	bltu	a3,a5,6b8 <xtoi+0x34>
 6a8:	fd078793          	addi	a5,a5,-48
 6ac:	00a78533          	add	a0,a5,a0
 6b0:	00170713          	addi	a4,a4,1
 6b4:	fddff06f          	j	690 <xtoi+0xc>
 6b8:	05f7f793          	andi	a5,a5,95
 6bc:	fc978793          	addi	a5,a5,-55
 6c0:	fedff06f          	j	6ac <xtoi+0x28>

000006c4 <mac>:
 6c4:	857f                	0x857f
 6c6:	00c5                	addi	ra,ra,17
 6c8:	00008067          	ret

000006cc <__umulsi3>:
 6cc:	00050793          	mv	a5,a0
 6d0:	00b57663          	bgeu	a0,a1,6dc <__umulsi3+0x10>
 6d4:	00058793          	mv	a5,a1
 6d8:	00050593          	mv	a1,a0
 6dc:	00000513          	li	a0,0
 6e0:	00059463          	bnez	a1,6e8 <__umulsi3+0x1c>
 6e4:	00008067          	ret
 6e8:	0015f713          	andi	a4,a1,1
 6ec:	00070463          	beqz	a4,6f4 <__umulsi3+0x28>
 6f0:	00f50533          	add	a0,a0,a5
 6f4:	00179793          	slli	a5,a5,0x1
 6f8:	0015d593          	srli	a1,a1,0x1
 6fc:	fe5ff06f          	j	6e0 <__umulsi3+0x14>

00000700 <__mulsi3>:
 700:	ff010113          	addi	sp,sp,-16
 704:	00912223          	sw	s1,4(sp)
 708:	00112623          	sw	ra,12(sp)
 70c:	00812423          	sw	s0,8(sp)
 710:	00000493          	li	s1,0
 714:	00055663          	bgez	a0,720 <__mulsi3+0x20>
 718:	40a00533          	neg	a0,a0
 71c:	00100493          	li	s1,1
 720:	00000413          	li	s0,0
 724:	0005d663          	bgez	a1,730 <__mulsi3+0x30>
 728:	40b005b3          	neg	a1,a1
 72c:	00100413          	li	s0,1
 730:	f9dff0ef          	jal	ra,6cc <__umulsi3>
 734:	00848463          	beq	s1,s0,73c <__mulsi3+0x3c>
 738:	40a00533          	neg	a0,a0
 73c:	00c12083          	lw	ra,12(sp)
 740:	00812403          	lw	s0,8(sp)
 744:	00412483          	lw	s1,4(sp)
 748:	01010113          	addi	sp,sp,16
 74c:	00008067          	ret

00000750 <__udiv_umod_si3>:
 750:	00050793          	mv	a5,a0
 754:	00100713          	li	a4,1
 758:	00058513          	mv	a0,a1
 75c:	00059863          	bnez	a1,76c <__udiv_umod_si3+0x1c>
 760:	00008067          	ret
 764:	00171713          	slli	a4,a4,0x1
 768:	00151513          	slli	a0,a0,0x1
 76c:	fef56ce3          	bltu	a0,a5,764 <__udiv_umod_si3+0x14>
 770:	00050693          	mv	a3,a0
 774:	00000513          	li	a0,0
 778:	00078463          	beqz	a5,780 <__udiv_umod_si3+0x30>
 77c:	00071863          	bnez	a4,78c <__udiv_umod_si3+0x3c>
 780:	fe0610e3          	bnez	a2,760 <__udiv_umod_si3+0x10>
 784:	00078513          	mv	a0,a5
 788:	fd9ff06f          	j	760 <__udiv_umod_si3+0x10>
 78c:	00d7e663          	bltu	a5,a3,798 <__udiv_umod_si3+0x48>
 790:	40d787b3          	sub	a5,a5,a3
 794:	00e50533          	add	a0,a0,a4
 798:	00175713          	srli	a4,a4,0x1
 79c:	0016d693          	srli	a3,a3,0x1
 7a0:	fd9ff06f          	j	778 <__udiv_umod_si3+0x28>

000007a4 <__udivsi3>:
 7a4:	00100613          	li	a2,1
 7a8:	fa9ff06f          	j	750 <__udiv_umod_si3>

000007ac <__umodsi3>:
 7ac:	00000613          	li	a2,0
 7b0:	fa1ff06f          	j	750 <__udiv_umod_si3>

000007b4 <__div_mod_si3>:
 7b4:	06058e63          	beqz	a1,830 <__div_mod_si3+0x7c>
 7b8:	ff010113          	addi	sp,sp,-16
 7bc:	00812423          	sw	s0,8(sp)
 7c0:	00912223          	sw	s1,4(sp)
 7c4:	00112623          	sw	ra,12(sp)
 7c8:	01212023          	sw	s2,0(sp)
 7cc:	00060413          	mv	s0,a2
 7d0:	00000493          	li	s1,0
 7d4:	00055663          	bgez	a0,7e0 <__div_mod_si3+0x2c>
 7d8:	40a00533          	neg	a0,a0
 7dc:	00100493          	li	s1,1
 7e0:	00000913          	li	s2,0
 7e4:	0005d663          	bgez	a1,7f0 <__div_mod_si3+0x3c>
 7e8:	40b005b3          	neg	a1,a1
 7ec:	00100913          	li	s2,1
 7f0:	00040613          	mv	a2,s0
 7f4:	f5dff0ef          	jal	ra,750 <__udiv_umod_si3>
 7f8:	00050593          	mv	a1,a0
 7fc:	02040463          	beqz	s0,824 <__div_mod_si3+0x70>
 800:	01248463          	beq	s1,s2,808 <__div_mod_si3+0x54>
 804:	40a005b3          	neg	a1,a0
 808:	00c12083          	lw	ra,12(sp)
 80c:	00812403          	lw	s0,8(sp)
 810:	00412483          	lw	s1,4(sp)
 814:	00012903          	lw	s2,0(sp)
 818:	00058513          	mv	a0,a1
 81c:	01010113          	addi	sp,sp,16
 820:	00008067          	ret
 824:	fe0482e3          	beqz	s1,808 <__div_mod_si3+0x54>
 828:	40a005b3          	neg	a1,a0
 82c:	fddff06f          	j	808 <__div_mod_si3+0x54>
 830:	00058513          	mv	a0,a1
 834:	00008067          	ret

00000838 <__divsi3>:
 838:	00100613          	li	a2,1
 83c:	f79ff06f          	j	7b4 <__div_mod_si3>

00000840 <__modsi3>:
 840:	00000613          	li	a2,0
 844:	f71ff06f          	j	7b4 <__div_mod_si3>

00000848 <usleep>:
 848:	000017b7          	lui	a5,0x1
 84c:	ac47a703          	lw	a4,-1340(a5) # ac4 <threads>
 850:	00100793          	li	a5,1
 854:	00e7dc63          	bge	a5,a4,86c <usleep+0x24>
 858:	fff00713          	li	a4,-1
 85c:	000017b7          	lui	a5,0x1
 860:	fff50513          	addi	a0,a0,-1
 864:	02e51263          	bne	a0,a4,888 <usleep+0x40>
 868:	00008067          	ret
 86c:	800007b7          	lui	a5,0x80000
 870:	fff00693          	li	a3,-1
 874:	00078793          	mv	a5,a5
 878:	f8000613          	li	a2,-128
 87c:	fff50513          	addi	a0,a0,-1
 880:	00d51c63          	bne	a0,a3,898 <usleep+0x50>
 884:	00008067          	ret
 888:	ac07a683          	lw	a3,-1344(a5) # 7ffffac0 <io+0xfffffac0>
 88c:	ac07a603          	lw	a2,-1344(a5)
 890:	fed60ee3          	beq	a2,a3,88c <usleep+0x44>
 894:	fcdff06f          	j	860 <usleep+0x18>
 898:	00c781a3          	sb	a2,3(a5)
 89c:	0037c703          	lbu	a4,3(a5)
 8a0:	0ff77713          	andi	a4,a4,255
 8a4:	fe070ce3          	beqz	a4,89c <usleep+0x54>
 8a8:	fd5ff06f          	j	87c <usleep+0x34>

000008ac <success>:
 8ac:	00001537          	lui	a0,0x1
 8b0:	d2050513          	addi	a0,a0,-736 # d20 <nxt.0+0x258>
 8b4:	b45ff06f          	j	3f8 <printf>

000008b8 <banner>:
 8b8:	ee010113          	addi	sp,sp,-288
 8bc:	000015b7          	lui	a1,0x1
 8c0:	10d00613          	li	a2,269
 8c4:	d2858593          	addi	a1,a1,-728 # d28 <nxt.0+0x260>
 8c8:	00010513          	mv	a0,sp
 8cc:	10112e23          	sw	ra,284(sp)
 8d0:	10812c23          	sw	s0,280(sp)
 8d4:	10912a23          	sw	s1,276(sp)
 8d8:	11212823          	sw	s2,272(sp)
 8dc:	c75ff0ef          	jal	ra,550 <memcpy>
 8e0:	00a00513          	li	a0,10
 8e4:	8a9ff0ef          	jal	ra,18c <putchar>
 8e8:	00010413          	mv	s0,sp
 8ec:	00044903          	lbu	s2,0(s0)
 8f0:	00091e63          	bnez	s2,90c <banner+0x54>
 8f4:	11c12083          	lw	ra,284(sp)
 8f8:	11812403          	lw	s0,280(sp)
 8fc:	11412483          	lw	s1,276(sp)
 900:	11012903          	lw	s2,272(sp)
 904:	12010113          	addi	sp,sp,288
 908:	00008067          	ret
 90c:	00144483          	lbu	s1,1(s0)
 910:	00240413          	addi	s0,s0,2
 914:	fc048ce3          	beqz	s1,8ec <banner+0x34>
 918:	00090513          	mv	a0,s2
 91c:	871ff0ef          	jal	ra,18c <putchar>
 920:	fff48493          	addi	s1,s1,-1
 924:	ff1ff06f          	j	914 <banner+0x5c>

Disassembly of section .text.startup:

00000928 <main>:
 928:	fd010113          	addi	sp,sp,-48
 92c:	02812423          	sw	s0,40(sp)
 930:	80000437          	lui	s0,0x80000
 934:	02112623          	sw	ra,44(sp)
 938:	02912223          	sw	s1,36(sp)
 93c:	03212023          	sw	s2,32(sp)
 940:	00040493          	mv	s1,s0
 944:	01312e23          	sw	s3,28(sp)
 948:	0004c503          	lbu	a0,0(s1)
 94c:	00040413          	mv	s0,s0
 950:	0ff57513          	andi	a0,a0,255
 954:	f48ff0ef          	jal	ra,9c <board_name>
 958:	0004c603          	lbu	a2,0(s1)
 95c:	00050593          	mv	a1,a0
 960:	00001537          	lui	a0,0x1
 964:	0ff67613          	andi	a2,a2,255
 968:	c3850513          	addi	a0,a0,-968 # c38 <nxt.0+0x170>
 96c:	a8dff0ef          	jal	ra,3f8 <printf>
 970:	000015b7          	lui	a1,0x1
 974:	00001537          	lui	a0,0x1
 978:	c4c58593          	addi	a1,a1,-948 # c4c <nxt.0+0x184>
 97c:	c6c50513          	addi	a0,a0,-916 # c6c <nxt.0+0x1a4>
 980:	a79ff0ef          	jal	ra,3f8 <printf>
 984:	000017b7          	lui	a5,0x1
 988:	0014c903          	lbu	s2,1(s1)
 98c:	0024c483          	lbu	s1,2(s1)
 990:	ac47a683          	lw	a3,-1340(a5) # ac4 <threads>
 994:	00100713          	li	a4,1
 998:	0ff97913          	andi	s2,s2,255
 99c:	0ff4f493          	andi	s1,s1,255
 9a0:	00078993          	mv	s3,a5
 9a4:	10d74263          	blt	a4,a3,aa8 <main+0x180>
 9a8:	00001737          	lui	a4,0x1
 9ac:	e3470713          	addi	a4,a4,-460 # e34 <nxt.0+0x36c>
 9b0:	01000613          	li	a2,16
 9b4:	01000593          	li	a1,16
 9b8:	3e800513          	li	a0,1000
 9bc:	00e12623          	sw	a4,12(sp)
 9c0:	d05ff0ef          	jal	ra,6c4 <mac>
 9c4:	4e800793          	li	a5,1256
 9c8:	00c12703          	lw	a4,12(sp)
 9cc:	0ef50463          	beq	a0,a5,ab4 <main+0x18c>
 9d0:	000017b7          	lui	a5,0x1
 9d4:	e3478793          	addi	a5,a5,-460 # e34 <nxt.0+0x36c>
 9d8:	000016b7          	lui	a3,0x1
 9dc:	00001537          	lui	a0,0x1
 9e0:	c8c68693          	addi	a3,a3,-884 # c8c <nxt.0+0x1c4>
 9e4:	00048613          	mv	a2,s1
 9e8:	00090593          	mv	a1,s2
 9ec:	c9450513          	addi	a0,a0,-876 # c94 <nxt.0+0x1cc>
 9f0:	a09ff0ef          	jal	ra,3f8 <printf>
 9f4:	ac09a223          	sw	zero,-1340(s3)
 9f8:	00645583          	lhu	a1,6(s0) # 80000006 <io+0x6>
 9fc:	00001537          	lui	a0,0x1
 a00:	cbc50513          	addi	a0,a0,-836 # cbc <nxt.0+0x1f4>
 a04:	01059593          	slli	a1,a1,0x10
 a08:	0105d593          	srli	a1,a1,0x10
 a0c:	9edff0ef          	jal	ra,3f8 <printf>
 a10:	00144503          	lbu	a0,1(s0)
 a14:	00244483          	lbu	s1,2(s0)
 a18:	00c42903          	lw	s2,12(s0)
 a1c:	00c42603          	lw	a2,12(s0)
 a20:	000f45b7          	lui	a1,0xf4
 a24:	24058593          	addi	a1,a1,576 # f4240 <nxt.0+0xf3778>
 a28:	0ff57513          	andi	a0,a0,255
 a2c:	00c12623          	sw	a2,12(sp)
 a30:	cd1ff0ef          	jal	ra,700 <__mulsi3>
 a34:	0ff4f493          	andi	s1,s1,255
 a38:	000025b7          	lui	a1,0x2
 a3c:	00050413          	mv	s0,a0
 a40:	71058593          	addi	a1,a1,1808 # 2710 <nxt.0+0x1c48>
 a44:	00048513          	mv	a0,s1
 a48:	cb9ff0ef          	jal	ra,700 <__mulsi3>
 a4c:	00190593          	addi	a1,s2,1
 a50:	00a40533          	add	a0,s0,a0
 a54:	d51ff0ef          	jal	ra,7a4 <__udivsi3>
 a58:	00c12603          	lw	a2,12(sp)
 a5c:	00050593          	mv	a1,a0
 a60:	00001537          	lui	a0,0x1
 a64:	cd850513          	addi	a0,a0,-808 # cd8 <nxt.0+0x210>
 a68:	991ff0ef          	jal	ra,3f8 <printf>
 a6c:	00a00513          	li	a0,10
 a70:	f1cff0ef          	jal	ra,18c <putchar>
 a74:	00001537          	lui	a0,0x1
 a78:	d0450513          	addi	a0,a0,-764 # d04 <nxt.0+0x23c>
 a7c:	859ff0ef          	jal	ra,2d4 <puts>
 a80:	00a00513          	li	a0,10
 a84:	dc5ff0ef          	jal	ra,848 <usleep>
 a88:	02c12083          	lw	ra,44(sp)
 a8c:	02812403          	lw	s0,40(sp)
 a90:	02412483          	lw	s1,36(sp)
 a94:	02012903          	lw	s2,32(sp)
 a98:	01c12983          	lw	s3,28(sp)
 a9c:	00000513          	li	a0,0
 aa0:	03010113          	addi	sp,sp,48
 aa4:	00008067          	ret
 aa8:	00001737          	lui	a4,0x1
 aac:	c2c70713          	addi	a4,a4,-980 # c2c <nxt.0+0x164>
 ab0:	f01ff06f          	j	9b0 <main+0x88>
 ab4:	000017b7          	lui	a5,0x1
 ab8:	c3078793          	addi	a5,a5,-976 # c30 <nxt.0+0x168>
 abc:	f1dff06f          	j	9d8 <main+0xb0>
