
darksocv.o:     file format elf32-littleriscv


Disassembly of section .text:

00000000 <boot>:
       0:	00008737          	lui	a4,0x8
       4:	19c72783          	lw	a5,412(a4) # 819c <threads>
       8:	00178693          	addi	a3,a5,1
       c:	18d72e23          	sw	a3,412(a4)
      10:	0017f793          	andi	a5,a5,1
      14:	04078663          	beqz	a5,60 <boot+0x60>
      18:	800007b7          	lui	a5,0x80000
      1c:	000f4637          	lui	a2,0xf4
      20:	000086b7          	lui	a3,0x8
      24:	00078793          	mv	a5,a5
      28:	23f60613          	addi	a2,a2,575 # f423f <tdat10+0xebd42>
      2c:	f8000593          	li	a1,-128
      30:	1986a703          	lw	a4,408(a3) # 8198 <utimers>
      34:	fff70513          	addi	a0,a4,-1
      38:	18a6ac23          	sw	a0,408(a3)
      3c:	00071e63          	bnez	a4,58 <boot+0x58>
      40:	0087d703          	lhu	a4,8(a5) # 80000008 <io+0x8>
      44:	00170713          	addi	a4,a4,1
      48:	01071713          	slli	a4,a4,0x10
      4c:	01075713          	srli	a4,a4,0x10
      50:	00e79423          	sh	a4,8(a5)
      54:	18c6ac23          	sw	a2,408(a3)
      58:	00b781a3          	sb	a1,3(a5)
      5c:	fd5ff06f          	j	30 <boot+0x30>
      60:	ff410113          	addi	sp,sp,-12
      64:	00112423          	sw	ra,8(sp)
      68:	7dc000ef          	jal	ra,844 <banner>
      6c:	0bc080ef          	jal	ra,8128 <main>
      70:	ff9ff06f          	j	68 <boot+0x68>

00000074 <board_name>:
      74:	04050c63          	beqz	a0,cc <board_name+0x58>
      78:	00100793          	li	a5,1
      7c:	04f50e63          	beq	a0,a5,d8 <board_name+0x64>
      80:	00200793          	li	a5,2
      84:	06f50063          	beq	a0,a5,e4 <board_name+0x70>
      88:	00300793          	li	a5,3
      8c:	06f50263          	beq	a0,a5,f0 <board_name+0x7c>
      90:	00400793          	li	a5,4
      94:	06f50463          	beq	a0,a5,fc <board_name+0x88>
      98:	00500793          	li	a5,5
      9c:	06f50663          	beq	a0,a5,108 <board_name+0x94>
      a0:	00600793          	li	a5,6
      a4:	06f50863          	beq	a0,a5,114 <board_name+0xa0>
      a8:	00700793          	li	a5,7
      ac:	06f50a63          	beq	a0,a5,120 <board_name+0xac>
      b0:	00800793          	li	a5,8
      b4:	06f50c63          	beq	a0,a5,12c <board_name+0xb8>
      b8:	00900793          	li	a5,9
      bc:	06f50e63          	beq	a0,a5,138 <board_name+0xc4>
      c0:	00008537          	lui	a0,0x8
      c4:	27c50513          	addi	a0,a0,636 # 827c <nxt.0+0xdc>
      c8:	00008067          	ret
      cc:	00008537          	lui	a0,0x8
      d0:	1d050513          	addi	a0,a0,464 # 81d0 <nxt.0+0x30>
      d4:	00008067          	ret
      d8:	00008537          	lui	a0,0x8
      dc:	1e050513          	addi	a0,a0,480 # 81e0 <nxt.0+0x40>
      e0:	00008067          	ret
      e4:	00008537          	lui	a0,0x8
      e8:	1f850513          	addi	a0,a0,504 # 81f8 <nxt.0+0x58>
      ec:	00008067          	ret
      f0:	00008537          	lui	a0,0x8
      f4:	20c50513          	addi	a0,a0,524 # 820c <nxt.0+0x6c>
      f8:	00008067          	ret
      fc:	00008537          	lui	a0,0x8
     100:	22050513          	addi	a0,a0,544 # 8220 <nxt.0+0x80>
     104:	00008067          	ret
     108:	00008537          	lui	a0,0x8
     10c:	23450513          	addi	a0,a0,564 # 8234 <nxt.0+0x94>
     110:	00008067          	ret
     114:	00008537          	lui	a0,0x8
     118:	24c50513          	addi	a0,a0,588 # 824c <nxt.0+0xac>
     11c:	00008067          	ret
     120:	00008537          	lui	a0,0x8
     124:	1b850513          	addi	a0,a0,440 # 81b8 <nxt.0+0x18>
     128:	00008067          	ret
     12c:	00008537          	lui	a0,0x8
     130:	26050513          	addi	a0,a0,608 # 8260 <nxt.0+0xc0>
     134:	00008067          	ret
     138:	00008537          	lui	a0,0x8
     13c:	1a450513          	addi	a0,a0,420 # 81a4 <nxt.0+0x4>
     140:	00008067          	ret

00000144 <getchar>:
     144:	800007b7          	lui	a5,0x80000
     148:	00078793          	mv	a5,a5
     14c:	0047c703          	lbu	a4,4(a5) # 80000004 <io+0x4>
     150:	00277713          	andi	a4,a4,2
     154:	fe070ce3          	beqz	a4,14c <getchar+0x8>
     158:	0057c503          	lbu	a0,5(a5)
     15c:	0ff57513          	andi	a0,a0,255
     160:	00008067          	ret

00000164 <putchar>:
     164:	800007b7          	lui	a5,0x80000
     168:	00a00713          	li	a4,10
     16c:	00078793          	mv	a5,a5
     170:	00e51c63          	bne	a0,a4,188 <putchar+0x24>
     174:	0047c703          	lbu	a4,4(a5) # 80000004 <io+0x4>
     178:	00177713          	andi	a4,a4,1
     17c:	fe071ce3          	bnez	a4,174 <putchar+0x10>
     180:	00d00713          	li	a4,13
     184:	00e782a3          	sb	a4,5(a5)
     188:	0047c703          	lbu	a4,4(a5)
     18c:	00177713          	andi	a4,a4,1
     190:	fe071ce3          	bnez	a4,188 <putchar+0x24>
     194:	0ff57713          	andi	a4,a0,255
     198:	00e782a3          	sb	a4,5(a5)
     19c:	00070513          	mv	a0,a4
     1a0:	00008067          	ret

000001a4 <gets>:
     1a4:	fe810113          	addi	sp,sp,-24
     1a8:	00812823          	sw	s0,16(sp)
     1ac:	00912623          	sw	s1,12(sp)
     1b0:	00112a23          	sw	ra,20(sp)
     1b4:	00050493          	mv	s1,a0
     1b8:	00050413          	mv	s0,a0
     1bc:	fff58713          	addi	a4,a1,-1
     1c0:	02070063          	beqz	a4,1e0 <gets+0x3c>
     1c4:	00b12223          	sw	a1,4(sp)
     1c8:	00e12023          	sw	a4,0(sp)
     1cc:	f79ff0ef          	jal	ra,144 <getchar>
     1d0:	00a00693          	li	a3,10
     1d4:	00012703          	lw	a4,0(sp)
     1d8:	00412583          	lw	a1,4(sp)
     1dc:	02d51863          	bne	a0,a3,20c <gets+0x68>
     1e0:	00a00513          	li	a0,10
     1e4:	f81ff0ef          	jal	ra,164 <putchar>
     1e8:	00040023          	sb	zero,0(s0)
     1ec:	00941463          	bne	s0,s1,1f4 <gets+0x50>
     1f0:	00000493          	li	s1,0
     1f4:	01412083          	lw	ra,20(sp)
     1f8:	01012403          	lw	s0,16(sp)
     1fc:	00048513          	mv	a0,s1
     200:	00c12483          	lw	s1,12(sp)
     204:	01810113          	addi	sp,sp,24
     208:	00008067          	ret
     20c:	00b12423          	sw	a1,8(sp)
     210:	00e12223          	sw	a4,4(sp)
     214:	00d00693          	li	a3,13
     218:	00a12023          	sw	a0,0(sp)
     21c:	fcd502e3          	beq	a0,a3,1e0 <gets+0x3c>
     220:	f45ff0ef          	jal	ra,164 <putchar>
     224:	00012783          	lw	a5,0(sp)
     228:	00800693          	li	a3,8
     22c:	00412703          	lw	a4,4(sp)
     230:	00812583          	lw	a1,8(sp)
     234:	00d79e63          	bne	a5,a3,250 <gets+0xac>
     238:	00940863          	beq	s0,s1,248 <gets+0xa4>
     23c:	fe040fa3          	sb	zero,-1(s0)
     240:	00058713          	mv	a4,a1
     244:	fff40413          	addi	s0,s0,-1
     248:	00070593          	mv	a1,a4
     24c:	f71ff06f          	j	1bc <gets+0x18>
     250:	00f40023          	sb	a5,0(s0)
     254:	00140413          	addi	s0,s0,1
     258:	ff1ff06f          	j	248 <gets+0xa4>

0000025c <putstr>:
     25c:	ff410113          	addi	sp,sp,-12
     260:	00812223          	sw	s0,4(sp)
     264:	00112423          	sw	ra,8(sp)
     268:	00050413          	mv	s0,a0
     26c:	00051663          	bnez	a0,278 <putstr+0x1c>
     270:	00008437          	lui	s0,0x8
     274:	28440413          	addi	s0,s0,644 # 8284 <nxt.0+0xe4>
     278:	00044503          	lbu	a0,0(s0)
     27c:	00051a63          	bnez	a0,290 <putstr+0x34>
     280:	00812083          	lw	ra,8(sp)
     284:	00412403          	lw	s0,4(sp)
     288:	00c10113          	addi	sp,sp,12
     28c:	00008067          	ret
     290:	00140413          	addi	s0,s0,1
     294:	ed1ff0ef          	jal	ra,164 <putchar>
     298:	fe1ff06f          	j	278 <putstr+0x1c>

0000029c <puts>:
     29c:	ff410113          	addi	sp,sp,-12
     2a0:	00112423          	sw	ra,8(sp)
     2a4:	fb9ff0ef          	jal	ra,25c <putstr>
     2a8:	00812083          	lw	ra,8(sp)
     2ac:	00a00513          	li	a0,10
     2b0:	00c10113          	addi	sp,sp,12
     2b4:	eb1ff06f          	j	164 <putchar>

000002b8 <putdx>:
     2b8:	fac10113          	addi	sp,sp,-84
     2bc:	00b12023          	sw	a1,0(sp)
     2c0:	000085b7          	lui	a1,0x8
     2c4:	04812623          	sw	s0,76(sp)
     2c8:	04912423          	sw	s1,72(sp)
     2cc:	02c00613          	li	a2,44
     2d0:	2a058493          	addi	s1,a1,672 # 82a0 <nxt.0+0x100>
     2d4:	00050413          	mv	s0,a0
     2d8:	2a058593          	addi	a1,a1,672
     2dc:	01c10513          	addi	a0,sp,28
     2e0:	04112823          	sw	ra,80(sp)
     2e4:	208000ef          	jal	ra,4ec <memcpy>
     2e8:	01400613          	li	a2,20
     2ec:	02c48593          	addi	a1,s1,44
     2f0:	00810513          	addi	a0,sp,8
     2f4:	1f8000ef          	jal	ra,4ec <memcpy>
     2f8:	00012703          	lw	a4,0(sp)
     2fc:	00810793          	addi	a5,sp,8
     300:	00070463          	beqz	a4,308 <putdx+0x50>
     304:	01c10793          	addi	a5,sp,28
     308:	01800493          	li	s1,24
     30c:	0007a583          	lw	a1,0(a5)
     310:	00059c63          	bnez	a1,328 <putdx+0x70>
     314:	05012083          	lw	ra,80(sp)
     318:	04c12403          	lw	s0,76(sp)
     31c:	04812483          	lw	s1,72(sp)
     320:	05410113          	addi	sp,sp,84
     324:	00008067          	ret
     328:	00100713          	li	a4,1
     32c:	00e58463          	beq	a1,a4,334 <putdx+0x7c>
     330:	04b46063          	bltu	s0,a1,370 <putdx+0xb8>
     334:	00008737          	lui	a4,0x8
     338:	28c70693          	addi	a3,a4,652 # 828c <nxt.0+0xec>
     33c:	00012703          	lw	a4,0(sp)
     340:	00f12223          	sw	a5,4(sp)
     344:	02070c63          	beqz	a4,37c <putdx+0xc4>
     348:	00040513          	mv	a0,s0
     34c:	3f0000ef          	jal	ra,73c <__udivsi3>
     350:	00a00593          	li	a1,10
     354:	3f0000ef          	jal	ra,744 <__umodsi3>
     358:	000087b7          	lui	a5,0x8
     35c:	28c78693          	addi	a3,a5,652 # 828c <nxt.0+0xec>
     360:	00a686b3          	add	a3,a3,a0
     364:	0006c503          	lbu	a0,0(a3)
     368:	dfdff0ef          	jal	ra,164 <putchar>
     36c:	00412783          	lw	a5,4(sp)
     370:	ff848493          	addi	s1,s1,-8
     374:	00478793          	addi	a5,a5,4
     378:	f95ff06f          	j	30c <putdx+0x54>
     37c:	00448713          	addi	a4,s1,4
     380:	00e45733          	srl	a4,s0,a4
     384:	00f77713          	andi	a4,a4,15
     388:	00e68733          	add	a4,a3,a4
     38c:	00074503          	lbu	a0,0(a4)
     390:	dd5ff0ef          	jal	ra,164 <putchar>
     394:	00945733          	srl	a4,s0,s1
     398:	000087b7          	lui	a5,0x8
     39c:	00f77713          	andi	a4,a4,15
     3a0:	28c78693          	addi	a3,a5,652 # 828c <nxt.0+0xec>
     3a4:	00e686b3          	add	a3,a3,a4
     3a8:	fbdff06f          	j	364 <putdx+0xac>

000003ac <putx>:
     3ac:	00000593          	li	a1,0
     3b0:	f09ff06f          	j	2b8 <putdx>

000003b4 <putd>:
     3b4:	00100593          	li	a1,1
     3b8:	f01ff06f          	j	2b8 <putdx>

000003bc <printf>:
     3bc:	fdc10113          	addi	sp,sp,-36
     3c0:	02f12023          	sw	a5,32(sp)
     3c4:	01010793          	addi	a5,sp,16
     3c8:	00812423          	sw	s0,8(sp)
     3cc:	00112623          	sw	ra,12(sp)
     3d0:	00912223          	sw	s1,4(sp)
     3d4:	00050413          	mv	s0,a0
     3d8:	00b12823          	sw	a1,16(sp)
     3dc:	00c12a23          	sw	a2,20(sp)
     3e0:	00d12c23          	sw	a3,24(sp)
     3e4:	00e12e23          	sw	a4,28(sp)
     3e8:	00f12023          	sw	a5,0(sp)
     3ec:	00044503          	lbu	a0,0(s0)
     3f0:	00051c63          	bnez	a0,408 <printf+0x4c>
     3f4:	00c12083          	lw	ra,12(sp)
     3f8:	00812403          	lw	s0,8(sp)
     3fc:	00412483          	lw	s1,4(sp)
     400:	02410113          	addi	sp,sp,36
     404:	00008067          	ret
     408:	02500793          	li	a5,37
     40c:	00140493          	addi	s1,s0,1
     410:	06f51a63          	bne	a0,a5,484 <printf+0xc8>
     414:	00144503          	lbu	a0,1(s0)
     418:	07300793          	li	a5,115
     41c:	02f51063          	bne	a0,a5,43c <printf+0x80>
     420:	00012783          	lw	a5,0(sp)
     424:	0007a503          	lw	a0,0(a5)
     428:	00478713          	addi	a4,a5,4
     42c:	00e12023          	sw	a4,0(sp)
     430:	e2dff0ef          	jal	ra,25c <putstr>
     434:	00148413          	addi	s0,s1,1
     438:	fb5ff06f          	j	3ec <printf+0x30>
     43c:	07800793          	li	a5,120
     440:	00f51e63          	bne	a0,a5,45c <printf+0xa0>
     444:	00012783          	lw	a5,0(sp)
     448:	0007a503          	lw	a0,0(a5)
     44c:	00478713          	addi	a4,a5,4
     450:	00e12023          	sw	a4,0(sp)
     454:	f59ff0ef          	jal	ra,3ac <putx>
     458:	fddff06f          	j	434 <printf+0x78>
     45c:	06400793          	li	a5,100
     460:	00f51e63          	bne	a0,a5,47c <printf+0xc0>
     464:	00012783          	lw	a5,0(sp)
     468:	0007a503          	lw	a0,0(a5)
     46c:	00478713          	addi	a4,a5,4
     470:	00e12023          	sw	a4,0(sp)
     474:	f41ff0ef          	jal	ra,3b4 <putd>
     478:	fbdff06f          	j	434 <printf+0x78>
     47c:	ce9ff0ef          	jal	ra,164 <putchar>
     480:	fb5ff06f          	j	434 <printf+0x78>
     484:	ce1ff0ef          	jal	ra,164 <putchar>
     488:	00040493          	mv	s1,s0
     48c:	fa9ff06f          	j	434 <printf+0x78>

00000490 <strncmp>:
     490:	fff60613          	addi	a2,a2,-1
     494:	00000793          	li	a5,0
     498:	00f50733          	add	a4,a0,a5
     49c:	00074683          	lbu	a3,0(a4)
     4a0:	00f58733          	add	a4,a1,a5
     4a4:	00074703          	lbu	a4,0(a4)
     4a8:	00c78a63          	beq	a5,a2,4bc <strncmp+0x2c>
     4ac:	00068863          	beqz	a3,4bc <strncmp+0x2c>
     4b0:	00070663          	beqz	a4,4bc <strncmp+0x2c>
     4b4:	00178793          	addi	a5,a5,1
     4b8:	fee680e3          	beq	a3,a4,498 <strncmp+0x8>
     4bc:	40e68533          	sub	a0,a3,a4
     4c0:	00008067          	ret

000004c4 <strcmp>:
     4c4:	fff00613          	li	a2,-1
     4c8:	fc9ff06f          	j	490 <strncmp>

000004cc <strlen>:
     4cc:	00050793          	mv	a5,a0
     4d0:	00000513          	li	a0,0
     4d4:	00a78733          	add	a4,a5,a0
     4d8:	00074703          	lbu	a4,0(a4)
     4dc:	00071463          	bnez	a4,4e4 <strlen+0x18>
     4e0:	00008067          	ret
     4e4:	00150513          	addi	a0,a0,1
     4e8:	fedff06f          	j	4d4 <strlen+0x8>

000004ec <memcpy>:
     4ec:	00000793          	li	a5,0
     4f0:	00c79463          	bne	a5,a2,4f8 <memcpy+0xc>
     4f4:	00008067          	ret
     4f8:	00f58733          	add	a4,a1,a5
     4fc:	00074683          	lbu	a3,0(a4)
     500:	00f50733          	add	a4,a0,a5
     504:	00178793          	addi	a5,a5,1
     508:	00d70023          	sb	a3,0(a4)
     50c:	fe5ff06f          	j	4f0 <memcpy+0x4>

00000510 <memset>:
     510:	00c50633          	add	a2,a0,a2
     514:	00050793          	mv	a5,a0
     518:	00c79463          	bne	a5,a2,520 <memset+0x10>
     51c:	00008067          	ret
     520:	00178793          	addi	a5,a5,1
     524:	feb78fa3          	sb	a1,-1(a5)
     528:	ff1ff06f          	j	518 <memset+0x8>

0000052c <strtok>:
     52c:	fec10113          	addi	sp,sp,-20
     530:	00812623          	sw	s0,12(sp)
     534:	00050413          	mv	s0,a0
     538:	00058513          	mv	a0,a1
     53c:	00b12023          	sw	a1,0(sp)
     540:	00112823          	sw	ra,16(sp)
     544:	00912423          	sw	s1,8(sp)
     548:	f85ff0ef          	jal	ra,4cc <strlen>
     54c:	00012583          	lw	a1,0(sp)
     550:	00050613          	mv	a2,a0
     554:	00041863          	bnez	s0,564 <strtok+0x38>
     558:	000087b7          	lui	a5,0x8
     55c:	1a07a403          	lw	s0,416(a5) # 81a0 <nxt.0>
     560:	04040463          	beqz	s0,5a8 <strtok+0x7c>
     564:	00040493          	mv	s1,s0
     568:	0004c783          	lbu	a5,0(s1)
     56c:	00079863          	bnez	a5,57c <strtok+0x50>
     570:	000087b7          	lui	a5,0x8
     574:	1a07a023          	sw	zero,416(a5) # 81a0 <nxt.0>
     578:	0300006f          	j	5a8 <strtok+0x7c>
     57c:	00048513          	mv	a0,s1
     580:	00c12223          	sw	a2,4(sp)
     584:	00b12023          	sw	a1,0(sp)
     588:	f09ff0ef          	jal	ra,490 <strncmp>
     58c:	00012583          	lw	a1,0(sp)
     590:	00412603          	lw	a2,4(sp)
     594:	00148793          	addi	a5,s1,1
     598:	02051463          	bnez	a0,5c0 <strtok+0x94>
     59c:	00008737          	lui	a4,0x8
     5a0:	00048023          	sb	zero,0(s1)
     5a4:	1af72023          	sw	a5,416(a4) # 81a0 <nxt.0>
     5a8:	01012083          	lw	ra,16(sp)
     5ac:	00040513          	mv	a0,s0
     5b0:	00c12403          	lw	s0,12(sp)
     5b4:	00812483          	lw	s1,8(sp)
     5b8:	01410113          	addi	sp,sp,20
     5bc:	00008067          	ret
     5c0:	00078493          	mv	s1,a5
     5c4:	fa5ff06f          	j	568 <strtok+0x3c>

000005c8 <atoi>:
     5c8:	00050713          	mv	a4,a0
     5cc:	00000693          	li	a3,0
     5d0:	00000513          	li	a0,0
     5d4:	02d00613          	li	a2,45
     5d8:	00071a63          	bnez	a4,5ec <atoi+0x24>
     5dc:	02069c63          	bnez	a3,614 <atoi+0x4c>
     5e0:	00008067          	ret
     5e4:	00100693          	li	a3,1
     5e8:	0240006f          	j	60c <atoi+0x44>
     5ec:	00074783          	lbu	a5,0(a4)
     5f0:	fe0786e3          	beqz	a5,5dc <atoi+0x14>
     5f4:	fec788e3          	beq	a5,a2,5e4 <atoi+0x1c>
     5f8:	00351593          	slli	a1,a0,0x3
     5fc:	fd078793          	addi	a5,a5,-48
     600:	00b787b3          	add	a5,a5,a1
     604:	00151513          	slli	a0,a0,0x1
     608:	00a78533          	add	a0,a5,a0
     60c:	00170713          	addi	a4,a4,1
     610:	fc9ff06f          	j	5d8 <atoi+0x10>
     614:	40a00533          	neg	a0,a0
     618:	00008067          	ret

0000061c <xtoi>:
     61c:	00050713          	mv	a4,a0
     620:	03900693          	li	a3,57
     624:	00000513          	li	a0,0
     628:	00070663          	beqz	a4,634 <xtoi+0x18>
     62c:	00074783          	lbu	a5,0(a4)
     630:	00079463          	bnez	a5,638 <xtoi+0x1c>
     634:	00008067          	ret
     638:	00451513          	slli	a0,a0,0x4
     63c:	00f6ea63          	bltu	a3,a5,650 <xtoi+0x34>
     640:	fd078793          	addi	a5,a5,-48
     644:	00a78533          	add	a0,a5,a0
     648:	00170713          	addi	a4,a4,1
     64c:	fddff06f          	j	628 <xtoi+0xc>
     650:	05f7f793          	andi	a5,a5,95
     654:	fc978793          	addi	a5,a5,-55
     658:	fedff06f          	j	644 <xtoi+0x28>

0000065c <mac>:
     65c:	857f                	0x857f
     65e:	00c5                	addi	ra,ra,17
     660:	00008067          	ret

00000664 <__umulsi3>:
     664:	00050793          	mv	a5,a0
     668:	00b57663          	bgeu	a0,a1,674 <__umulsi3+0x10>
     66c:	00058793          	mv	a5,a1
     670:	00050593          	mv	a1,a0
     674:	00000513          	li	a0,0
     678:	00059463          	bnez	a1,680 <__umulsi3+0x1c>
     67c:	00008067          	ret
     680:	0015f713          	andi	a4,a1,1
     684:	00070463          	beqz	a4,68c <__umulsi3+0x28>
     688:	00f50533          	add	a0,a0,a5
     68c:	00179793          	slli	a5,a5,0x1
     690:	0015d593          	srli	a1,a1,0x1
     694:	fe5ff06f          	j	678 <__umulsi3+0x14>

00000698 <__mulsi3>:
     698:	ff410113          	addi	sp,sp,-12
     69c:	00912023          	sw	s1,0(sp)
     6a0:	00112423          	sw	ra,8(sp)
     6a4:	00812223          	sw	s0,4(sp)
     6a8:	00000493          	li	s1,0
     6ac:	00055663          	bgez	a0,6b8 <__mulsi3+0x20>
     6b0:	40a00533          	neg	a0,a0
     6b4:	00100493          	li	s1,1
     6b8:	00000413          	li	s0,0
     6bc:	0005d663          	bgez	a1,6c8 <__mulsi3+0x30>
     6c0:	40b005b3          	neg	a1,a1
     6c4:	00100413          	li	s0,1
     6c8:	f9dff0ef          	jal	ra,664 <__umulsi3>
     6cc:	00848463          	beq	s1,s0,6d4 <__mulsi3+0x3c>
     6d0:	40a00533          	neg	a0,a0
     6d4:	00812083          	lw	ra,8(sp)
     6d8:	00412403          	lw	s0,4(sp)
     6dc:	00012483          	lw	s1,0(sp)
     6e0:	00c10113          	addi	sp,sp,12
     6e4:	00008067          	ret

000006e8 <__udiv_umod_si3>:
     6e8:	00050793          	mv	a5,a0
     6ec:	00100713          	li	a4,1
     6f0:	00058513          	mv	a0,a1
     6f4:	00059863          	bnez	a1,704 <__udiv_umod_si3+0x1c>
     6f8:	00008067          	ret
     6fc:	00171713          	slli	a4,a4,0x1
     700:	00151513          	slli	a0,a0,0x1
     704:	fef56ce3          	bltu	a0,a5,6fc <__udiv_umod_si3+0x14>
     708:	00050693          	mv	a3,a0
     70c:	00000513          	li	a0,0
     710:	00078463          	beqz	a5,718 <__udiv_umod_si3+0x30>
     714:	00071863          	bnez	a4,724 <__udiv_umod_si3+0x3c>
     718:	fe0610e3          	bnez	a2,6f8 <__udiv_umod_si3+0x10>
     71c:	00078513          	mv	a0,a5
     720:	fd9ff06f          	j	6f8 <__udiv_umod_si3+0x10>
     724:	00d7e663          	bltu	a5,a3,730 <__udiv_umod_si3+0x48>
     728:	40d787b3          	sub	a5,a5,a3
     72c:	00e50533          	add	a0,a0,a4
     730:	00175713          	srli	a4,a4,0x1
     734:	0016d693          	srli	a3,a3,0x1
     738:	fd9ff06f          	j	710 <__udiv_umod_si3+0x28>

0000073c <__udivsi3>:
     73c:	00100613          	li	a2,1
     740:	fa9ff06f          	j	6e8 <__udiv_umod_si3>

00000744 <__umodsi3>:
     744:	00000613          	li	a2,0
     748:	fa1ff06f          	j	6e8 <__udiv_umod_si3>

0000074c <__div_mod_si3>:
     74c:	06058e63          	beqz	a1,7c8 <__div_mod_si3+0x7c>
     750:	ff010113          	addi	sp,sp,-16
     754:	00812423          	sw	s0,8(sp)
     758:	00912223          	sw	s1,4(sp)
     75c:	00112623          	sw	ra,12(sp)
     760:	00060413          	mv	s0,a2
     764:	00000493          	li	s1,0
     768:	00055663          	bgez	a0,774 <__div_mod_si3+0x28>
     76c:	40a00533          	neg	a0,a0
     770:	00100493          	li	s1,1
     774:	00000793          	li	a5,0
     778:	0005d663          	bgez	a1,784 <__div_mod_si3+0x38>
     77c:	40b005b3          	neg	a1,a1
     780:	00100793          	li	a5,1
     784:	00040613          	mv	a2,s0
     788:	00f12023          	sw	a5,0(sp)
     78c:	f5dff0ef          	jal	ra,6e8 <__udiv_umod_si3>
     790:	00050593          	mv	a1,a0
     794:	02040463          	beqz	s0,7bc <__div_mod_si3+0x70>
     798:	00012783          	lw	a5,0(sp)
     79c:	00f48463          	beq	s1,a5,7a4 <__div_mod_si3+0x58>
     7a0:	40a005b3          	neg	a1,a0
     7a4:	00c12083          	lw	ra,12(sp)
     7a8:	00812403          	lw	s0,8(sp)
     7ac:	00412483          	lw	s1,4(sp)
     7b0:	00058513          	mv	a0,a1
     7b4:	01010113          	addi	sp,sp,16
     7b8:	00008067          	ret
     7bc:	fe0484e3          	beqz	s1,7a4 <__div_mod_si3+0x58>
     7c0:	40a005b3          	neg	a1,a0
     7c4:	fe1ff06f          	j	7a4 <__div_mod_si3+0x58>
     7c8:	00058513          	mv	a0,a1
     7cc:	00008067          	ret

000007d0 <__divsi3>:
     7d0:	00100613          	li	a2,1
     7d4:	f79ff06f          	j	74c <__div_mod_si3>

000007d8 <__modsi3>:
     7d8:	00000613          	li	a2,0
     7dc:	f71ff06f          	j	74c <__div_mod_si3>

000007e0 <usleep>:
     7e0:	000087b7          	lui	a5,0x8
     7e4:	19c7a703          	lw	a4,412(a5) # 819c <threads>
     7e8:	00100793          	li	a5,1
     7ec:	00e7dc63          	bge	a5,a4,804 <usleep+0x24>
     7f0:	fff00713          	li	a4,-1
     7f4:	000087b7          	lui	a5,0x8
     7f8:	fff50513          	addi	a0,a0,-1
     7fc:	02e51263          	bne	a0,a4,820 <usleep+0x40>
     800:	00008067          	ret
     804:	800007b7          	lui	a5,0x80000
     808:	fff00693          	li	a3,-1
     80c:	00078793          	mv	a5,a5
     810:	f8000613          	li	a2,-128
     814:	fff50513          	addi	a0,a0,-1
     818:	00d51c63          	bne	a0,a3,830 <usleep+0x50>
     81c:	00008067          	ret
     820:	1987a683          	lw	a3,408(a5) # 80000198 <io+0x198>
     824:	1987a603          	lw	a2,408(a5)
     828:	fed60ee3          	beq	a2,a3,824 <usleep+0x44>
     82c:	fcdff06f          	j	7f8 <usleep+0x18>
     830:	00c781a3          	sb	a2,3(a5)
     834:	0037c703          	lbu	a4,3(a5)
     838:	0ff77713          	andi	a4,a4,255
     83c:	fe070ce3          	beqz	a4,834 <usleep+0x54>
     840:	fd5ff06f          	j	814 <usleep+0x34>

00000844 <banner>:
     844:	ee010113          	addi	sp,sp,-288
     848:	000085b7          	lui	a1,0x8
     84c:	10d00613          	li	a2,269
     850:	2e058593          	addi	a1,a1,736 # 82e0 <nxt.0+0x140>
     854:	00410513          	addi	a0,sp,4
     858:	10112e23          	sw	ra,284(sp)
     85c:	10812c23          	sw	s0,280(sp)
     860:	10912a23          	sw	s1,276(sp)
     864:	c89ff0ef          	jal	ra,4ec <memcpy>
     868:	00a00513          	li	a0,10
     86c:	8f9ff0ef          	jal	ra,164 <putchar>
     870:	00410413          	addi	s0,sp,4
     874:	00044783          	lbu	a5,0(s0)
     878:	00079c63          	bnez	a5,890 <banner+0x4c>
     87c:	11c12083          	lw	ra,284(sp)
     880:	11812403          	lw	s0,280(sp)
     884:	11412483          	lw	s1,276(sp)
     888:	12010113          	addi	sp,sp,288
     88c:	00008067          	ret
     890:	00144483          	lbu	s1,1(s0)
     894:	00240413          	addi	s0,s0,2
     898:	fc048ee3          	beqz	s1,874 <banner+0x30>
     89c:	00078513          	mv	a0,a5
     8a0:	00f12023          	sw	a5,0(sp)
     8a4:	8c1ff0ef          	jal	ra,164 <putchar>
     8a8:	00012783          	lw	a5,0(sp)
     8ac:	fff48493          	addi	s1,s1,-1
     8b0:	fe9ff06f          	j	898 <banner+0x54>

000008b4 <success>:
     8b4:	ff410113          	addi	sp,sp,-12
     8b8:	00a00513          	li	a0,10
     8bc:	00112423          	sw	ra,8(sp)
     8c0:	8a5ff0ef          	jal	ra,164 <putchar>
     8c4:	00812083          	lw	ra,8(sp)
     8c8:	00008537          	lui	a0,0x8
     8cc:	46450513          	addi	a0,a0,1124 # 8464 <nxt.0+0x2c4>
     8d0:	00c10113          	addi	sp,sp,12
     8d4:	989ff06f          	j	25c <putstr>

000008d8 <failure>:
     8d8:	00008537          	lui	a0,0x8
     8dc:	47850513          	addi	a0,a0,1144 # 8478 <nxt.0+0x2d8>
     8e0:	97dff06f          	j	25c <putstr>

000008e4 <OK>:
     8e4:	00008537          	lui	a0,0x8
     8e8:	48850513          	addi	a0,a0,1160 # 8488 <nxt.0+0x2e8>
     8ec:	971ff06f          	j	25c <putstr>

000008f0 <reset_vec>:
     8f0:	0040006f          	j	8f4 <start>

000008f4 <start>:
     8f4:	00000093          	li	ra,0
     8f8:	00000113          	li	sp,0
     8fc:	00000193          	li	gp,0
     900:	00000213          	li	tp,0
     904:	00000293          	li	t0,0
     908:	00000313          	li	t1,0
     90c:	00000393          	li	t2,0
     910:	00000413          	li	s0,0
     914:	00000493          	li	s1,0
     918:	00000513          	li	a0,0
     91c:	00000593          	li	a1,0
     920:	00000613          	li	a2,0
     924:	00000693          	li	a3,0
     928:	00000713          	li	a4,0
     92c:	00000793          	li	a5,0
     930:	3e800093          	li	ra,1000
     934:	72c0506f          	j	6060 <lui>

00000938 <lui_ret>:
     938:	3e800093          	li	ra,1000
     93c:	14d0306f          	j	4288 <auipc>

00000940 <auipc_ret>:
     940:	3e800093          	li	ra,1000
     944:	0fc0706f          	j	7a40 <j>

00000948 <j_ret>:
     948:	3e800093          	li	ra,1000
     94c:	4f40606f          	j	6e40 <jal>

00000950 <jal_ret>:
     950:	3e800093          	li	ra,1000
     954:	4950306f          	j	45e8 <jalr>

00000958 <jalr_ret>:
     958:	3e800093          	li	ra,1000
     95c:	6240306f          	j	3f80 <beq>

00000960 <beq_ret>:
     960:	3e800093          	li	ra,1000
     964:	5cd0306f          	j	4730 <bne>

00000968 <bne_ret>:
     968:	3e800093          	li	ra,1000
     96c:	4b80706f          	j	7e24 <blt>

00000970 <blt_ret>:
     970:	3e800093          	li	ra,1000
     974:	14c0706f          	j	7ac0 <bge>

00000978 <bge_ret>:
     978:	3e800093          	li	ra,1000
     97c:	2ac0206f          	j	2c28 <bltu>

00000980 <bltu_ret>:
     980:	3e800093          	li	ra,1000
     984:	2e00406f          	j	4c64 <bgeu>

00000988 <bgeu_ret>:
     988:	3e800093          	li	ra,1000
     98c:	25d0106f          	j	23e8 <lb>

00000990 <lb_ret>:
     990:	3e800093          	li	ra,1000
     994:	4e50106f          	j	2678 <lh>

00000998 <lh_ret>:
     998:	3e800093          	li	ra,1000
     99c:	3140306f          	j	3cb0 <lw>

000009a0 <lw_ret>:
     9a0:	3e800093          	li	ra,1000
     9a4:	1680506f          	j	5b0c <lbu>

000009a8 <lbu_ret>:
     9a8:	3e800093          	li	ra,1000
     9ac:	3f00506f          	j	5d9c <lhu>

000009b0 <lhu_ret>:
     9b0:	3e800093          	li	ra,1000
     9b4:	24d0606f          	j	7400 <sb>

000009b8 <sb_ret>:
     9b8:	3e800093          	li	ra,1000
     9bc:	2bd0006f          	j	1478 <sh>

000009c0 <sh_ret>:
     9c0:	3e800093          	li	ra,1000
     9c4:	6250206f          	j	37e8 <sw>

000009c8 <sw_ret>:
     9c8:	3e800093          	li	ra,1000
     9cc:	14d0306f          	j	4318 <addi>

000009d0 <addi_ret>:
     9d0:	3e800093          	li	ra,1000
     9d4:	5900206f          	j	2f64 <slti>

000009d8 <slti_ret>:
     9d8:	3e800093          	li	ra,1000
     9dc:	05c0406f          	j	4a38 <xori>

000009e0 <xori_ret>:
     9e0:	3e800093          	li	ra,1000
     9e4:	23c0606f          	j	6c20 <ori>

000009e8 <ori_ret>:
     9e8:	3e800093          	li	ra,1000
     9ec:	64d0606f          	j	7838 <andi>

000009f0 <andi_ret>:
     9f0:	3e800093          	li	ra,1000
     9f4:	02d0206f          	j	3220 <slli>

000009f8 <slli_ret>:
     9f8:	3e800093          	li	ra,1000
     9fc:	2f10206f          	j	34ec <srli>

00000a00 <srli_ret>:
     a00:	3e800093          	li	ra,1000
     a04:	7250106f          	j	2928 <srai>

00000a08 <srai_ret>:
     a08:	3e800093          	li	ra,1000
     a0c:	4d00606f          	j	6edc <add>

00000a10 <add_ret>:
     a10:	3e800093          	li	ra,1000
     a14:	7210006f          	j	1934 <sub>

00000a18 <sub_ret>:
     a18:	3e800093          	li	ra,1000
     a1c:	41c0106f          	j	1e38 <sll>

00000a20 <sll_ret>:
     a20:	3e800093          	li	ra,1000
     a24:	3dd0406f          	j	5600 <slt>

00000a28 <slt_ret>:
     a28:	3e800093          	li	ra,1000
     a2c:	5480006f          	j	f74 <xor>

00000a30 <xor_ret>:
     a30:	3e800093          	li	ra,1000
     a34:	5cc0406f          	j	5000 <srl>

00000a38 <srl_ret>:
     a38:	3e800093          	li	ra,1000
     a3c:	7080506f          	j	6144 <sra>

00000a40 <sra_ret>:
     a40:	3e800093          	li	ra,1000
     a44:	0280006f          	j	a6c <or>

00000a48 <or_ret>:
     a48:	3e800093          	li	ra,1000
     a4c:	4d90506f          	j	6724 <and>

00000a50 <and_ret>:
     a50:	3e800093          	li	ra,1000
     a54:	6b00506f          	j	6104 <simple>

00000a58 <simple_ret>:
     a58:	00009137          	lui	sp,0x9
     a5c:	deadc1b7          	lui	gp,0xdeadc
     a60:	eef18193          	addi	gp,gp,-273 # deadbeef <io+0x5eadbeef>
     a64:	00018213          	mv	tp,gp
     a68:	e4dff0ef          	jal	ra,8b4 <success>

00000a6c <or>:
     a6c:	00001537          	lui	a0,0x1
     a70:	a8c50513          	addi	a0,a0,-1396 # a8c <.test_name>

00000a74 <loop>:
     a74:	fe8ff0ef          	jal	ra,25c <putstr>

00000a78 <.prname_next>:
     a78:	00050583          	lb	a1,0(a0)
     a7c:	00058a63          	beqz	a1,a90 <.prname_done>
     a80:	00b62023          	sw	a1,0(a2)
     a84:	00150513          	addi	a0,a0,1
     a88:	ff1ff06f          	j	a78 <.prname_next>

00000a8c <.test_name>:
     a8c:	0000726f          	jal	tp,7a8c <test_2+0x10>

00000a90 <.prname_done>:
     a90:	02e00593          	li	a1,46
     a94:	00b62023          	sw	a1,0(a2)
     a98:	00b62023          	sw	a1,0(a2)

00000a9c <test_2>:
     a9c:	ff0100b7          	lui	ra,0xff010
     aa0:	f0008093          	addi	ra,ra,-256 # ff00ff00 <io+0x7f00ff00>
     aa4:	0f0f1137          	lui	sp,0xf0f1
     aa8:	f0f10113          	addi	sp,sp,-241 # f0f0f0f <tdat10+0xf0e8a12>
     aac:	0020e1b3          	or	gp,ra,sp
     ab0:	ff1007b7          	lui	a5,0xff100
     ab4:	f0f78793          	addi	a5,a5,-241 # ff0fff0f <io+0x7f0fff0f>
     ab8:	00200713          	li	a4,2
     abc:	4af19263          	bne	gp,a5,f60 <fail>

00000ac0 <test_3>:
     ac0:	0ff010b7          	lui	ra,0xff01
     ac4:	ff008093          	addi	ra,ra,-16 # ff00ff0 <tdat10+0xfef8af3>
     ac8:	f0f0f137          	lui	sp,0xf0f0f
     acc:	0f010113          	addi	sp,sp,240 # f0f0f0f0 <io+0x70f0f0f0>
     ad0:	0020e1b3          	or	gp,ra,sp
     ad4:	fff107b7          	lui	a5,0xfff10
     ad8:	ff078793          	addi	a5,a5,-16 # fff0fff0 <io+0x7ff0fff0>
     adc:	00300713          	li	a4,3
     ae0:	48f19063          	bne	gp,a5,f60 <fail>

00000ae4 <test_4>:
     ae4:	00ff00b7          	lui	ra,0xff0
     ae8:	0ff08093          	addi	ra,ra,255 # ff00ff <tdat10+0xfe7c02>
     aec:	0f0f1137          	lui	sp,0xf0f1
     af0:	f0f10113          	addi	sp,sp,-241 # f0f0f0f <tdat10+0xf0e8a12>
     af4:	0020e1b3          	or	gp,ra,sp
     af8:	0fff17b7          	lui	a5,0xfff1
     afc:	fff78793          	addi	a5,a5,-1 # fff0fff <tdat10+0xffe8b02>
     b00:	00400713          	li	a4,4
     b04:	44f19e63          	bne	gp,a5,f60 <fail>

00000b08 <test_5>:
     b08:	f00ff0b7          	lui	ra,0xf00ff
     b0c:	00f08093          	addi	ra,ra,15 # f00ff00f <io+0x700ff00f>
     b10:	f0f0f137          	lui	sp,0xf0f0f
     b14:	0f010113          	addi	sp,sp,240 # f0f0f0f0 <io+0x70f0f0f0>
     b18:	0020e1b3          	or	gp,ra,sp
     b1c:	f0fff7b7          	lui	a5,0xf0fff
     b20:	0ff78793          	addi	a5,a5,255 # f0fff0ff <io+0x70fff0ff>
     b24:	00500713          	li	a4,5
     b28:	42f19c63          	bne	gp,a5,f60 <fail>

00000b2c <test_6>:
     b2c:	ff0100b7          	lui	ra,0xff010
     b30:	f0008093          	addi	ra,ra,-256 # ff00ff00 <io+0x7f00ff00>
     b34:	0f0f1137          	lui	sp,0xf0f1
     b38:	f0f10113          	addi	sp,sp,-241 # f0f0f0f <tdat10+0xf0e8a12>
     b3c:	0020e0b3          	or	ra,ra,sp
     b40:	ff1007b7          	lui	a5,0xff100
     b44:	f0f78793          	addi	a5,a5,-241 # ff0fff0f <io+0x7f0fff0f>
     b48:	00600713          	li	a4,6
     b4c:	40f09a63          	bne	ra,a5,f60 <fail>

00000b50 <test_7>:
     b50:	ff0100b7          	lui	ra,0xff010
     b54:	f0008093          	addi	ra,ra,-256 # ff00ff00 <io+0x7f00ff00>
     b58:	0f0f1137          	lui	sp,0xf0f1
     b5c:	f0f10113          	addi	sp,sp,-241 # f0f0f0f <tdat10+0xf0e8a12>
     b60:	0020e133          	or	sp,ra,sp
     b64:	ff1007b7          	lui	a5,0xff100
     b68:	f0f78793          	addi	a5,a5,-241 # ff0fff0f <io+0x7f0fff0f>
     b6c:	00700713          	li	a4,7
     b70:	3ef11863          	bne	sp,a5,f60 <fail>

00000b74 <test_8>:
     b74:	ff0100b7          	lui	ra,0xff010
     b78:	f0008093          	addi	ra,ra,-256 # ff00ff00 <io+0x7f00ff00>
     b7c:	0010e0b3          	or	ra,ra,ra
     b80:	ff0107b7          	lui	a5,0xff010
     b84:	f0078793          	addi	a5,a5,-256 # ff00ff00 <io+0x7f00ff00>
     b88:	00800713          	li	a4,8
     b8c:	3cf09a63          	bne	ra,a5,f60 <fail>

00000b90 <test_9>:
     b90:	00000213          	li	tp,0
     b94:	ff0100b7          	lui	ra,0xff010
     b98:	f0008093          	addi	ra,ra,-256 # ff00ff00 <io+0x7f00ff00>
     b9c:	0f0f1137          	lui	sp,0xf0f1
     ba0:	f0f10113          	addi	sp,sp,-241 # f0f0f0f <tdat10+0xf0e8a12>
     ba4:	0020e1b3          	or	gp,ra,sp
     ba8:	00018313          	mv	t1,gp
     bac:	00120213          	addi	tp,tp,1 # 1 <boot+0x1>
     bb0:	00200293          	li	t0,2
     bb4:	fe5210e3          	bne	tp,t0,b94 <test_9+0x4>
     bb8:	ff1007b7          	lui	a5,0xff100
     bbc:	f0f78793          	addi	a5,a5,-241 # ff0fff0f <io+0x7f0fff0f>
     bc0:	00900713          	li	a4,9
     bc4:	38f31e63          	bne	t1,a5,f60 <fail>

00000bc8 <test_10>:
     bc8:	00000213          	li	tp,0
     bcc:	0ff010b7          	lui	ra,0xff01
     bd0:	ff008093          	addi	ra,ra,-16 # ff00ff0 <tdat10+0xfef8af3>
     bd4:	f0f0f137          	lui	sp,0xf0f0f
     bd8:	0f010113          	addi	sp,sp,240 # f0f0f0f0 <io+0x70f0f0f0>
     bdc:	0020e1b3          	or	gp,ra,sp
     be0:	00000013          	nop
     be4:	00018313          	mv	t1,gp
     be8:	00120213          	addi	tp,tp,1 # 1 <boot+0x1>
     bec:	00200293          	li	t0,2
     bf0:	fc521ee3          	bne	tp,t0,bcc <test_10+0x4>
     bf4:	fff107b7          	lui	a5,0xfff10
     bf8:	ff078793          	addi	a5,a5,-16 # fff0fff0 <io+0x7ff0fff0>
     bfc:	00a00713          	li	a4,10
     c00:	36f31063          	bne	t1,a5,f60 <fail>

00000c04 <test_11>:
     c04:	00000213          	li	tp,0
     c08:	00ff00b7          	lui	ra,0xff0
     c0c:	0ff08093          	addi	ra,ra,255 # ff00ff <tdat10+0xfe7c02>
     c10:	0f0f1137          	lui	sp,0xf0f1
     c14:	f0f10113          	addi	sp,sp,-241 # f0f0f0f <tdat10+0xf0e8a12>
     c18:	0020e1b3          	or	gp,ra,sp
     c1c:	00000013          	nop
     c20:	00000013          	nop
     c24:	00018313          	mv	t1,gp
     c28:	00120213          	addi	tp,tp,1 # 1 <boot+0x1>
     c2c:	00200293          	li	t0,2
     c30:	fc521ce3          	bne	tp,t0,c08 <test_11+0x4>
     c34:	0fff17b7          	lui	a5,0xfff1
     c38:	fff78793          	addi	a5,a5,-1 # fff0fff <tdat10+0xffe8b02>
     c3c:	00b00713          	li	a4,11
     c40:	32f31063          	bne	t1,a5,f60 <fail>

00000c44 <test_12>:
     c44:	00000213          	li	tp,0
     c48:	ff0100b7          	lui	ra,0xff010
     c4c:	f0008093          	addi	ra,ra,-256 # ff00ff00 <io+0x7f00ff00>
     c50:	0f0f1137          	lui	sp,0xf0f1
     c54:	f0f10113          	addi	sp,sp,-241 # f0f0f0f <tdat10+0xf0e8a12>
     c58:	0020e1b3          	or	gp,ra,sp
     c5c:	00120213          	addi	tp,tp,1 # 1 <boot+0x1>
     c60:	00200293          	li	t0,2
     c64:	fe5212e3          	bne	tp,t0,c48 <test_12+0x4>
     c68:	ff1007b7          	lui	a5,0xff100
     c6c:	f0f78793          	addi	a5,a5,-241 # ff0fff0f <io+0x7f0fff0f>
     c70:	00c00713          	li	a4,12
     c74:	2ef19663          	bne	gp,a5,f60 <fail>

00000c78 <test_13>:
     c78:	00000213          	li	tp,0
     c7c:	0ff010b7          	lui	ra,0xff01
     c80:	ff008093          	addi	ra,ra,-16 # ff00ff0 <tdat10+0xfef8af3>
     c84:	f0f0f137          	lui	sp,0xf0f0f
     c88:	0f010113          	addi	sp,sp,240 # f0f0f0f0 <io+0x70f0f0f0>
     c8c:	00000013          	nop
     c90:	0020e1b3          	or	gp,ra,sp
     c94:	00120213          	addi	tp,tp,1 # 1 <boot+0x1>
     c98:	00200293          	li	t0,2
     c9c:	fe5210e3          	bne	tp,t0,c7c <test_13+0x4>
     ca0:	fff107b7          	lui	a5,0xfff10
     ca4:	ff078793          	addi	a5,a5,-16 # fff0fff0 <io+0x7ff0fff0>
     ca8:	00d00713          	li	a4,13
     cac:	2af19a63          	bne	gp,a5,f60 <fail>

00000cb0 <test_14>:
     cb0:	00000213          	li	tp,0
     cb4:	00ff00b7          	lui	ra,0xff0
     cb8:	0ff08093          	addi	ra,ra,255 # ff00ff <tdat10+0xfe7c02>
     cbc:	0f0f1137          	lui	sp,0xf0f1
     cc0:	f0f10113          	addi	sp,sp,-241 # f0f0f0f <tdat10+0xf0e8a12>
     cc4:	00000013          	nop
     cc8:	00000013          	nop
     ccc:	0020e1b3          	or	gp,ra,sp
     cd0:	00120213          	addi	tp,tp,1 # 1 <boot+0x1>
     cd4:	00200293          	li	t0,2
     cd8:	fc521ee3          	bne	tp,t0,cb4 <test_14+0x4>
     cdc:	0fff17b7          	lui	a5,0xfff1
     ce0:	fff78793          	addi	a5,a5,-1 # fff0fff <tdat10+0xffe8b02>
     ce4:	00e00713          	li	a4,14
     ce8:	26f19c63          	bne	gp,a5,f60 <fail>

00000cec <test_15>:
     cec:	00000213          	li	tp,0
     cf0:	ff0100b7          	lui	ra,0xff010
     cf4:	f0008093          	addi	ra,ra,-256 # ff00ff00 <io+0x7f00ff00>
     cf8:	00000013          	nop
     cfc:	0f0f1137          	lui	sp,0xf0f1
     d00:	f0f10113          	addi	sp,sp,-241 # f0f0f0f <tdat10+0xf0e8a12>
     d04:	0020e1b3          	or	gp,ra,sp
     d08:	00120213          	addi	tp,tp,1 # 1 <boot+0x1>
     d0c:	00200293          	li	t0,2
     d10:	fe5210e3          	bne	tp,t0,cf0 <test_15+0x4>
     d14:	ff1007b7          	lui	a5,0xff100
     d18:	f0f78793          	addi	a5,a5,-241 # ff0fff0f <io+0x7f0fff0f>
     d1c:	00f00713          	li	a4,15
     d20:	24f19063          	bne	gp,a5,f60 <fail>

00000d24 <test_16>:
     d24:	00000213          	li	tp,0
     d28:	0ff010b7          	lui	ra,0xff01
     d2c:	ff008093          	addi	ra,ra,-16 # ff00ff0 <tdat10+0xfef8af3>
     d30:	00000013          	nop
     d34:	f0f0f137          	lui	sp,0xf0f0f
     d38:	0f010113          	addi	sp,sp,240 # f0f0f0f0 <io+0x70f0f0f0>
     d3c:	00000013          	nop
     d40:	0020e1b3          	or	gp,ra,sp
     d44:	00120213          	addi	tp,tp,1 # 1 <boot+0x1>
     d48:	00200293          	li	t0,2
     d4c:	fc521ee3          	bne	tp,t0,d28 <test_16+0x4>
     d50:	fff107b7          	lui	a5,0xfff10
     d54:	ff078793          	addi	a5,a5,-16 # fff0fff0 <io+0x7ff0fff0>
     d58:	01000713          	li	a4,16
     d5c:	20f19263          	bne	gp,a5,f60 <fail>

00000d60 <test_17>:
     d60:	00000213          	li	tp,0
     d64:	00ff00b7          	lui	ra,0xff0
     d68:	0ff08093          	addi	ra,ra,255 # ff00ff <tdat10+0xfe7c02>
     d6c:	00000013          	nop
     d70:	00000013          	nop
     d74:	0f0f1137          	lui	sp,0xf0f1
     d78:	f0f10113          	addi	sp,sp,-241 # f0f0f0f <tdat10+0xf0e8a12>
     d7c:	0020e1b3          	or	gp,ra,sp
     d80:	00120213          	addi	tp,tp,1 # 1 <boot+0x1>
     d84:	00200293          	li	t0,2
     d88:	fc521ee3          	bne	tp,t0,d64 <test_17+0x4>
     d8c:	0fff17b7          	lui	a5,0xfff1
     d90:	fff78793          	addi	a5,a5,-1 # fff0fff <tdat10+0xffe8b02>
     d94:	01100713          	li	a4,17
     d98:	1cf19463          	bne	gp,a5,f60 <fail>

00000d9c <test_18>:
     d9c:	00000213          	li	tp,0
     da0:	0f0f1137          	lui	sp,0xf0f1
     da4:	f0f10113          	addi	sp,sp,-241 # f0f0f0f <tdat10+0xf0e8a12>
     da8:	ff0100b7          	lui	ra,0xff010
     dac:	f0008093          	addi	ra,ra,-256 # ff00ff00 <io+0x7f00ff00>
     db0:	0020e1b3          	or	gp,ra,sp
     db4:	00120213          	addi	tp,tp,1 # 1 <boot+0x1>
     db8:	00200293          	li	t0,2
     dbc:	fe5212e3          	bne	tp,t0,da0 <test_18+0x4>
     dc0:	ff1007b7          	lui	a5,0xff100
     dc4:	f0f78793          	addi	a5,a5,-241 # ff0fff0f <io+0x7f0fff0f>
     dc8:	01200713          	li	a4,18
     dcc:	18f19a63          	bne	gp,a5,f60 <fail>

00000dd0 <test_19>:
     dd0:	00000213          	li	tp,0
     dd4:	f0f0f137          	lui	sp,0xf0f0f
     dd8:	0f010113          	addi	sp,sp,240 # f0f0f0f0 <io+0x70f0f0f0>
     ddc:	0ff010b7          	lui	ra,0xff01
     de0:	ff008093          	addi	ra,ra,-16 # ff00ff0 <tdat10+0xfef8af3>
     de4:	00000013          	nop
     de8:	0020e1b3          	or	gp,ra,sp
     dec:	00120213          	addi	tp,tp,1 # 1 <boot+0x1>
     df0:	00200293          	li	t0,2
     df4:	fe5210e3          	bne	tp,t0,dd4 <test_19+0x4>
     df8:	fff107b7          	lui	a5,0xfff10
     dfc:	ff078793          	addi	a5,a5,-16 # fff0fff0 <io+0x7ff0fff0>
     e00:	01300713          	li	a4,19
     e04:	14f19e63          	bne	gp,a5,f60 <fail>

00000e08 <test_20>:
     e08:	00000213          	li	tp,0
     e0c:	0f0f1137          	lui	sp,0xf0f1
     e10:	f0f10113          	addi	sp,sp,-241 # f0f0f0f <tdat10+0xf0e8a12>
     e14:	00ff00b7          	lui	ra,0xff0
     e18:	0ff08093          	addi	ra,ra,255 # ff00ff <tdat10+0xfe7c02>
     e1c:	00000013          	nop
     e20:	00000013          	nop
     e24:	0020e1b3          	or	gp,ra,sp
     e28:	00120213          	addi	tp,tp,1 # 1 <boot+0x1>
     e2c:	00200293          	li	t0,2
     e30:	fc521ee3          	bne	tp,t0,e0c <test_20+0x4>
     e34:	0fff17b7          	lui	a5,0xfff1
     e38:	fff78793          	addi	a5,a5,-1 # fff0fff <tdat10+0xffe8b02>
     e3c:	01400713          	li	a4,20
     e40:	12f19063          	bne	gp,a5,f60 <fail>

00000e44 <test_21>:
     e44:	00000213          	li	tp,0
     e48:	0f0f1137          	lui	sp,0xf0f1
     e4c:	f0f10113          	addi	sp,sp,-241 # f0f0f0f <tdat10+0xf0e8a12>
     e50:	00000013          	nop
     e54:	ff0100b7          	lui	ra,0xff010
     e58:	f0008093          	addi	ra,ra,-256 # ff00ff00 <io+0x7f00ff00>
     e5c:	0020e1b3          	or	gp,ra,sp
     e60:	00120213          	addi	tp,tp,1 # 1 <boot+0x1>
     e64:	00200293          	li	t0,2
     e68:	fe5210e3          	bne	tp,t0,e48 <test_21+0x4>
     e6c:	ff1007b7          	lui	a5,0xff100
     e70:	f0f78793          	addi	a5,a5,-241 # ff0fff0f <io+0x7f0fff0f>
     e74:	01500713          	li	a4,21
     e78:	0ef19463          	bne	gp,a5,f60 <fail>

00000e7c <test_22>:
     e7c:	00000213          	li	tp,0
     e80:	f0f0f137          	lui	sp,0xf0f0f
     e84:	0f010113          	addi	sp,sp,240 # f0f0f0f0 <io+0x70f0f0f0>
     e88:	00000013          	nop
     e8c:	0ff010b7          	lui	ra,0xff01
     e90:	ff008093          	addi	ra,ra,-16 # ff00ff0 <tdat10+0xfef8af3>
     e94:	00000013          	nop
     e98:	0020e1b3          	or	gp,ra,sp
     e9c:	00120213          	addi	tp,tp,1 # 1 <boot+0x1>
     ea0:	00200293          	li	t0,2
     ea4:	fc521ee3          	bne	tp,t0,e80 <test_22+0x4>
     ea8:	fff107b7          	lui	a5,0xfff10
     eac:	ff078793          	addi	a5,a5,-16 # fff0fff0 <io+0x7ff0fff0>
     eb0:	01600713          	li	a4,22
     eb4:	0af19663          	bne	gp,a5,f60 <fail>

00000eb8 <test_23>:
     eb8:	00000213          	li	tp,0
     ebc:	0f0f1137          	lui	sp,0xf0f1
     ec0:	f0f10113          	addi	sp,sp,-241 # f0f0f0f <tdat10+0xf0e8a12>
     ec4:	00000013          	nop
     ec8:	00000013          	nop
     ecc:	00ff00b7          	lui	ra,0xff0
     ed0:	0ff08093          	addi	ra,ra,255 # ff00ff <tdat10+0xfe7c02>
     ed4:	0020e1b3          	or	gp,ra,sp
     ed8:	00120213          	addi	tp,tp,1 # 1 <boot+0x1>
     edc:	00200293          	li	t0,2
     ee0:	fc521ee3          	bne	tp,t0,ebc <test_23+0x4>
     ee4:	0fff17b7          	lui	a5,0xfff1
     ee8:	fff78793          	addi	a5,a5,-1 # fff0fff <tdat10+0xffe8b02>
     eec:	01700713          	li	a4,23
     ef0:	06f19863          	bne	gp,a5,f60 <fail>

00000ef4 <test_24>:
     ef4:	ff0100b7          	lui	ra,0xff010
     ef8:	f0008093          	addi	ra,ra,-256 # ff00ff00 <io+0x7f00ff00>
     efc:	00106133          	or	sp,zero,ra
     f00:	ff0107b7          	lui	a5,0xff010
     f04:	f0078793          	addi	a5,a5,-256 # ff00ff00 <io+0x7f00ff00>
     f08:	01800713          	li	a4,24
     f0c:	04f11a63          	bne	sp,a5,f60 <fail>

00000f10 <test_25>:
     f10:	00ff00b7          	lui	ra,0xff0
     f14:	0ff08093          	addi	ra,ra,255 # ff00ff <tdat10+0xfe7c02>
     f18:	0000e133          	or	sp,ra,zero
     f1c:	00ff07b7          	lui	a5,0xff0
     f20:	0ff78793          	addi	a5,a5,255 # ff00ff <tdat10+0xfe7c02>
     f24:	01900713          	li	a4,25
     f28:	02f11c63          	bne	sp,a5,f60 <fail>

00000f2c <test_26>:
     f2c:	000060b3          	or	ra,zero,zero
     f30:	00000793          	li	a5,0
     f34:	01a00713          	li	a4,26
     f38:	02f09463          	bne	ra,a5,f60 <fail>

00000f3c <test_27>:
     f3c:	111110b7          	lui	ra,0x11111
     f40:	11108093          	addi	ra,ra,273 # 11111111 <tdat10+0x11108c14>
     f44:	22222137          	lui	sp,0x22222
     f48:	22210113          	addi	sp,sp,546 # 22222222 <tdat10+0x22219d25>
     f4c:	0020e033          	or	zero,ra,sp
     f50:	00000793          	li	a5,0
     f54:	01b00713          	li	a4,27
     f58:	00f01463          	bne	zero,a5,f60 <fail>
     f5c:	00e01663          	bne	zero,a4,f68 <pass>

00000f60 <fail>:
     f60:	979ff0ef          	jal	ra,8d8 <failure>
     f64:	00100073          	ebreak

00000f68 <pass>:
     f68:	00009137          	lui	sp,0x9
     f6c:	979ff0ef          	jal	ra,8e4 <OK>
     f70:	ad9ff06f          	j	a48 <or_ret>

00000f74 <xor>:
     f74:	00001537          	lui	a0,0x1
     f78:	f9450513          	addi	a0,a0,-108 # f94 <.test_name>

00000f7c <loop>:
     f7c:	ae0ff0ef          	jal	ra,25c <putstr>

00000f80 <.prname_next>:
     f80:	00050583          	lb	a1,0(a0)
     f84:	00058a63          	beqz	a1,f98 <.prname_done>
     f88:	00b62023          	sw	a1,0(a2)
     f8c:	00150513          	addi	a0,a0,1
     f90:	ff1ff06f          	j	f80 <.prname_next>

00000f94 <.test_name>:
     f94:	6f78                	flw	fa4,92(a4)
     f96:	0072                	c.slli	zero,0x1c

00000f98 <.prname_done>:
     f98:	02e00593          	li	a1,46
     f9c:	00b62023          	sw	a1,0(a2)
     fa0:	00b62023          	sw	a1,0(a2)

00000fa4 <test_2>:
     fa4:	ff0100b7          	lui	ra,0xff010
     fa8:	f0008093          	addi	ra,ra,-256 # ff00ff00 <io+0x7f00ff00>
     fac:	0f0f1137          	lui	sp,0xf0f1
     fb0:	f0f10113          	addi	sp,sp,-241 # f0f0f0f <tdat10+0xf0e8a12>
     fb4:	0020c1b3          	xor	gp,ra,sp
     fb8:	f00ff7b7          	lui	a5,0xf00ff
     fbc:	00f78793          	addi	a5,a5,15 # f00ff00f <io+0x700ff00f>
     fc0:	00200713          	li	a4,2
     fc4:	4af19063          	bne	gp,a5,1464 <fail>

00000fc8 <test_3>:
     fc8:	0ff010b7          	lui	ra,0xff01
     fcc:	ff008093          	addi	ra,ra,-16 # ff00ff0 <tdat10+0xfef8af3>
     fd0:	f0f0f137          	lui	sp,0xf0f0f
     fd4:	0f010113          	addi	sp,sp,240 # f0f0f0f0 <io+0x70f0f0f0>
     fd8:	0020c1b3          	xor	gp,ra,sp
     fdc:	ff0107b7          	lui	a5,0xff010
     fe0:	f0078793          	addi	a5,a5,-256 # ff00ff00 <io+0x7f00ff00>
     fe4:	00300713          	li	a4,3
     fe8:	46f19e63          	bne	gp,a5,1464 <fail>

00000fec <test_4>:
     fec:	00ff00b7          	lui	ra,0xff0
     ff0:	0ff08093          	addi	ra,ra,255 # ff00ff <tdat10+0xfe7c02>
     ff4:	0f0f1137          	lui	sp,0xf0f1
     ff8:	f0f10113          	addi	sp,sp,-241 # f0f0f0f <tdat10+0xf0e8a12>
     ffc:	0020c1b3          	xor	gp,ra,sp
    1000:	0ff017b7          	lui	a5,0xff01
    1004:	ff078793          	addi	a5,a5,-16 # ff00ff0 <tdat10+0xfef8af3>
    1008:	00400713          	li	a4,4
    100c:	44f19c63          	bne	gp,a5,1464 <fail>

00001010 <test_5>:
    1010:	f00ff0b7          	lui	ra,0xf00ff
    1014:	00f08093          	addi	ra,ra,15 # f00ff00f <io+0x700ff00f>
    1018:	f0f0f137          	lui	sp,0xf0f0f
    101c:	0f010113          	addi	sp,sp,240 # f0f0f0f0 <io+0x70f0f0f0>
    1020:	0020c1b3          	xor	gp,ra,sp
    1024:	00ff07b7          	lui	a5,0xff0
    1028:	0ff78793          	addi	a5,a5,255 # ff00ff <tdat10+0xfe7c02>
    102c:	00500713          	li	a4,5
    1030:	42f19a63          	bne	gp,a5,1464 <fail>

00001034 <test_6>:
    1034:	ff0100b7          	lui	ra,0xff010
    1038:	f0008093          	addi	ra,ra,-256 # ff00ff00 <io+0x7f00ff00>
    103c:	0f0f1137          	lui	sp,0xf0f1
    1040:	f0f10113          	addi	sp,sp,-241 # f0f0f0f <tdat10+0xf0e8a12>
    1044:	0020c0b3          	xor	ra,ra,sp
    1048:	f00ff7b7          	lui	a5,0xf00ff
    104c:	00f78793          	addi	a5,a5,15 # f00ff00f <io+0x700ff00f>
    1050:	00600713          	li	a4,6
    1054:	40f09863          	bne	ra,a5,1464 <fail>

00001058 <test_7>:
    1058:	ff0100b7          	lui	ra,0xff010
    105c:	f0008093          	addi	ra,ra,-256 # ff00ff00 <io+0x7f00ff00>
    1060:	0f0f1137          	lui	sp,0xf0f1
    1064:	f0f10113          	addi	sp,sp,-241 # f0f0f0f <tdat10+0xf0e8a12>
    1068:	0020c133          	xor	sp,ra,sp
    106c:	f00ff7b7          	lui	a5,0xf00ff
    1070:	00f78793          	addi	a5,a5,15 # f00ff00f <io+0x700ff00f>
    1074:	00700713          	li	a4,7
    1078:	3ef11663          	bne	sp,a5,1464 <fail>

0000107c <test_8>:
    107c:	ff0100b7          	lui	ra,0xff010
    1080:	f0008093          	addi	ra,ra,-256 # ff00ff00 <io+0x7f00ff00>
    1084:	0010c0b3          	xor	ra,ra,ra
    1088:	00000793          	li	a5,0
    108c:	00800713          	li	a4,8
    1090:	3cf09a63          	bne	ra,a5,1464 <fail>

00001094 <test_9>:
    1094:	00000213          	li	tp,0
    1098:	ff0100b7          	lui	ra,0xff010
    109c:	f0008093          	addi	ra,ra,-256 # ff00ff00 <io+0x7f00ff00>
    10a0:	0f0f1137          	lui	sp,0xf0f1
    10a4:	f0f10113          	addi	sp,sp,-241 # f0f0f0f <tdat10+0xf0e8a12>
    10a8:	0020c1b3          	xor	gp,ra,sp
    10ac:	00018313          	mv	t1,gp
    10b0:	00120213          	addi	tp,tp,1 # 1 <boot+0x1>
    10b4:	00200293          	li	t0,2
    10b8:	fe5210e3          	bne	tp,t0,1098 <test_9+0x4>
    10bc:	f00ff7b7          	lui	a5,0xf00ff
    10c0:	00f78793          	addi	a5,a5,15 # f00ff00f <io+0x700ff00f>
    10c4:	00900713          	li	a4,9
    10c8:	38f31e63          	bne	t1,a5,1464 <fail>

000010cc <test_10>:
    10cc:	00000213          	li	tp,0
    10d0:	0ff010b7          	lui	ra,0xff01
    10d4:	ff008093          	addi	ra,ra,-16 # ff00ff0 <tdat10+0xfef8af3>
    10d8:	f0f0f137          	lui	sp,0xf0f0f
    10dc:	0f010113          	addi	sp,sp,240 # f0f0f0f0 <io+0x70f0f0f0>
    10e0:	0020c1b3          	xor	gp,ra,sp
    10e4:	00000013          	nop
    10e8:	00018313          	mv	t1,gp
    10ec:	00120213          	addi	tp,tp,1 # 1 <boot+0x1>
    10f0:	00200293          	li	t0,2
    10f4:	fc521ee3          	bne	tp,t0,10d0 <test_10+0x4>
    10f8:	ff0107b7          	lui	a5,0xff010
    10fc:	f0078793          	addi	a5,a5,-256 # ff00ff00 <io+0x7f00ff00>
    1100:	00a00713          	li	a4,10
    1104:	36f31063          	bne	t1,a5,1464 <fail>

00001108 <test_11>:
    1108:	00000213          	li	tp,0
    110c:	00ff00b7          	lui	ra,0xff0
    1110:	0ff08093          	addi	ra,ra,255 # ff00ff <tdat10+0xfe7c02>
    1114:	0f0f1137          	lui	sp,0xf0f1
    1118:	f0f10113          	addi	sp,sp,-241 # f0f0f0f <tdat10+0xf0e8a12>
    111c:	0020c1b3          	xor	gp,ra,sp
    1120:	00000013          	nop
    1124:	00000013          	nop
    1128:	00018313          	mv	t1,gp
    112c:	00120213          	addi	tp,tp,1 # 1 <boot+0x1>
    1130:	00200293          	li	t0,2
    1134:	fc521ce3          	bne	tp,t0,110c <test_11+0x4>
    1138:	0ff017b7          	lui	a5,0xff01
    113c:	ff078793          	addi	a5,a5,-16 # ff00ff0 <tdat10+0xfef8af3>
    1140:	00b00713          	li	a4,11
    1144:	32f31063          	bne	t1,a5,1464 <fail>

00001148 <test_12>:
    1148:	00000213          	li	tp,0
    114c:	ff0100b7          	lui	ra,0xff010
    1150:	f0008093          	addi	ra,ra,-256 # ff00ff00 <io+0x7f00ff00>
    1154:	0f0f1137          	lui	sp,0xf0f1
    1158:	f0f10113          	addi	sp,sp,-241 # f0f0f0f <tdat10+0xf0e8a12>
    115c:	0020c1b3          	xor	gp,ra,sp
    1160:	00120213          	addi	tp,tp,1 # 1 <boot+0x1>
    1164:	00200293          	li	t0,2
    1168:	fe5212e3          	bne	tp,t0,114c <test_12+0x4>
    116c:	f00ff7b7          	lui	a5,0xf00ff
    1170:	00f78793          	addi	a5,a5,15 # f00ff00f <io+0x700ff00f>
    1174:	00c00713          	li	a4,12
    1178:	2ef19663          	bne	gp,a5,1464 <fail>

0000117c <test_13>:
    117c:	00000213          	li	tp,0
    1180:	0ff010b7          	lui	ra,0xff01
    1184:	ff008093          	addi	ra,ra,-16 # ff00ff0 <tdat10+0xfef8af3>
    1188:	f0f0f137          	lui	sp,0xf0f0f
    118c:	0f010113          	addi	sp,sp,240 # f0f0f0f0 <io+0x70f0f0f0>
    1190:	00000013          	nop
    1194:	0020c1b3          	xor	gp,ra,sp
    1198:	00120213          	addi	tp,tp,1 # 1 <boot+0x1>
    119c:	00200293          	li	t0,2
    11a0:	fe5210e3          	bne	tp,t0,1180 <test_13+0x4>
    11a4:	ff0107b7          	lui	a5,0xff010
    11a8:	f0078793          	addi	a5,a5,-256 # ff00ff00 <io+0x7f00ff00>
    11ac:	00d00713          	li	a4,13
    11b0:	2af19a63          	bne	gp,a5,1464 <fail>

000011b4 <test_14>:
    11b4:	00000213          	li	tp,0
    11b8:	00ff00b7          	lui	ra,0xff0
    11bc:	0ff08093          	addi	ra,ra,255 # ff00ff <tdat10+0xfe7c02>
    11c0:	0f0f1137          	lui	sp,0xf0f1
    11c4:	f0f10113          	addi	sp,sp,-241 # f0f0f0f <tdat10+0xf0e8a12>
    11c8:	00000013          	nop
    11cc:	00000013          	nop
    11d0:	0020c1b3          	xor	gp,ra,sp
    11d4:	00120213          	addi	tp,tp,1 # 1 <boot+0x1>
    11d8:	00200293          	li	t0,2
    11dc:	fc521ee3          	bne	tp,t0,11b8 <test_14+0x4>
    11e0:	0ff017b7          	lui	a5,0xff01
    11e4:	ff078793          	addi	a5,a5,-16 # ff00ff0 <tdat10+0xfef8af3>
    11e8:	00e00713          	li	a4,14
    11ec:	26f19c63          	bne	gp,a5,1464 <fail>

000011f0 <test_15>:
    11f0:	00000213          	li	tp,0
    11f4:	ff0100b7          	lui	ra,0xff010
    11f8:	f0008093          	addi	ra,ra,-256 # ff00ff00 <io+0x7f00ff00>
    11fc:	00000013          	nop
    1200:	0f0f1137          	lui	sp,0xf0f1
    1204:	f0f10113          	addi	sp,sp,-241 # f0f0f0f <tdat10+0xf0e8a12>
    1208:	0020c1b3          	xor	gp,ra,sp
    120c:	00120213          	addi	tp,tp,1 # 1 <boot+0x1>
    1210:	00200293          	li	t0,2
    1214:	fe5210e3          	bne	tp,t0,11f4 <test_15+0x4>
    1218:	f00ff7b7          	lui	a5,0xf00ff
    121c:	00f78793          	addi	a5,a5,15 # f00ff00f <io+0x700ff00f>
    1220:	00f00713          	li	a4,15
    1224:	24f19063          	bne	gp,a5,1464 <fail>

00001228 <test_16>:
    1228:	00000213          	li	tp,0
    122c:	0ff010b7          	lui	ra,0xff01
    1230:	ff008093          	addi	ra,ra,-16 # ff00ff0 <tdat10+0xfef8af3>
    1234:	00000013          	nop
    1238:	f0f0f137          	lui	sp,0xf0f0f
    123c:	0f010113          	addi	sp,sp,240 # f0f0f0f0 <io+0x70f0f0f0>
    1240:	00000013          	nop
    1244:	0020c1b3          	xor	gp,ra,sp
    1248:	00120213          	addi	tp,tp,1 # 1 <boot+0x1>
    124c:	00200293          	li	t0,2
    1250:	fc521ee3          	bne	tp,t0,122c <test_16+0x4>
    1254:	ff0107b7          	lui	a5,0xff010
    1258:	f0078793          	addi	a5,a5,-256 # ff00ff00 <io+0x7f00ff00>
    125c:	01000713          	li	a4,16
    1260:	20f19263          	bne	gp,a5,1464 <fail>

00001264 <test_17>:
    1264:	00000213          	li	tp,0
    1268:	00ff00b7          	lui	ra,0xff0
    126c:	0ff08093          	addi	ra,ra,255 # ff00ff <tdat10+0xfe7c02>
    1270:	00000013          	nop
    1274:	00000013          	nop
    1278:	0f0f1137          	lui	sp,0xf0f1
    127c:	f0f10113          	addi	sp,sp,-241 # f0f0f0f <tdat10+0xf0e8a12>
    1280:	0020c1b3          	xor	gp,ra,sp
    1284:	00120213          	addi	tp,tp,1 # 1 <boot+0x1>
    1288:	00200293          	li	t0,2
    128c:	fc521ee3          	bne	tp,t0,1268 <test_17+0x4>
    1290:	0ff017b7          	lui	a5,0xff01
    1294:	ff078793          	addi	a5,a5,-16 # ff00ff0 <tdat10+0xfef8af3>
    1298:	01100713          	li	a4,17
    129c:	1cf19463          	bne	gp,a5,1464 <fail>

000012a0 <test_18>:
    12a0:	00000213          	li	tp,0
    12a4:	0f0f1137          	lui	sp,0xf0f1
    12a8:	f0f10113          	addi	sp,sp,-241 # f0f0f0f <tdat10+0xf0e8a12>
    12ac:	ff0100b7          	lui	ra,0xff010
    12b0:	f0008093          	addi	ra,ra,-256 # ff00ff00 <io+0x7f00ff00>
    12b4:	0020c1b3          	xor	gp,ra,sp
    12b8:	00120213          	addi	tp,tp,1 # 1 <boot+0x1>
    12bc:	00200293          	li	t0,2
    12c0:	fe5212e3          	bne	tp,t0,12a4 <test_18+0x4>
    12c4:	f00ff7b7          	lui	a5,0xf00ff
    12c8:	00f78793          	addi	a5,a5,15 # f00ff00f <io+0x700ff00f>
    12cc:	01200713          	li	a4,18
    12d0:	18f19a63          	bne	gp,a5,1464 <fail>

000012d4 <test_19>:
    12d4:	00000213          	li	tp,0
    12d8:	f0f0f137          	lui	sp,0xf0f0f
    12dc:	0f010113          	addi	sp,sp,240 # f0f0f0f0 <io+0x70f0f0f0>
    12e0:	0ff010b7          	lui	ra,0xff01
    12e4:	ff008093          	addi	ra,ra,-16 # ff00ff0 <tdat10+0xfef8af3>
    12e8:	00000013          	nop
    12ec:	0020c1b3          	xor	gp,ra,sp
    12f0:	00120213          	addi	tp,tp,1 # 1 <boot+0x1>
    12f4:	00200293          	li	t0,2
    12f8:	fe5210e3          	bne	tp,t0,12d8 <test_19+0x4>
    12fc:	ff0107b7          	lui	a5,0xff010
    1300:	f0078793          	addi	a5,a5,-256 # ff00ff00 <io+0x7f00ff00>
    1304:	01300713          	li	a4,19
    1308:	14f19e63          	bne	gp,a5,1464 <fail>

0000130c <test_20>:
    130c:	00000213          	li	tp,0
    1310:	0f0f1137          	lui	sp,0xf0f1
    1314:	f0f10113          	addi	sp,sp,-241 # f0f0f0f <tdat10+0xf0e8a12>
    1318:	00ff00b7          	lui	ra,0xff0
    131c:	0ff08093          	addi	ra,ra,255 # ff00ff <tdat10+0xfe7c02>
    1320:	00000013          	nop
    1324:	00000013          	nop
    1328:	0020c1b3          	xor	gp,ra,sp
    132c:	00120213          	addi	tp,tp,1 # 1 <boot+0x1>
    1330:	00200293          	li	t0,2
    1334:	fc521ee3          	bne	tp,t0,1310 <test_20+0x4>
    1338:	0ff017b7          	lui	a5,0xff01
    133c:	ff078793          	addi	a5,a5,-16 # ff00ff0 <tdat10+0xfef8af3>
    1340:	01400713          	li	a4,20
    1344:	12f19063          	bne	gp,a5,1464 <fail>

00001348 <test_21>:
    1348:	00000213          	li	tp,0
    134c:	0f0f1137          	lui	sp,0xf0f1
    1350:	f0f10113          	addi	sp,sp,-241 # f0f0f0f <tdat10+0xf0e8a12>
    1354:	00000013          	nop
    1358:	ff0100b7          	lui	ra,0xff010
    135c:	f0008093          	addi	ra,ra,-256 # ff00ff00 <io+0x7f00ff00>
    1360:	0020c1b3          	xor	gp,ra,sp
    1364:	00120213          	addi	tp,tp,1 # 1 <boot+0x1>
    1368:	00200293          	li	t0,2
    136c:	fe5210e3          	bne	tp,t0,134c <test_21+0x4>
    1370:	f00ff7b7          	lui	a5,0xf00ff
    1374:	00f78793          	addi	a5,a5,15 # f00ff00f <io+0x700ff00f>
    1378:	01500713          	li	a4,21
    137c:	0ef19463          	bne	gp,a5,1464 <fail>

00001380 <test_22>:
    1380:	00000213          	li	tp,0
    1384:	f0f0f137          	lui	sp,0xf0f0f
    1388:	0f010113          	addi	sp,sp,240 # f0f0f0f0 <io+0x70f0f0f0>
    138c:	00000013          	nop
    1390:	0ff010b7          	lui	ra,0xff01
    1394:	ff008093          	addi	ra,ra,-16 # ff00ff0 <tdat10+0xfef8af3>
    1398:	00000013          	nop
    139c:	0020c1b3          	xor	gp,ra,sp
    13a0:	00120213          	addi	tp,tp,1 # 1 <boot+0x1>
    13a4:	00200293          	li	t0,2
    13a8:	fc521ee3          	bne	tp,t0,1384 <test_22+0x4>
    13ac:	ff0107b7          	lui	a5,0xff010
    13b0:	f0078793          	addi	a5,a5,-256 # ff00ff00 <io+0x7f00ff00>
    13b4:	01600713          	li	a4,22
    13b8:	0af19663          	bne	gp,a5,1464 <fail>

000013bc <test_23>:
    13bc:	00000213          	li	tp,0
    13c0:	0f0f1137          	lui	sp,0xf0f1
    13c4:	f0f10113          	addi	sp,sp,-241 # f0f0f0f <tdat10+0xf0e8a12>
    13c8:	00000013          	nop
    13cc:	00000013          	nop
    13d0:	00ff00b7          	lui	ra,0xff0
    13d4:	0ff08093          	addi	ra,ra,255 # ff00ff <tdat10+0xfe7c02>
    13d8:	0020c1b3          	xor	gp,ra,sp
    13dc:	00120213          	addi	tp,tp,1 # 1 <boot+0x1>
    13e0:	00200293          	li	t0,2
    13e4:	fc521ee3          	bne	tp,t0,13c0 <test_23+0x4>
    13e8:	0ff017b7          	lui	a5,0xff01
    13ec:	ff078793          	addi	a5,a5,-16 # ff00ff0 <tdat10+0xfef8af3>
    13f0:	01700713          	li	a4,23
    13f4:	06f19863          	bne	gp,a5,1464 <fail>

000013f8 <test_24>:
    13f8:	ff0100b7          	lui	ra,0xff010
    13fc:	f0008093          	addi	ra,ra,-256 # ff00ff00 <io+0x7f00ff00>
    1400:	00104133          	xor	sp,zero,ra
    1404:	ff0107b7          	lui	a5,0xff010
    1408:	f0078793          	addi	a5,a5,-256 # ff00ff00 <io+0x7f00ff00>
    140c:	01800713          	li	a4,24
    1410:	04f11a63          	bne	sp,a5,1464 <fail>

00001414 <test_25>:
    1414:	00ff00b7          	lui	ra,0xff0
    1418:	0ff08093          	addi	ra,ra,255 # ff00ff <tdat10+0xfe7c02>
    141c:	0000c133          	xor	sp,ra,zero
    1420:	00ff07b7          	lui	a5,0xff0
    1424:	0ff78793          	addi	a5,a5,255 # ff00ff <tdat10+0xfe7c02>
    1428:	01900713          	li	a4,25
    142c:	02f11c63          	bne	sp,a5,1464 <fail>

00001430 <test_26>:
    1430:	000040b3          	xor	ra,zero,zero
    1434:	00000793          	li	a5,0
    1438:	01a00713          	li	a4,26
    143c:	02f09463          	bne	ra,a5,1464 <fail>

00001440 <test_27>:
    1440:	111110b7          	lui	ra,0x11111
    1444:	11108093          	addi	ra,ra,273 # 11111111 <tdat10+0x11108c14>
    1448:	22222137          	lui	sp,0x22222
    144c:	22210113          	addi	sp,sp,546 # 22222222 <tdat10+0x22219d25>
    1450:	0020c033          	xor	zero,ra,sp
    1454:	00000793          	li	a5,0
    1458:	01b00713          	li	a4,27
    145c:	00f01463          	bne	zero,a5,1464 <fail>
    1460:	00e01663          	bne	zero,a4,146c <pass>

00001464 <fail>:
    1464:	c74ff0ef          	jal	ra,8d8 <failure>
    1468:	00100073          	ebreak

0000146c <pass>:
    146c:	00009137          	lui	sp,0x9
    1470:	c74ff0ef          	jal	ra,8e4 <OK>
    1474:	dbcff06f          	j	a30 <xor_ret>

00001478 <sh>:
    1478:	00001537          	lui	a0,0x1
    147c:	49850513          	addi	a0,a0,1176 # 1498 <.test_name>

00001480 <loop>:
    1480:	dddfe0ef          	jal	ra,25c <putstr>

00001484 <.prname_next>:
    1484:	00050583          	lb	a1,0(a0)
    1488:	00058a63          	beqz	a1,149c <.prname_done>
    148c:	00b62023          	sw	a1,0(a2)
    1490:	00150513          	addi	a0,a0,1
    1494:	ff1ff06f          	j	1484 <.prname_next>

00001498 <.test_name>:
    1498:	00006873          	csrrsi	a6,ustatus,0

0000149c <.prname_done>:
    149c:	02e00593          	li	a1,46
    14a0:	00b62023          	sw	a1,0(a2)
    14a4:	00b62023          	sw	a1,0(a2)

000014a8 <test_2>:
    14a8:	00007097          	auipc	ra,0x7
    14ac:	fe808093          	addi	ra,ra,-24 # 8490 <tdat>
    14b0:	0aa00113          	li	sp,170
    14b4:	00209023          	sh	sp,0(ra)
    14b8:	00009183          	lh	gp,0(ra)
    14bc:	0aa00793          	li	a5,170
    14c0:	00200713          	li	a4,2
    14c4:	44f19e63          	bne	gp,a5,1920 <fail>

000014c8 <test_3>:
    14c8:	00007097          	auipc	ra,0x7
    14cc:	fc808093          	addi	ra,ra,-56 # 8490 <tdat>
    14d0:	ffffb137          	lui	sp,0xffffb
    14d4:	a0010113          	addi	sp,sp,-1536 # ffffaa00 <io+0x7fffaa00>
    14d8:	00209123          	sh	sp,2(ra)
    14dc:	00209183          	lh	gp,2(ra)
    14e0:	ffffb7b7          	lui	a5,0xffffb
    14e4:	a0078793          	addi	a5,a5,-1536 # ffffaa00 <io+0x7fffaa00>
    14e8:	00300713          	li	a4,3
    14ec:	42f19a63          	bne	gp,a5,1920 <fail>

000014f0 <test_4>:
    14f0:	00007097          	auipc	ra,0x7
    14f4:	fa008093          	addi	ra,ra,-96 # 8490 <tdat>
    14f8:	beef1137          	lui	sp,0xbeef1
    14fc:	aa010113          	addi	sp,sp,-1376 # beef0aa0 <io+0x3eef0aa0>
    1500:	00209223          	sh	sp,4(ra)
    1504:	0040a183          	lw	gp,4(ra)
    1508:	beef17b7          	lui	a5,0xbeef1
    150c:	aa078793          	addi	a5,a5,-1376 # beef0aa0 <io+0x3eef0aa0>
    1510:	00400713          	li	a4,4
    1514:	40f19663          	bne	gp,a5,1920 <fail>

00001518 <test_5>:
    1518:	00007097          	auipc	ra,0x7
    151c:	f7808093          	addi	ra,ra,-136 # 8490 <tdat>
    1520:	ffffa137          	lui	sp,0xffffa
    1524:	00a10113          	addi	sp,sp,10 # ffffa00a <io+0x7fffa00a>
    1528:	00209323          	sh	sp,6(ra)
    152c:	00609183          	lh	gp,6(ra)
    1530:	ffffa7b7          	lui	a5,0xffffa
    1534:	00a78793          	addi	a5,a5,10 # ffffa00a <io+0x7fffa00a>
    1538:	00500713          	li	a4,5
    153c:	3ef19263          	bne	gp,a5,1920 <fail>

00001540 <test_6>:
    1540:	00007097          	auipc	ra,0x7
    1544:	f5e08093          	addi	ra,ra,-162 # 849e <tdat8>
    1548:	0aa00113          	li	sp,170
    154c:	fe209d23          	sh	sp,-6(ra)
    1550:	ffa09183          	lh	gp,-6(ra)
    1554:	0aa00793          	li	a5,170
    1558:	00600713          	li	a4,6
    155c:	3cf19263          	bne	gp,a5,1920 <fail>

00001560 <test_7>:
    1560:	00007097          	auipc	ra,0x7
    1564:	f3e08093          	addi	ra,ra,-194 # 849e <tdat8>
    1568:	ffffb137          	lui	sp,0xffffb
    156c:	a0010113          	addi	sp,sp,-1536 # ffffaa00 <io+0x7fffaa00>
    1570:	fe209e23          	sh	sp,-4(ra)
    1574:	ffc09183          	lh	gp,-4(ra)
    1578:	ffffb7b7          	lui	a5,0xffffb
    157c:	a0078793          	addi	a5,a5,-1536 # ffffaa00 <io+0x7fffaa00>
    1580:	00700713          	li	a4,7
    1584:	38f19e63          	bne	gp,a5,1920 <fail>

00001588 <test_8>:
    1588:	00007097          	auipc	ra,0x7
    158c:	f1608093          	addi	ra,ra,-234 # 849e <tdat8>
    1590:	00001137          	lui	sp,0x1
    1594:	aa010113          	addi	sp,sp,-1376 # aa0 <test_2+0x4>
    1598:	fe209f23          	sh	sp,-2(ra)
    159c:	ffe09183          	lh	gp,-2(ra)
    15a0:	000017b7          	lui	a5,0x1
    15a4:	aa078793          	addi	a5,a5,-1376 # aa0 <test_2+0x4>
    15a8:	00800713          	li	a4,8
    15ac:	36f19a63          	bne	gp,a5,1920 <fail>

000015b0 <test_9>:
    15b0:	00007097          	auipc	ra,0x7
    15b4:	eee08093          	addi	ra,ra,-274 # 849e <tdat8>
    15b8:	ffffa137          	lui	sp,0xffffa
    15bc:	00a10113          	addi	sp,sp,10 # ffffa00a <io+0x7fffa00a>
    15c0:	00209023          	sh	sp,0(ra)
    15c4:	00009183          	lh	gp,0(ra)
    15c8:	ffffa7b7          	lui	a5,0xffffa
    15cc:	00a78793          	addi	a5,a5,10 # ffffa00a <io+0x7fffa00a>
    15d0:	00900713          	li	a4,9
    15d4:	34f19663          	bne	gp,a5,1920 <fail>

000015d8 <test_10>:
    15d8:	00007097          	auipc	ra,0x7
    15dc:	ec808093          	addi	ra,ra,-312 # 84a0 <tdat9>
    15e0:	12345137          	lui	sp,0x12345
    15e4:	67810113          	addi	sp,sp,1656 # 12345678 <tdat10+0x1233d17b>
    15e8:	fe008213          	addi	tp,ra,-32
    15ec:	02221023          	sh	sp,32(tp) # 20 <boot+0x20>
    15f0:	00009183          	lh	gp,0(ra)
    15f4:	000057b7          	lui	a5,0x5
    15f8:	67878793          	addi	a5,a5,1656 # 5678 <test_5>
    15fc:	00a00713          	li	a4,10
    1600:	32f19063          	bne	gp,a5,1920 <fail>

00001604 <test_11>:
    1604:	00007097          	auipc	ra,0x7
    1608:	e9c08093          	addi	ra,ra,-356 # 84a0 <tdat9>
    160c:	00003137          	lui	sp,0x3
    1610:	09810113          	addi	sp,sp,152 # 3098 <test_14+0x4>
    1614:	ffb08093          	addi	ra,ra,-5
    1618:	002093a3          	sh	sp,7(ra)
    161c:	00007217          	auipc	tp,0x7
    1620:	e8620213          	addi	tp,tp,-378 # 84a2 <tdat10>
    1624:	00021183          	lh	gp,0(tp) # 0 <boot>
    1628:	000037b7          	lui	a5,0x3
    162c:	09878793          	addi	a5,a5,152 # 3098 <test_14+0x4>
    1630:	00b00713          	li	a4,11
    1634:	2ef19663          	bne	gp,a5,1920 <fail>

00001638 <test_12>:
    1638:	00c00713          	li	a4,12
    163c:	00000213          	li	tp,0
    1640:	ffffd0b7          	lui	ra,0xffffd
    1644:	cdd08093          	addi	ra,ra,-803 # ffffccdd <io+0x7fffccdd>
    1648:	00007117          	auipc	sp,0x7
    164c:	e4810113          	addi	sp,sp,-440 # 8490 <tdat>
    1650:	00111023          	sh	ra,0(sp)
    1654:	00011183          	lh	gp,0(sp)
    1658:	ffffd7b7          	lui	a5,0xffffd
    165c:	cdd78793          	addi	a5,a5,-803 # ffffccdd <io+0x7fffccdd>
    1660:	2cf19063          	bne	gp,a5,1920 <fail>
    1664:	00120213          	addi	tp,tp,1 # 1 <boot+0x1>
    1668:	00200293          	li	t0,2
    166c:	fc521ae3          	bne	tp,t0,1640 <test_12+0x8>

00001670 <test_13>:
    1670:	00d00713          	li	a4,13
    1674:	00000213          	li	tp,0
    1678:	ffffc0b7          	lui	ra,0xffffc
    167c:	ccd08093          	addi	ra,ra,-819 # ffffbccd <io+0x7fffbccd>
    1680:	00007117          	auipc	sp,0x7
    1684:	e1010113          	addi	sp,sp,-496 # 8490 <tdat>
    1688:	00000013          	nop
    168c:	00111123          	sh	ra,2(sp)
    1690:	00211183          	lh	gp,2(sp)
    1694:	ffffc7b7          	lui	a5,0xffffc
    1698:	ccd78793          	addi	a5,a5,-819 # ffffbccd <io+0x7fffbccd>
    169c:	28f19263          	bne	gp,a5,1920 <fail>
    16a0:	00120213          	addi	tp,tp,1 # 1 <boot+0x1>
    16a4:	00200293          	li	t0,2
    16a8:	fc5218e3          	bne	tp,t0,1678 <test_13+0x8>

000016ac <test_14>:
    16ac:	00e00713          	li	a4,14
    16b0:	00000213          	li	tp,0
    16b4:	ffffc0b7          	lui	ra,0xffffc
    16b8:	bcc08093          	addi	ra,ra,-1076 # ffffbbcc <io+0x7fffbbcc>
    16bc:	00007117          	auipc	sp,0x7
    16c0:	dd410113          	addi	sp,sp,-556 # 8490 <tdat>
    16c4:	00000013          	nop
    16c8:	00000013          	nop
    16cc:	00111223          	sh	ra,4(sp)
    16d0:	00411183          	lh	gp,4(sp)
    16d4:	ffffc7b7          	lui	a5,0xffffc
    16d8:	bcc78793          	addi	a5,a5,-1076 # ffffbbcc <io+0x7fffbbcc>
    16dc:	24f19263          	bne	gp,a5,1920 <fail>
    16e0:	00120213          	addi	tp,tp,1 # 1 <boot+0x1>
    16e4:	00200293          	li	t0,2
    16e8:	fc5216e3          	bne	tp,t0,16b4 <test_14+0x8>

000016ec <test_15>:
    16ec:	00f00713          	li	a4,15
    16f0:	00000213          	li	tp,0
    16f4:	ffffb0b7          	lui	ra,0xffffb
    16f8:	bbc08093          	addi	ra,ra,-1092 # ffffabbc <io+0x7fffabbc>
    16fc:	00000013          	nop
    1700:	00007117          	auipc	sp,0x7
    1704:	d9010113          	addi	sp,sp,-624 # 8490 <tdat>
    1708:	00111323          	sh	ra,6(sp)
    170c:	00611183          	lh	gp,6(sp)
    1710:	ffffb7b7          	lui	a5,0xffffb
    1714:	bbc78793          	addi	a5,a5,-1092 # ffffabbc <io+0x7fffabbc>
    1718:	20f19463          	bne	gp,a5,1920 <fail>
    171c:	00120213          	addi	tp,tp,1 # 1 <boot+0x1>
    1720:	00200293          	li	t0,2
    1724:	fc5218e3          	bne	tp,t0,16f4 <test_15+0x8>

00001728 <test_16>:
    1728:	01000713          	li	a4,16
    172c:	00000213          	li	tp,0
    1730:	ffffb0b7          	lui	ra,0xffffb
    1734:	abb08093          	addi	ra,ra,-1349 # ffffaabb <io+0x7fffaabb>
    1738:	00000013          	nop
    173c:	00007117          	auipc	sp,0x7
    1740:	d5410113          	addi	sp,sp,-684 # 8490 <tdat>
    1744:	00000013          	nop
    1748:	00111423          	sh	ra,8(sp)
    174c:	00811183          	lh	gp,8(sp)
    1750:	ffffb7b7          	lui	a5,0xffffb
    1754:	abb78793          	addi	a5,a5,-1349 # ffffaabb <io+0x7fffaabb>
    1758:	1cf19463          	bne	gp,a5,1920 <fail>
    175c:	00120213          	addi	tp,tp,1 # 1 <boot+0x1>
    1760:	00200293          	li	t0,2
    1764:	fc5216e3          	bne	tp,t0,1730 <test_16+0x8>

00001768 <test_17>:
    1768:	01100713          	li	a4,17
    176c:	00000213          	li	tp,0
    1770:	ffffe0b7          	lui	ra,0xffffe
    1774:	aab08093          	addi	ra,ra,-1365 # ffffdaab <io+0x7fffdaab>
    1778:	00000013          	nop
    177c:	00000013          	nop
    1780:	00007117          	auipc	sp,0x7
    1784:	d1010113          	addi	sp,sp,-752 # 8490 <tdat>
    1788:	00111523          	sh	ra,10(sp)
    178c:	00a11183          	lh	gp,10(sp)
    1790:	ffffe7b7          	lui	a5,0xffffe
    1794:	aab78793          	addi	a5,a5,-1365 # ffffdaab <io+0x7fffdaab>
    1798:	18f19463          	bne	gp,a5,1920 <fail>
    179c:	00120213          	addi	tp,tp,1 # 1 <boot+0x1>
    17a0:	00200293          	li	t0,2
    17a4:	fc5216e3          	bne	tp,t0,1770 <test_17+0x8>

000017a8 <test_18>:
    17a8:	01200713          	li	a4,18
    17ac:	00000213          	li	tp,0
    17b0:	00007117          	auipc	sp,0x7
    17b4:	ce010113          	addi	sp,sp,-800 # 8490 <tdat>
    17b8:	000020b7          	lui	ra,0x2
    17bc:	23308093          	addi	ra,ra,563 # 2233 <test_32+0x27>
    17c0:	00111023          	sh	ra,0(sp)
    17c4:	00011183          	lh	gp,0(sp)
    17c8:	000027b7          	lui	a5,0x2
    17cc:	23378793          	addi	a5,a5,563 # 2233 <test_32+0x27>
    17d0:	14f19863          	bne	gp,a5,1920 <fail>
    17d4:	00120213          	addi	tp,tp,1 # 1 <boot+0x1>
    17d8:	00200293          	li	t0,2
    17dc:	fc521ae3          	bne	tp,t0,17b0 <test_18+0x8>

000017e0 <test_19>:
    17e0:	01300713          	li	a4,19
    17e4:	00000213          	li	tp,0
    17e8:	00007117          	auipc	sp,0x7
    17ec:	ca810113          	addi	sp,sp,-856 # 8490 <tdat>
    17f0:	000010b7          	lui	ra,0x1
    17f4:	22308093          	addi	ra,ra,547 # 1223 <test_15+0x33>
    17f8:	00000013          	nop
    17fc:	00111123          	sh	ra,2(sp)
    1800:	00211183          	lh	gp,2(sp)
    1804:	000017b7          	lui	a5,0x1
    1808:	22378793          	addi	a5,a5,547 # 1223 <test_15+0x33>
    180c:	10f19a63          	bne	gp,a5,1920 <fail>
    1810:	00120213          	addi	tp,tp,1 # 1 <boot+0x1>
    1814:	00200293          	li	t0,2
    1818:	fc5218e3          	bne	tp,t0,17e8 <test_19+0x8>

0000181c <test_20>:
    181c:	01400713          	li	a4,20
    1820:	00000213          	li	tp,0
    1824:	00007117          	auipc	sp,0x7
    1828:	c6c10113          	addi	sp,sp,-916 # 8490 <tdat>
    182c:	000010b7          	lui	ra,0x1
    1830:	12208093          	addi	ra,ra,290 # 1122 <test_11+0x1a>
    1834:	00000013          	nop
    1838:	00000013          	nop
    183c:	00111223          	sh	ra,4(sp)
    1840:	00411183          	lh	gp,4(sp)
    1844:	000017b7          	lui	a5,0x1
    1848:	12278793          	addi	a5,a5,290 # 1122 <test_11+0x1a>
    184c:	0cf19a63          	bne	gp,a5,1920 <fail>
    1850:	00120213          	addi	tp,tp,1 # 1 <boot+0x1>
    1854:	00200293          	li	t0,2
    1858:	fc5216e3          	bne	tp,t0,1824 <test_20+0x8>

0000185c <test_21>:
    185c:	01500713          	li	a4,21
    1860:	00000213          	li	tp,0
    1864:	00007117          	auipc	sp,0x7
    1868:	c2c10113          	addi	sp,sp,-980 # 8490 <tdat>
    186c:	00000013          	nop
    1870:	11200093          	li	ra,274
    1874:	00111323          	sh	ra,6(sp)
    1878:	00611183          	lh	gp,6(sp)
    187c:	11200793          	li	a5,274
    1880:	0af19063          	bne	gp,a5,1920 <fail>
    1884:	00120213          	addi	tp,tp,1 # 1 <boot+0x1>
    1888:	00200293          	li	t0,2
    188c:	fc521ce3          	bne	tp,t0,1864 <test_21+0x8>

00001890 <test_22>:
    1890:	01600713          	li	a4,22
    1894:	00000213          	li	tp,0
    1898:	00007117          	auipc	sp,0x7
    189c:	bf810113          	addi	sp,sp,-1032 # 8490 <tdat>
    18a0:	00000013          	nop
    18a4:	01100093          	li	ra,17
    18a8:	00000013          	nop
    18ac:	00111423          	sh	ra,8(sp)
    18b0:	00811183          	lh	gp,8(sp)
    18b4:	01100793          	li	a5,17
    18b8:	06f19463          	bne	gp,a5,1920 <fail>
    18bc:	00120213          	addi	tp,tp,1 # 1 <boot+0x1>
    18c0:	00200293          	li	t0,2
    18c4:	fc521ae3          	bne	tp,t0,1898 <test_22+0x8>

000018c8 <test_23>:
    18c8:	01700713          	li	a4,23
    18cc:	00000213          	li	tp,0
    18d0:	00007117          	auipc	sp,0x7
    18d4:	bc010113          	addi	sp,sp,-1088 # 8490 <tdat>
    18d8:	00000013          	nop
    18dc:	00000013          	nop
    18e0:	000030b7          	lui	ra,0x3
    18e4:	00108093          	addi	ra,ra,1 # 3001 <test_7+0x5>
    18e8:	00111523          	sh	ra,10(sp)
    18ec:	00a11183          	lh	gp,10(sp)
    18f0:	000037b7          	lui	a5,0x3
    18f4:	00178793          	addi	a5,a5,1 # 3001 <test_7+0x5>
    18f8:	02f19463          	bne	gp,a5,1920 <fail>
    18fc:	00120213          	addi	tp,tp,1 # 1 <boot+0x1>
    1900:	00200293          	li	t0,2
    1904:	fc5216e3          	bne	tp,t0,18d0 <test_23+0x8>
    1908:	0000c537          	lui	a0,0xc
    190c:	eef50513          	addi	a0,a0,-273 # beef <tdat10+0x39f2>
    1910:	00007597          	auipc	a1,0x7
    1914:	b8058593          	addi	a1,a1,-1152 # 8490 <tdat>
    1918:	00a59323          	sh	a0,6(a1)
    191c:	00e01663          	bne	zero,a4,1928 <pass>

00001920 <fail>:
    1920:	fb9fe0ef          	jal	ra,8d8 <failure>
    1924:	00100073          	ebreak

00001928 <pass>:
    1928:	00009137          	lui	sp,0x9
    192c:	fb9fe0ef          	jal	ra,8e4 <OK>
    1930:	890ff06f          	j	9c0 <sh_ret>

00001934 <sub>:
    1934:	00002537          	lui	a0,0x2
    1938:	95450513          	addi	a0,a0,-1708 # 1954 <.test_name>

0000193c <loop>:
    193c:	921fe0ef          	jal	ra,25c <putstr>

00001940 <.prname_next>:
    1940:	00050583          	lb	a1,0(a0)
    1944:	00058a63          	beqz	a1,1958 <.prname_done>
    1948:	00b62023          	sw	a1,0(a2)
    194c:	00150513          	addi	a0,a0,1
    1950:	ff1ff06f          	j	1940 <.prname_next>

00001954 <.test_name>:
    1954:	00627573          	csrrci	a0,0x6,4

00001958 <.prname_done>:
    1958:	02e00593          	li	a1,46
    195c:	00b62023          	sw	a1,0(a2)
    1960:	00b62023          	sw	a1,0(a2)

00001964 <test_2>:
    1964:	00000093          	li	ra,0
    1968:	00000113          	li	sp,0
    196c:	402081b3          	sub	gp,ra,sp
    1970:	00000793          	li	a5,0
    1974:	00200713          	li	a4,2
    1978:	4af19663          	bne	gp,a5,1e24 <fail>

0000197c <test_3>:
    197c:	00100093          	li	ra,1
    1980:	00100113          	li	sp,1
    1984:	402081b3          	sub	gp,ra,sp
    1988:	00000793          	li	a5,0
    198c:	00300713          	li	a4,3
    1990:	48f19a63          	bne	gp,a5,1e24 <fail>

00001994 <test_4>:
    1994:	00300093          	li	ra,3
    1998:	00700113          	li	sp,7
    199c:	402081b3          	sub	gp,ra,sp
    19a0:	ffc00793          	li	a5,-4
    19a4:	00400713          	li	a4,4
    19a8:	46f19e63          	bne	gp,a5,1e24 <fail>

000019ac <test_5>:
    19ac:	00000093          	li	ra,0
    19b0:	ffff8137          	lui	sp,0xffff8
    19b4:	402081b3          	sub	gp,ra,sp
    19b8:	000087b7          	lui	a5,0x8
    19bc:	00500713          	li	a4,5
    19c0:	46f19263          	bne	gp,a5,1e24 <fail>

000019c4 <test_6>:
    19c4:	800000b7          	lui	ra,0x80000
    19c8:	00000113          	li	sp,0
    19cc:	402081b3          	sub	gp,ra,sp
    19d0:	800007b7          	lui	a5,0x80000
    19d4:	00600713          	li	a4,6
    19d8:	44f19663          	bne	gp,a5,1e24 <fail>

000019dc <test_7>:
    19dc:	800000b7          	lui	ra,0x80000
    19e0:	ffff8137          	lui	sp,0xffff8
    19e4:	402081b3          	sub	gp,ra,sp
    19e8:	800087b7          	lui	a5,0x80008
    19ec:	00700713          	li	a4,7
    19f0:	42f19a63          	bne	gp,a5,1e24 <fail>

000019f4 <test_8>:
    19f4:	00000093          	li	ra,0
    19f8:	00008137          	lui	sp,0x8
    19fc:	fff10113          	addi	sp,sp,-1 # 7fff <test_14+0x23>
    1a00:	402081b3          	sub	gp,ra,sp
    1a04:	ffff87b7          	lui	a5,0xffff8
    1a08:	00178793          	addi	a5,a5,1 # ffff8001 <io+0x7fff8001>
    1a0c:	00800713          	li	a4,8
    1a10:	40f19a63          	bne	gp,a5,1e24 <fail>

00001a14 <test_9>:
    1a14:	800000b7          	lui	ra,0x80000
    1a18:	fff08093          	addi	ra,ra,-1 # 7fffffff <io+0xffffffff>
    1a1c:	00000113          	li	sp,0
    1a20:	402081b3          	sub	gp,ra,sp
    1a24:	800007b7          	lui	a5,0x80000
    1a28:	fff78793          	addi	a5,a5,-1 # 7fffffff <io+0xffffffff>
    1a2c:	00900713          	li	a4,9
    1a30:	3ef19a63          	bne	gp,a5,1e24 <fail>

00001a34 <test_10>:
    1a34:	800000b7          	lui	ra,0x80000
    1a38:	fff08093          	addi	ra,ra,-1 # 7fffffff <io+0xffffffff>
    1a3c:	00008137          	lui	sp,0x8
    1a40:	fff10113          	addi	sp,sp,-1 # 7fff <test_14+0x23>
    1a44:	402081b3          	sub	gp,ra,sp
    1a48:	7fff87b7          	lui	a5,0x7fff8
    1a4c:	00a00713          	li	a4,10
    1a50:	3cf19a63          	bne	gp,a5,1e24 <fail>

00001a54 <test_11>:
    1a54:	800000b7          	lui	ra,0x80000
    1a58:	00008137          	lui	sp,0x8
    1a5c:	fff10113          	addi	sp,sp,-1 # 7fff <test_14+0x23>
    1a60:	402081b3          	sub	gp,ra,sp
    1a64:	7fff87b7          	lui	a5,0x7fff8
    1a68:	00178793          	addi	a5,a5,1 # 7fff8001 <tdat10+0x7ffefb04>
    1a6c:	00b00713          	li	a4,11
    1a70:	3af19a63          	bne	gp,a5,1e24 <fail>

00001a74 <test_12>:
    1a74:	800000b7          	lui	ra,0x80000
    1a78:	fff08093          	addi	ra,ra,-1 # 7fffffff <io+0xffffffff>
    1a7c:	ffff8137          	lui	sp,0xffff8
    1a80:	402081b3          	sub	gp,ra,sp
    1a84:	800087b7          	lui	a5,0x80008
    1a88:	fff78793          	addi	a5,a5,-1 # 80007fff <io+0x7fff>
    1a8c:	00c00713          	li	a4,12
    1a90:	38f19a63          	bne	gp,a5,1e24 <fail>

00001a94 <test_13>:
    1a94:	00000093          	li	ra,0
    1a98:	fff00113          	li	sp,-1
    1a9c:	402081b3          	sub	gp,ra,sp
    1aa0:	00100793          	li	a5,1
    1aa4:	00d00713          	li	a4,13
    1aa8:	36f19e63          	bne	gp,a5,1e24 <fail>

00001aac <test_14>:
    1aac:	fff00093          	li	ra,-1
    1ab0:	00100113          	li	sp,1
    1ab4:	402081b3          	sub	gp,ra,sp
    1ab8:	ffe00793          	li	a5,-2
    1abc:	00e00713          	li	a4,14
    1ac0:	36f19263          	bne	gp,a5,1e24 <fail>

00001ac4 <test_15>:
    1ac4:	fff00093          	li	ra,-1
    1ac8:	fff00113          	li	sp,-1
    1acc:	402081b3          	sub	gp,ra,sp
    1ad0:	00000793          	li	a5,0
    1ad4:	00f00713          	li	a4,15
    1ad8:	34f19663          	bne	gp,a5,1e24 <fail>

00001adc <test_16>:
    1adc:	00d00093          	li	ra,13
    1ae0:	00b00113          	li	sp,11
    1ae4:	402080b3          	sub	ra,ra,sp
    1ae8:	00200793          	li	a5,2
    1aec:	01000713          	li	a4,16
    1af0:	32f09a63          	bne	ra,a5,1e24 <fail>

00001af4 <test_17>:
    1af4:	00e00093          	li	ra,14
    1af8:	00b00113          	li	sp,11
    1afc:	40208133          	sub	sp,ra,sp
    1b00:	00300793          	li	a5,3
    1b04:	01100713          	li	a4,17
    1b08:	30f11e63          	bne	sp,a5,1e24 <fail>

00001b0c <test_18>:
    1b0c:	00d00093          	li	ra,13
    1b10:	401080b3          	sub	ra,ra,ra
    1b14:	00000793          	li	a5,0
    1b18:	01200713          	li	a4,18
    1b1c:	30f09463          	bne	ra,a5,1e24 <fail>

00001b20 <test_19>:
    1b20:	00000213          	li	tp,0
    1b24:	00d00093          	li	ra,13
    1b28:	00b00113          	li	sp,11
    1b2c:	402081b3          	sub	gp,ra,sp
    1b30:	00018313          	mv	t1,gp
    1b34:	00120213          	addi	tp,tp,1 # 1 <boot+0x1>
    1b38:	00200293          	li	t0,2
    1b3c:	fe5214e3          	bne	tp,t0,1b24 <test_19+0x4>
    1b40:	00200793          	li	a5,2
    1b44:	01300713          	li	a4,19
    1b48:	2cf31e63          	bne	t1,a5,1e24 <fail>

00001b4c <test_20>:
    1b4c:	00000213          	li	tp,0
    1b50:	00e00093          	li	ra,14
    1b54:	00b00113          	li	sp,11
    1b58:	402081b3          	sub	gp,ra,sp
    1b5c:	00000013          	nop
    1b60:	00018313          	mv	t1,gp
    1b64:	00120213          	addi	tp,tp,1 # 1 <boot+0x1>
    1b68:	00200293          	li	t0,2
    1b6c:	fe5212e3          	bne	tp,t0,1b50 <test_20+0x4>
    1b70:	00300793          	li	a5,3
    1b74:	01400713          	li	a4,20
    1b78:	2af31663          	bne	t1,a5,1e24 <fail>

00001b7c <test_21>:
    1b7c:	00000213          	li	tp,0
    1b80:	00f00093          	li	ra,15
    1b84:	00b00113          	li	sp,11
    1b88:	402081b3          	sub	gp,ra,sp
    1b8c:	00000013          	nop
    1b90:	00000013          	nop
    1b94:	00018313          	mv	t1,gp
    1b98:	00120213          	addi	tp,tp,1 # 1 <boot+0x1>
    1b9c:	00200293          	li	t0,2
    1ba0:	fe5210e3          	bne	tp,t0,1b80 <test_21+0x4>
    1ba4:	00400793          	li	a5,4
    1ba8:	01500713          	li	a4,21
    1bac:	26f31c63          	bne	t1,a5,1e24 <fail>

00001bb0 <test_22>:
    1bb0:	00000213          	li	tp,0
    1bb4:	00d00093          	li	ra,13
    1bb8:	00b00113          	li	sp,11
    1bbc:	402081b3          	sub	gp,ra,sp
    1bc0:	00120213          	addi	tp,tp,1 # 1 <boot+0x1>
    1bc4:	00200293          	li	t0,2
    1bc8:	fe5216e3          	bne	tp,t0,1bb4 <test_22+0x4>
    1bcc:	00200793          	li	a5,2
    1bd0:	01600713          	li	a4,22
    1bd4:	24f19863          	bne	gp,a5,1e24 <fail>

00001bd8 <test_23>:
    1bd8:	00000213          	li	tp,0
    1bdc:	00e00093          	li	ra,14
    1be0:	00b00113          	li	sp,11
    1be4:	00000013          	nop
    1be8:	402081b3          	sub	gp,ra,sp
    1bec:	00120213          	addi	tp,tp,1 # 1 <boot+0x1>
    1bf0:	00200293          	li	t0,2
    1bf4:	fe5214e3          	bne	tp,t0,1bdc <test_23+0x4>
    1bf8:	00300793          	li	a5,3
    1bfc:	01700713          	li	a4,23
    1c00:	22f19263          	bne	gp,a5,1e24 <fail>

00001c04 <test_24>:
    1c04:	00000213          	li	tp,0
    1c08:	00f00093          	li	ra,15
    1c0c:	00b00113          	li	sp,11
    1c10:	00000013          	nop
    1c14:	00000013          	nop
    1c18:	402081b3          	sub	gp,ra,sp
    1c1c:	00120213          	addi	tp,tp,1 # 1 <boot+0x1>
    1c20:	00200293          	li	t0,2
    1c24:	fe5212e3          	bne	tp,t0,1c08 <test_24+0x4>
    1c28:	00400793          	li	a5,4
    1c2c:	01800713          	li	a4,24
    1c30:	1ef19a63          	bne	gp,a5,1e24 <fail>

00001c34 <test_25>:
    1c34:	00000213          	li	tp,0
    1c38:	00d00093          	li	ra,13
    1c3c:	00000013          	nop
    1c40:	00b00113          	li	sp,11
    1c44:	402081b3          	sub	gp,ra,sp
    1c48:	00120213          	addi	tp,tp,1 # 1 <boot+0x1>
    1c4c:	00200293          	li	t0,2
    1c50:	fe5214e3          	bne	tp,t0,1c38 <test_25+0x4>
    1c54:	00200793          	li	a5,2
    1c58:	01900713          	li	a4,25
    1c5c:	1cf19463          	bne	gp,a5,1e24 <fail>

00001c60 <test_26>:
    1c60:	00000213          	li	tp,0
    1c64:	00e00093          	li	ra,14
    1c68:	00000013          	nop
    1c6c:	00b00113          	li	sp,11
    1c70:	00000013          	nop
    1c74:	402081b3          	sub	gp,ra,sp
    1c78:	00120213          	addi	tp,tp,1 # 1 <boot+0x1>
    1c7c:	00200293          	li	t0,2
    1c80:	fe5212e3          	bne	tp,t0,1c64 <test_26+0x4>
    1c84:	00300793          	li	a5,3
    1c88:	01a00713          	li	a4,26
    1c8c:	18f19c63          	bne	gp,a5,1e24 <fail>

00001c90 <test_27>:
    1c90:	00000213          	li	tp,0
    1c94:	00f00093          	li	ra,15
    1c98:	00000013          	nop
    1c9c:	00000013          	nop
    1ca0:	00b00113          	li	sp,11
    1ca4:	402081b3          	sub	gp,ra,sp
    1ca8:	00120213          	addi	tp,tp,1 # 1 <boot+0x1>
    1cac:	00200293          	li	t0,2
    1cb0:	fe5212e3          	bne	tp,t0,1c94 <test_27+0x4>
    1cb4:	00400793          	li	a5,4
    1cb8:	01b00713          	li	a4,27
    1cbc:	16f19463          	bne	gp,a5,1e24 <fail>

00001cc0 <test_28>:
    1cc0:	00000213          	li	tp,0
    1cc4:	00b00113          	li	sp,11
    1cc8:	00d00093          	li	ra,13
    1ccc:	402081b3          	sub	gp,ra,sp
    1cd0:	00120213          	addi	tp,tp,1 # 1 <boot+0x1>
    1cd4:	00200293          	li	t0,2
    1cd8:	fe5216e3          	bne	tp,t0,1cc4 <test_28+0x4>
    1cdc:	00200793          	li	a5,2
    1ce0:	01c00713          	li	a4,28
    1ce4:	14f19063          	bne	gp,a5,1e24 <fail>

00001ce8 <test_29>:
    1ce8:	00000213          	li	tp,0
    1cec:	00b00113          	li	sp,11
    1cf0:	00e00093          	li	ra,14
    1cf4:	00000013          	nop
    1cf8:	402081b3          	sub	gp,ra,sp
    1cfc:	00120213          	addi	tp,tp,1 # 1 <boot+0x1>
    1d00:	00200293          	li	t0,2
    1d04:	fe5214e3          	bne	tp,t0,1cec <test_29+0x4>
    1d08:	00300793          	li	a5,3
    1d0c:	01d00713          	li	a4,29
    1d10:	10f19a63          	bne	gp,a5,1e24 <fail>

00001d14 <test_30>:
    1d14:	00000213          	li	tp,0
    1d18:	00b00113          	li	sp,11
    1d1c:	00f00093          	li	ra,15
    1d20:	00000013          	nop
    1d24:	00000013          	nop
    1d28:	402081b3          	sub	gp,ra,sp
    1d2c:	00120213          	addi	tp,tp,1 # 1 <boot+0x1>
    1d30:	00200293          	li	t0,2
    1d34:	fe5212e3          	bne	tp,t0,1d18 <test_30+0x4>
    1d38:	00400793          	li	a5,4
    1d3c:	01e00713          	li	a4,30
    1d40:	0ef19263          	bne	gp,a5,1e24 <fail>

00001d44 <test_31>:
    1d44:	00000213          	li	tp,0
    1d48:	00b00113          	li	sp,11
    1d4c:	00000013          	nop
    1d50:	00d00093          	li	ra,13
    1d54:	402081b3          	sub	gp,ra,sp
    1d58:	00120213          	addi	tp,tp,1 # 1 <boot+0x1>
    1d5c:	00200293          	li	t0,2
    1d60:	fe5214e3          	bne	tp,t0,1d48 <test_31+0x4>
    1d64:	00200793          	li	a5,2
    1d68:	01f00713          	li	a4,31
    1d6c:	0af19c63          	bne	gp,a5,1e24 <fail>

00001d70 <test_32>:
    1d70:	00000213          	li	tp,0
    1d74:	00b00113          	li	sp,11
    1d78:	00000013          	nop
    1d7c:	00e00093          	li	ra,14
    1d80:	00000013          	nop
    1d84:	402081b3          	sub	gp,ra,sp
    1d88:	00120213          	addi	tp,tp,1 # 1 <boot+0x1>
    1d8c:	00200293          	li	t0,2
    1d90:	fe5212e3          	bne	tp,t0,1d74 <test_32+0x4>
    1d94:	00300793          	li	a5,3
    1d98:	02000713          	li	a4,32
    1d9c:	08f19463          	bne	gp,a5,1e24 <fail>

00001da0 <test_33>:
    1da0:	00000213          	li	tp,0
    1da4:	00b00113          	li	sp,11
    1da8:	00000013          	nop
    1dac:	00000013          	nop
    1db0:	00f00093          	li	ra,15
    1db4:	402081b3          	sub	gp,ra,sp
    1db8:	00120213          	addi	tp,tp,1 # 1 <boot+0x1>
    1dbc:	00200293          	li	t0,2
    1dc0:	fe5212e3          	bne	tp,t0,1da4 <test_33+0x4>
    1dc4:	00400793          	li	a5,4
    1dc8:	02100713          	li	a4,33
    1dcc:	04f19c63          	bne	gp,a5,1e24 <fail>

00001dd0 <test_34>:
    1dd0:	ff100093          	li	ra,-15
    1dd4:	40100133          	neg	sp,ra
    1dd8:	00f00793          	li	a5,15
    1ddc:	02200713          	li	a4,34
    1de0:	04f11263          	bne	sp,a5,1e24 <fail>

00001de4 <test_35>:
    1de4:	02000093          	li	ra,32
    1de8:	40008133          	sub	sp,ra,zero
    1dec:	02000793          	li	a5,32
    1df0:	02300713          	li	a4,35
    1df4:	02f11863          	bne	sp,a5,1e24 <fail>

00001df8 <test_36>:
    1df8:	400000b3          	neg	ra,zero
    1dfc:	00000793          	li	a5,0
    1e00:	02400713          	li	a4,36
    1e04:	02f09063          	bne	ra,a5,1e24 <fail>

00001e08 <test_37>:
    1e08:	01000093          	li	ra,16
    1e0c:	01e00113          	li	sp,30
    1e10:	40208033          	sub	zero,ra,sp
    1e14:	00000793          	li	a5,0
    1e18:	02500713          	li	a4,37
    1e1c:	00f01463          	bne	zero,a5,1e24 <fail>
    1e20:	00e01663          	bne	zero,a4,1e2c <pass>

00001e24 <fail>:
    1e24:	ab5fe0ef          	jal	ra,8d8 <failure>
    1e28:	00100073          	ebreak

00001e2c <pass>:
    1e2c:	00009137          	lui	sp,0x9
    1e30:	ab5fe0ef          	jal	ra,8e4 <OK>
    1e34:	be5fe06f          	j	a18 <sub_ret>

00001e38 <sll>:
    1e38:	00002537          	lui	a0,0x2
    1e3c:	e5850513          	addi	a0,a0,-424 # 1e58 <.test_name>

00001e40 <loop>:
    1e40:	c1cfe0ef          	jal	ra,25c <putstr>

00001e44 <.prname_next>:
    1e44:	00050583          	lb	a1,0(a0)
    1e48:	00058a63          	beqz	a1,1e5c <.prname_done>
    1e4c:	00b62023          	sw	a1,0(a2)
    1e50:	00150513          	addi	a0,a0,1
    1e54:	ff1ff06f          	j	1e44 <.prname_next>

00001e58 <.test_name>:
    1e58:	006c6c73          	csrrsi	s8,0x6,24

00001e5c <.prname_done>:
    1e5c:	02e00593          	li	a1,46
    1e60:	00b62023          	sw	a1,0(a2)
    1e64:	00b62023          	sw	a1,0(a2)

00001e68 <test_2>:
    1e68:	00100093          	li	ra,1
    1e6c:	00000113          	li	sp,0
    1e70:	002091b3          	sll	gp,ra,sp
    1e74:	00100793          	li	a5,1
    1e78:	00200713          	li	a4,2
    1e7c:	54f19c63          	bne	gp,a5,23d4 <fail>

00001e80 <test_3>:
    1e80:	00100093          	li	ra,1
    1e84:	00100113          	li	sp,1
    1e88:	002091b3          	sll	gp,ra,sp
    1e8c:	00200793          	li	a5,2
    1e90:	00300713          	li	a4,3
    1e94:	54f19063          	bne	gp,a5,23d4 <fail>

00001e98 <test_4>:
    1e98:	00100093          	li	ra,1
    1e9c:	00700113          	li	sp,7
    1ea0:	002091b3          	sll	gp,ra,sp
    1ea4:	08000793          	li	a5,128
    1ea8:	00400713          	li	a4,4
    1eac:	52f19463          	bne	gp,a5,23d4 <fail>

00001eb0 <test_5>:
    1eb0:	00100093          	li	ra,1
    1eb4:	00e00113          	li	sp,14
    1eb8:	002091b3          	sll	gp,ra,sp
    1ebc:	000047b7          	lui	a5,0x4
    1ec0:	00500713          	li	a4,5
    1ec4:	50f19863          	bne	gp,a5,23d4 <fail>

00001ec8 <test_6>:
    1ec8:	00100093          	li	ra,1
    1ecc:	01f00113          	li	sp,31
    1ed0:	002091b3          	sll	gp,ra,sp
    1ed4:	800007b7          	lui	a5,0x80000
    1ed8:	00600713          	li	a4,6
    1edc:	4ef19c63          	bne	gp,a5,23d4 <fail>

00001ee0 <test_7>:
    1ee0:	fff00093          	li	ra,-1
    1ee4:	00000113          	li	sp,0
    1ee8:	002091b3          	sll	gp,ra,sp
    1eec:	fff00793          	li	a5,-1
    1ef0:	00700713          	li	a4,7
    1ef4:	4ef19063          	bne	gp,a5,23d4 <fail>

00001ef8 <test_8>:
    1ef8:	fff00093          	li	ra,-1
    1efc:	00100113          	li	sp,1
    1f00:	002091b3          	sll	gp,ra,sp
    1f04:	ffe00793          	li	a5,-2
    1f08:	00800713          	li	a4,8
    1f0c:	4cf19463          	bne	gp,a5,23d4 <fail>

00001f10 <test_9>:
    1f10:	fff00093          	li	ra,-1
    1f14:	00700113          	li	sp,7
    1f18:	002091b3          	sll	gp,ra,sp
    1f1c:	f8000793          	li	a5,-128
    1f20:	00900713          	li	a4,9
    1f24:	4af19863          	bne	gp,a5,23d4 <fail>

00001f28 <test_10>:
    1f28:	fff00093          	li	ra,-1
    1f2c:	00e00113          	li	sp,14
    1f30:	002091b3          	sll	gp,ra,sp
    1f34:	ffffc7b7          	lui	a5,0xffffc
    1f38:	00a00713          	li	a4,10
    1f3c:	48f19c63          	bne	gp,a5,23d4 <fail>

00001f40 <test_11>:
    1f40:	fff00093          	li	ra,-1
    1f44:	01f00113          	li	sp,31
    1f48:	002091b3          	sll	gp,ra,sp
    1f4c:	800007b7          	lui	a5,0x80000
    1f50:	00b00713          	li	a4,11
    1f54:	48f19063          	bne	gp,a5,23d4 <fail>

00001f58 <test_12>:
    1f58:	212120b7          	lui	ra,0x21212
    1f5c:	12108093          	addi	ra,ra,289 # 21212121 <tdat10+0x21209c24>
    1f60:	00000113          	li	sp,0
    1f64:	002091b3          	sll	gp,ra,sp
    1f68:	212127b7          	lui	a5,0x21212
    1f6c:	12178793          	addi	a5,a5,289 # 21212121 <tdat10+0x21209c24>
    1f70:	00c00713          	li	a4,12
    1f74:	46f19063          	bne	gp,a5,23d4 <fail>

00001f78 <test_13>:
    1f78:	212120b7          	lui	ra,0x21212
    1f7c:	12108093          	addi	ra,ra,289 # 21212121 <tdat10+0x21209c24>
    1f80:	00100113          	li	sp,1
    1f84:	002091b3          	sll	gp,ra,sp
    1f88:	424247b7          	lui	a5,0x42424
    1f8c:	24278793          	addi	a5,a5,578 # 42424242 <tdat10+0x4241bd45>
    1f90:	00d00713          	li	a4,13
    1f94:	44f19063          	bne	gp,a5,23d4 <fail>

00001f98 <test_14>:
    1f98:	212120b7          	lui	ra,0x21212
    1f9c:	12108093          	addi	ra,ra,289 # 21212121 <tdat10+0x21209c24>
    1fa0:	00700113          	li	sp,7
    1fa4:	002091b3          	sll	gp,ra,sp
    1fa8:	909097b7          	lui	a5,0x90909
    1fac:	08078793          	addi	a5,a5,128 # 90909080 <io+0x10909080>
    1fb0:	00e00713          	li	a4,14
    1fb4:	42f19063          	bne	gp,a5,23d4 <fail>

00001fb8 <test_15>:
    1fb8:	212120b7          	lui	ra,0x21212
    1fbc:	12108093          	addi	ra,ra,289 # 21212121 <tdat10+0x21209c24>
    1fc0:	00e00113          	li	sp,14
    1fc4:	002091b3          	sll	gp,ra,sp
    1fc8:	484847b7          	lui	a5,0x48484
    1fcc:	00f00713          	li	a4,15
    1fd0:	40f19263          	bne	gp,a5,23d4 <fail>

00001fd4 <test_16>:
    1fd4:	212120b7          	lui	ra,0x21212
    1fd8:	12108093          	addi	ra,ra,289 # 21212121 <tdat10+0x21209c24>
    1fdc:	01f00113          	li	sp,31
    1fe0:	002091b3          	sll	gp,ra,sp
    1fe4:	800007b7          	lui	a5,0x80000
    1fe8:	01000713          	li	a4,16
    1fec:	3ef19463          	bne	gp,a5,23d4 <fail>

00001ff0 <test_17>:
    1ff0:	212120b7          	lui	ra,0x21212
    1ff4:	12108093          	addi	ra,ra,289 # 21212121 <tdat10+0x21209c24>
    1ff8:	fe000113          	li	sp,-32
    1ffc:	002091b3          	sll	gp,ra,sp
    2000:	212127b7          	lui	a5,0x21212
    2004:	12178793          	addi	a5,a5,289 # 21212121 <tdat10+0x21209c24>
    2008:	01100713          	li	a4,17
    200c:	3cf19463          	bne	gp,a5,23d4 <fail>

00002010 <test_18>:
    2010:	212120b7          	lui	ra,0x21212
    2014:	12108093          	addi	ra,ra,289 # 21212121 <tdat10+0x21209c24>
    2018:	fe100113          	li	sp,-31
    201c:	002091b3          	sll	gp,ra,sp
    2020:	424247b7          	lui	a5,0x42424
    2024:	24278793          	addi	a5,a5,578 # 42424242 <tdat10+0x4241bd45>
    2028:	01200713          	li	a4,18
    202c:	3af19463          	bne	gp,a5,23d4 <fail>

00002030 <test_19>:
    2030:	212120b7          	lui	ra,0x21212
    2034:	12108093          	addi	ra,ra,289 # 21212121 <tdat10+0x21209c24>
    2038:	fe700113          	li	sp,-25
    203c:	002091b3          	sll	gp,ra,sp
    2040:	909097b7          	lui	a5,0x90909
    2044:	08078793          	addi	a5,a5,128 # 90909080 <io+0x10909080>
    2048:	01300713          	li	a4,19
    204c:	38f19463          	bne	gp,a5,23d4 <fail>

00002050 <test_20>:
    2050:	212120b7          	lui	ra,0x21212
    2054:	12108093          	addi	ra,ra,289 # 21212121 <tdat10+0x21209c24>
    2058:	fee00113          	li	sp,-18
    205c:	002091b3          	sll	gp,ra,sp
    2060:	484847b7          	lui	a5,0x48484
    2064:	01400713          	li	a4,20
    2068:	36f19663          	bne	gp,a5,23d4 <fail>

0000206c <test_21>:
    206c:	212120b7          	lui	ra,0x21212
    2070:	12008093          	addi	ra,ra,288 # 21212120 <tdat10+0x21209c23>
    2074:	fff00113          	li	sp,-1
    2078:	002091b3          	sll	gp,ra,sp
    207c:	00000793          	li	a5,0
    2080:	01500713          	li	a4,21
    2084:	34f19863          	bne	gp,a5,23d4 <fail>

00002088 <test_22>:
    2088:	00100093          	li	ra,1
    208c:	00700113          	li	sp,7
    2090:	002090b3          	sll	ra,ra,sp
    2094:	08000793          	li	a5,128
    2098:	01600713          	li	a4,22
    209c:	32f09c63          	bne	ra,a5,23d4 <fail>

000020a0 <test_23>:
    20a0:	00100093          	li	ra,1
    20a4:	00e00113          	li	sp,14
    20a8:	00209133          	sll	sp,ra,sp
    20ac:	000047b7          	lui	a5,0x4
    20b0:	01700713          	li	a4,23
    20b4:	32f11063          	bne	sp,a5,23d4 <fail>

000020b8 <test_24>:
    20b8:	00300093          	li	ra,3
    20bc:	001090b3          	sll	ra,ra,ra
    20c0:	01800793          	li	a5,24
    20c4:	01800713          	li	a4,24
    20c8:	30f09663          	bne	ra,a5,23d4 <fail>

000020cc <test_25>:
    20cc:	00000213          	li	tp,0
    20d0:	00100093          	li	ra,1
    20d4:	00700113          	li	sp,7
    20d8:	002091b3          	sll	gp,ra,sp
    20dc:	00018313          	mv	t1,gp
    20e0:	00120213          	addi	tp,tp,1 # 1 <boot+0x1>
    20e4:	00200293          	li	t0,2
    20e8:	fe5214e3          	bne	tp,t0,20d0 <test_25+0x4>
    20ec:	08000793          	li	a5,128
    20f0:	01900713          	li	a4,25
    20f4:	2ef31063          	bne	t1,a5,23d4 <fail>

000020f8 <test_26>:
    20f8:	00000213          	li	tp,0
    20fc:	00100093          	li	ra,1
    2100:	00e00113          	li	sp,14
    2104:	002091b3          	sll	gp,ra,sp
    2108:	00000013          	nop
    210c:	00018313          	mv	t1,gp
    2110:	00120213          	addi	tp,tp,1 # 1 <boot+0x1>
    2114:	00200293          	li	t0,2
    2118:	fe5212e3          	bne	tp,t0,20fc <test_26+0x4>
    211c:	000047b7          	lui	a5,0x4
    2120:	01a00713          	li	a4,26
    2124:	2af31863          	bne	t1,a5,23d4 <fail>

00002128 <test_27>:
    2128:	00000213          	li	tp,0
    212c:	00100093          	li	ra,1
    2130:	01f00113          	li	sp,31
    2134:	002091b3          	sll	gp,ra,sp
    2138:	00000013          	nop
    213c:	00000013          	nop
    2140:	00018313          	mv	t1,gp
    2144:	00120213          	addi	tp,tp,1 # 1 <boot+0x1>
    2148:	00200293          	li	t0,2
    214c:	fe5210e3          	bne	tp,t0,212c <test_27+0x4>
    2150:	800007b7          	lui	a5,0x80000
    2154:	01b00713          	li	a4,27
    2158:	26f31e63          	bne	t1,a5,23d4 <fail>

0000215c <test_28>:
    215c:	00000213          	li	tp,0
    2160:	00100093          	li	ra,1
    2164:	00700113          	li	sp,7
    2168:	002091b3          	sll	gp,ra,sp
    216c:	00120213          	addi	tp,tp,1 # 1 <boot+0x1>
    2170:	00200293          	li	t0,2
    2174:	fe5216e3          	bne	tp,t0,2160 <test_28+0x4>
    2178:	08000793          	li	a5,128
    217c:	01c00713          	li	a4,28
    2180:	24f19a63          	bne	gp,a5,23d4 <fail>

00002184 <test_29>:
    2184:	00000213          	li	tp,0
    2188:	00100093          	li	ra,1
    218c:	00e00113          	li	sp,14
    2190:	00000013          	nop
    2194:	002091b3          	sll	gp,ra,sp
    2198:	00120213          	addi	tp,tp,1 # 1 <boot+0x1>
    219c:	00200293          	li	t0,2
    21a0:	fe5214e3          	bne	tp,t0,2188 <test_29+0x4>
    21a4:	000047b7          	lui	a5,0x4
    21a8:	01d00713          	li	a4,29
    21ac:	22f19463          	bne	gp,a5,23d4 <fail>

000021b0 <test_30>:
    21b0:	00000213          	li	tp,0
    21b4:	00100093          	li	ra,1
    21b8:	01f00113          	li	sp,31
    21bc:	00000013          	nop
    21c0:	00000013          	nop
    21c4:	002091b3          	sll	gp,ra,sp
    21c8:	00120213          	addi	tp,tp,1 # 1 <boot+0x1>
    21cc:	00200293          	li	t0,2
    21d0:	fe5212e3          	bne	tp,t0,21b4 <test_30+0x4>
    21d4:	800007b7          	lui	a5,0x80000
    21d8:	01e00713          	li	a4,30
    21dc:	1ef19c63          	bne	gp,a5,23d4 <fail>

000021e0 <test_31>:
    21e0:	00000213          	li	tp,0
    21e4:	00100093          	li	ra,1
    21e8:	00000013          	nop
    21ec:	00700113          	li	sp,7
    21f0:	002091b3          	sll	gp,ra,sp
    21f4:	00120213          	addi	tp,tp,1 # 1 <boot+0x1>
    21f8:	00200293          	li	t0,2
    21fc:	fe5214e3          	bne	tp,t0,21e4 <test_31+0x4>
    2200:	08000793          	li	a5,128
    2204:	01f00713          	li	a4,31
    2208:	1cf19663          	bne	gp,a5,23d4 <fail>

0000220c <test_32>:
    220c:	00000213          	li	tp,0
    2210:	00100093          	li	ra,1
    2214:	00000013          	nop
    2218:	00e00113          	li	sp,14
    221c:	00000013          	nop
    2220:	002091b3          	sll	gp,ra,sp
    2224:	00120213          	addi	tp,tp,1 # 1 <boot+0x1>
    2228:	00200293          	li	t0,2
    222c:	fe5212e3          	bne	tp,t0,2210 <test_32+0x4>
    2230:	000047b7          	lui	a5,0x4
    2234:	02000713          	li	a4,32
    2238:	18f19e63          	bne	gp,a5,23d4 <fail>

0000223c <test_33>:
    223c:	00000213          	li	tp,0
    2240:	00100093          	li	ra,1
    2244:	00000013          	nop
    2248:	00000013          	nop
    224c:	01f00113          	li	sp,31
    2250:	002091b3          	sll	gp,ra,sp
    2254:	00120213          	addi	tp,tp,1 # 1 <boot+0x1>
    2258:	00200293          	li	t0,2
    225c:	fe5212e3          	bne	tp,t0,2240 <test_33+0x4>
    2260:	800007b7          	lui	a5,0x80000
    2264:	02100713          	li	a4,33
    2268:	16f19663          	bne	gp,a5,23d4 <fail>

0000226c <test_34>:
    226c:	00000213          	li	tp,0
    2270:	00700113          	li	sp,7
    2274:	00100093          	li	ra,1
    2278:	002091b3          	sll	gp,ra,sp
    227c:	00120213          	addi	tp,tp,1 # 1 <boot+0x1>
    2280:	00200293          	li	t0,2
    2284:	fe5216e3          	bne	tp,t0,2270 <test_34+0x4>
    2288:	08000793          	li	a5,128
    228c:	02200713          	li	a4,34
    2290:	14f19263          	bne	gp,a5,23d4 <fail>

00002294 <test_35>:
    2294:	00000213          	li	tp,0
    2298:	00e00113          	li	sp,14
    229c:	00100093          	li	ra,1
    22a0:	00000013          	nop
    22a4:	002091b3          	sll	gp,ra,sp
    22a8:	00120213          	addi	tp,tp,1 # 1 <boot+0x1>
    22ac:	00200293          	li	t0,2
    22b0:	fe5214e3          	bne	tp,t0,2298 <test_35+0x4>
    22b4:	000047b7          	lui	a5,0x4
    22b8:	02300713          	li	a4,35
    22bc:	10f19c63          	bne	gp,a5,23d4 <fail>

000022c0 <test_36>:
    22c0:	00000213          	li	tp,0
    22c4:	01f00113          	li	sp,31
    22c8:	00100093          	li	ra,1
    22cc:	00000013          	nop
    22d0:	00000013          	nop
    22d4:	002091b3          	sll	gp,ra,sp
    22d8:	00120213          	addi	tp,tp,1 # 1 <boot+0x1>
    22dc:	00200293          	li	t0,2
    22e0:	fe5212e3          	bne	tp,t0,22c4 <test_36+0x4>
    22e4:	800007b7          	lui	a5,0x80000
    22e8:	02400713          	li	a4,36
    22ec:	0ef19463          	bne	gp,a5,23d4 <fail>

000022f0 <test_37>:
    22f0:	00000213          	li	tp,0
    22f4:	00700113          	li	sp,7
    22f8:	00000013          	nop
    22fc:	00100093          	li	ra,1
    2300:	002091b3          	sll	gp,ra,sp
    2304:	00120213          	addi	tp,tp,1 # 1 <boot+0x1>
    2308:	00200293          	li	t0,2
    230c:	fe5214e3          	bne	tp,t0,22f4 <test_37+0x4>
    2310:	08000793          	li	a5,128
    2314:	02500713          	li	a4,37
    2318:	0af19e63          	bne	gp,a5,23d4 <fail>

0000231c <test_38>:
    231c:	00000213          	li	tp,0
    2320:	00e00113          	li	sp,14
    2324:	00000013          	nop
    2328:	00100093          	li	ra,1
    232c:	00000013          	nop
    2330:	002091b3          	sll	gp,ra,sp
    2334:	00120213          	addi	tp,tp,1 # 1 <boot+0x1>
    2338:	00200293          	li	t0,2
    233c:	fe5212e3          	bne	tp,t0,2320 <test_38+0x4>
    2340:	000047b7          	lui	a5,0x4
    2344:	02600713          	li	a4,38
    2348:	08f19663          	bne	gp,a5,23d4 <fail>

0000234c <test_39>:
    234c:	00000213          	li	tp,0
    2350:	01f00113          	li	sp,31
    2354:	00000013          	nop
    2358:	00000013          	nop
    235c:	00100093          	li	ra,1
    2360:	002091b3          	sll	gp,ra,sp
    2364:	00120213          	addi	tp,tp,1 # 1 <boot+0x1>
    2368:	00200293          	li	t0,2
    236c:	fe5212e3          	bne	tp,t0,2350 <test_39+0x4>
    2370:	800007b7          	lui	a5,0x80000
    2374:	02700713          	li	a4,39
    2378:	04f19e63          	bne	gp,a5,23d4 <fail>

0000237c <test_40>:
    237c:	00f00093          	li	ra,15
    2380:	00101133          	sll	sp,zero,ra
    2384:	00000793          	li	a5,0
    2388:	02800713          	li	a4,40
    238c:	04f11463          	bne	sp,a5,23d4 <fail>

00002390 <test_41>:
    2390:	02000093          	li	ra,32
    2394:	00009133          	sll	sp,ra,zero
    2398:	02000793          	li	a5,32
    239c:	02900713          	li	a4,41
    23a0:	02f11a63          	bne	sp,a5,23d4 <fail>

000023a4 <test_42>:
    23a4:	000010b3          	sll	ra,zero,zero
    23a8:	00000793          	li	a5,0
    23ac:	02a00713          	li	a4,42
    23b0:	02f09263          	bne	ra,a5,23d4 <fail>

000023b4 <test_43>:
    23b4:	40000093          	li	ra,1024
    23b8:	00001137          	lui	sp,0x1
    23bc:	80010113          	addi	sp,sp,-2048 # 800 <usleep+0x20>
    23c0:	00209033          	sll	zero,ra,sp
    23c4:	00000793          	li	a5,0
    23c8:	02b00713          	li	a4,43
    23cc:	00f01463          	bne	zero,a5,23d4 <fail>
    23d0:	00e01663          	bne	zero,a4,23dc <pass>

000023d4 <fail>:
    23d4:	d04fe0ef          	jal	ra,8d8 <failure>
    23d8:	00100073          	ebreak

000023dc <pass>:
    23dc:	00009137          	lui	sp,0x9
    23e0:	d04fe0ef          	jal	ra,8e4 <OK>
    23e4:	e3cfe06f          	j	a20 <sll_ret>

000023e8 <lb>:
    23e8:	00002537          	lui	a0,0x2
    23ec:	40850513          	addi	a0,a0,1032 # 2408 <.test_name>

000023f0 <loop>:
    23f0:	e6dfd0ef          	jal	ra,25c <putstr>

000023f4 <.prname_next>:
    23f4:	00050583          	lb	a1,0(a0)
    23f8:	00058a63          	beqz	a1,240c <.prname_done>
    23fc:	00b62023          	sw	a1,0(a2)
    2400:	00150513          	addi	a0,a0,1
    2404:	ff1ff06f          	j	23f4 <.prname_next>

00002408 <.test_name>:
    2408:	626c                	flw	fa1,68(a2)
	...

0000240c <.prname_done>:
    240c:	02e00593          	li	a1,46
    2410:	00b62023          	sw	a1,0(a2)
    2414:	00b62023          	sw	a1,0(a2)

00002418 <test_2>:
    2418:	00006097          	auipc	ra,0x6
    241c:	08c08093          	addi	ra,ra,140 # 84a4 <tdat>
    2420:	00008183          	lb	gp,0(ra)
    2424:	fff00793          	li	a5,-1
    2428:	00200713          	li	a4,2
    242c:	22f19c63          	bne	gp,a5,2664 <fail>

00002430 <test_3>:
    2430:	00006097          	auipc	ra,0x6
    2434:	07408093          	addi	ra,ra,116 # 84a4 <tdat>
    2438:	00108183          	lb	gp,1(ra)
    243c:	00000793          	li	a5,0
    2440:	00300713          	li	a4,3
    2444:	22f19063          	bne	gp,a5,2664 <fail>

00002448 <test_4>:
    2448:	00006097          	auipc	ra,0x6
    244c:	05c08093          	addi	ra,ra,92 # 84a4 <tdat>
    2450:	00208183          	lb	gp,2(ra)
    2454:	ff000793          	li	a5,-16
    2458:	00400713          	li	a4,4
    245c:	20f19463          	bne	gp,a5,2664 <fail>

00002460 <test_5>:
    2460:	00006097          	auipc	ra,0x6
    2464:	04408093          	addi	ra,ra,68 # 84a4 <tdat>
    2468:	00308183          	lb	gp,3(ra)
    246c:	00f00793          	li	a5,15
    2470:	00500713          	li	a4,5
    2474:	1ef19863          	bne	gp,a5,2664 <fail>

00002478 <test_6>:
    2478:	00006097          	auipc	ra,0x6
    247c:	02f08093          	addi	ra,ra,47 # 84a7 <tdat4>
    2480:	ffd08183          	lb	gp,-3(ra)
    2484:	fff00793          	li	a5,-1
    2488:	00600713          	li	a4,6
    248c:	1cf19c63          	bne	gp,a5,2664 <fail>

00002490 <test_7>:
    2490:	00006097          	auipc	ra,0x6
    2494:	01708093          	addi	ra,ra,23 # 84a7 <tdat4>
    2498:	ffe08183          	lb	gp,-2(ra)
    249c:	00000793          	li	a5,0
    24a0:	00700713          	li	a4,7
    24a4:	1cf19063          	bne	gp,a5,2664 <fail>

000024a8 <test_8>:
    24a8:	00006097          	auipc	ra,0x6
    24ac:	fff08093          	addi	ra,ra,-1 # 84a7 <tdat4>
    24b0:	fff08183          	lb	gp,-1(ra)
    24b4:	ff000793          	li	a5,-16
    24b8:	00800713          	li	a4,8
    24bc:	1af19463          	bne	gp,a5,2664 <fail>

000024c0 <test_9>:
    24c0:	00006097          	auipc	ra,0x6
    24c4:	fe708093          	addi	ra,ra,-25 # 84a7 <tdat4>
    24c8:	00008183          	lb	gp,0(ra)
    24cc:	00f00793          	li	a5,15
    24d0:	00900713          	li	a4,9
    24d4:	18f19863          	bne	gp,a5,2664 <fail>

000024d8 <test_10>:
    24d8:	00006097          	auipc	ra,0x6
    24dc:	fcc08093          	addi	ra,ra,-52 # 84a4 <tdat>
    24e0:	fe008093          	addi	ra,ra,-32
    24e4:	02008183          	lb	gp,32(ra)
    24e8:	fff00793          	li	a5,-1
    24ec:	00a00713          	li	a4,10
    24f0:	16f19a63          	bne	gp,a5,2664 <fail>

000024f4 <test_11>:
    24f4:	00006097          	auipc	ra,0x6
    24f8:	fb008093          	addi	ra,ra,-80 # 84a4 <tdat>
    24fc:	ffa08093          	addi	ra,ra,-6
    2500:	00708183          	lb	gp,7(ra)
    2504:	00000793          	li	a5,0
    2508:	00b00713          	li	a4,11
    250c:	14f19c63          	bne	gp,a5,2664 <fail>

00002510 <test_12>:
    2510:	00c00713          	li	a4,12
    2514:	00000213          	li	tp,0
    2518:	00006097          	auipc	ra,0x6
    251c:	f8d08093          	addi	ra,ra,-115 # 84a5 <tdat2>
    2520:	00108183          	lb	gp,1(ra)
    2524:	00018313          	mv	t1,gp
    2528:	ff000793          	li	a5,-16
    252c:	12f31c63          	bne	t1,a5,2664 <fail>
    2530:	00120213          	addi	tp,tp,1 # 1 <boot+0x1>
    2534:	00200293          	li	t0,2
    2538:	fe5210e3          	bne	tp,t0,2518 <test_12+0x8>

0000253c <test_13>:
    253c:	00d00713          	li	a4,13
    2540:	00000213          	li	tp,0
    2544:	00006097          	auipc	ra,0x6
    2548:	f6208093          	addi	ra,ra,-158 # 84a6 <tdat3>
    254c:	00108183          	lb	gp,1(ra)
    2550:	00000013          	nop
    2554:	00018313          	mv	t1,gp
    2558:	00f00793          	li	a5,15
    255c:	10f31463          	bne	t1,a5,2664 <fail>
    2560:	00120213          	addi	tp,tp,1 # 1 <boot+0x1>
    2564:	00200293          	li	t0,2
    2568:	fc521ee3          	bne	tp,t0,2544 <test_13+0x8>

0000256c <test_14>:
    256c:	00e00713          	li	a4,14
    2570:	00000213          	li	tp,0
    2574:	00006097          	auipc	ra,0x6
    2578:	f3008093          	addi	ra,ra,-208 # 84a4 <tdat>
    257c:	00108183          	lb	gp,1(ra)
    2580:	00000013          	nop
    2584:	00000013          	nop
    2588:	00018313          	mv	t1,gp
    258c:	00000793          	li	a5,0
    2590:	0cf31a63          	bne	t1,a5,2664 <fail>
    2594:	00120213          	addi	tp,tp,1 # 1 <boot+0x1>
    2598:	00200293          	li	t0,2
    259c:	fc521ce3          	bne	tp,t0,2574 <test_14+0x8>

000025a0 <test_15>:
    25a0:	00f00713          	li	a4,15
    25a4:	00000213          	li	tp,0
    25a8:	00006097          	auipc	ra,0x6
    25ac:	efd08093          	addi	ra,ra,-259 # 84a5 <tdat2>
    25b0:	00108183          	lb	gp,1(ra)
    25b4:	ff000793          	li	a5,-16
    25b8:	0af19663          	bne	gp,a5,2664 <fail>
    25bc:	00120213          	addi	tp,tp,1 # 1 <boot+0x1>
    25c0:	00200293          	li	t0,2
    25c4:	fe5212e3          	bne	tp,t0,25a8 <test_15+0x8>

000025c8 <test_16>:
    25c8:	01000713          	li	a4,16
    25cc:	00000213          	li	tp,0
    25d0:	00006097          	auipc	ra,0x6
    25d4:	ed608093          	addi	ra,ra,-298 # 84a6 <tdat3>
    25d8:	00000013          	nop
    25dc:	00108183          	lb	gp,1(ra)
    25e0:	00f00793          	li	a5,15
    25e4:	08f19063          	bne	gp,a5,2664 <fail>
    25e8:	00120213          	addi	tp,tp,1 # 1 <boot+0x1>
    25ec:	00200293          	li	t0,2
    25f0:	fe5210e3          	bne	tp,t0,25d0 <test_16+0x8>

000025f4 <test_17>:
    25f4:	01100713          	li	a4,17
    25f8:	00000213          	li	tp,0
    25fc:	00006097          	auipc	ra,0x6
    2600:	ea808093          	addi	ra,ra,-344 # 84a4 <tdat>
    2604:	00000013          	nop
    2608:	00000013          	nop
    260c:	00108183          	lb	gp,1(ra)
    2610:	00000793          	li	a5,0
    2614:	04f19863          	bne	gp,a5,2664 <fail>
    2618:	00120213          	addi	tp,tp,1 # 1 <boot+0x1>
    261c:	00200293          	li	t0,2
    2620:	fc521ee3          	bne	tp,t0,25fc <test_17+0x8>

00002624 <test_18>:
    2624:	00006197          	auipc	gp,0x6
    2628:	e8018193          	addi	gp,gp,-384 # 84a4 <tdat>
    262c:	00018103          	lb	sp,0(gp)
    2630:	00200113          	li	sp,2
    2634:	00200793          	li	a5,2
    2638:	01200713          	li	a4,18
    263c:	02f11463          	bne	sp,a5,2664 <fail>

00002640 <test_19>:
    2640:	00006197          	auipc	gp,0x6
    2644:	e6418193          	addi	gp,gp,-412 # 84a4 <tdat>
    2648:	00018103          	lb	sp,0(gp)
    264c:	00000013          	nop
    2650:	00200113          	li	sp,2
    2654:	00200793          	li	a5,2
    2658:	01300713          	li	a4,19
    265c:	00f11463          	bne	sp,a5,2664 <fail>
    2660:	00e01663          	bne	zero,a4,266c <pass>

00002664 <fail>:
    2664:	a74fe0ef          	jal	ra,8d8 <failure>
    2668:	00100073          	ebreak

0000266c <pass>:
    266c:	00009137          	lui	sp,0x9
    2670:	a74fe0ef          	jal	ra,8e4 <OK>
    2674:	b1cfe06f          	j	990 <lb_ret>

00002678 <lh>:
    2678:	00002537          	lui	a0,0x2
    267c:	69850513          	addi	a0,a0,1688 # 2698 <.test_name>

00002680 <loop>:
    2680:	bddfd0ef          	jal	ra,25c <putstr>

00002684 <.prname_next>:
    2684:	00050583          	lb	a1,0(a0)
    2688:	00058a63          	beqz	a1,269c <.prname_done>
    268c:	00b62023          	sw	a1,0(a2)
    2690:	00150513          	addi	a0,a0,1
    2694:	ff1ff06f          	j	2684 <.prname_next>

00002698 <.test_name>:
    2698:	686c                	flw	fa1,84(s0)
	...

0000269c <.prname_done>:
    269c:	02e00593          	li	a1,46
    26a0:	00b62023          	sw	a1,0(a2)
    26a4:	00b62023          	sw	a1,0(a2)

000026a8 <test_2>:
    26a8:	00006097          	auipc	ra,0x6
    26ac:	e0008093          	addi	ra,ra,-512 # 84a8 <tdat>
    26b0:	00009183          	lh	gp,0(ra)
    26b4:	0ff00793          	li	a5,255
    26b8:	00200713          	li	a4,2
    26bc:	24f19c63          	bne	gp,a5,2914 <fail>

000026c0 <test_3>:
    26c0:	00006097          	auipc	ra,0x6
    26c4:	de808093          	addi	ra,ra,-536 # 84a8 <tdat>
    26c8:	00209183          	lh	gp,2(ra)
    26cc:	f0000793          	li	a5,-256
    26d0:	00300713          	li	a4,3
    26d4:	24f19063          	bne	gp,a5,2914 <fail>

000026d8 <test_4>:
    26d8:	00006097          	auipc	ra,0x6
    26dc:	dd008093          	addi	ra,ra,-560 # 84a8 <tdat>
    26e0:	00409183          	lh	gp,4(ra)
    26e4:	000017b7          	lui	a5,0x1
    26e8:	ff078793          	addi	a5,a5,-16 # ff0 <test_4+0x4>
    26ec:	00400713          	li	a4,4
    26f0:	22f19263          	bne	gp,a5,2914 <fail>

000026f4 <test_5>:
    26f4:	00006097          	auipc	ra,0x6
    26f8:	db408093          	addi	ra,ra,-588 # 84a8 <tdat>
    26fc:	00609183          	lh	gp,6(ra)
    2700:	fffff7b7          	lui	a5,0xfffff
    2704:	00f78793          	addi	a5,a5,15 # fffff00f <io+0x7ffff00f>
    2708:	00500713          	li	a4,5
    270c:	20f19463          	bne	gp,a5,2914 <fail>

00002710 <test_6>:
    2710:	00006097          	auipc	ra,0x6
    2714:	d9e08093          	addi	ra,ra,-610 # 84ae <tdat4>
    2718:	ffa09183          	lh	gp,-6(ra)
    271c:	0ff00793          	li	a5,255
    2720:	00600713          	li	a4,6
    2724:	1ef19863          	bne	gp,a5,2914 <fail>

00002728 <test_7>:
    2728:	00006097          	auipc	ra,0x6
    272c:	d8608093          	addi	ra,ra,-634 # 84ae <tdat4>
    2730:	ffc09183          	lh	gp,-4(ra)
    2734:	f0000793          	li	a5,-256
    2738:	00700713          	li	a4,7
    273c:	1cf19c63          	bne	gp,a5,2914 <fail>

00002740 <test_8>:
    2740:	00006097          	auipc	ra,0x6
    2744:	d6e08093          	addi	ra,ra,-658 # 84ae <tdat4>
    2748:	ffe09183          	lh	gp,-2(ra)
    274c:	000017b7          	lui	a5,0x1
    2750:	ff078793          	addi	a5,a5,-16 # ff0 <test_4+0x4>
    2754:	00800713          	li	a4,8
    2758:	1af19e63          	bne	gp,a5,2914 <fail>

0000275c <test_9>:
    275c:	00006097          	auipc	ra,0x6
    2760:	d5208093          	addi	ra,ra,-686 # 84ae <tdat4>
    2764:	00009183          	lh	gp,0(ra)
    2768:	fffff7b7          	lui	a5,0xfffff
    276c:	00f78793          	addi	a5,a5,15 # fffff00f <io+0x7ffff00f>
    2770:	00900713          	li	a4,9
    2774:	1af19063          	bne	gp,a5,2914 <fail>

00002778 <test_10>:
    2778:	00006097          	auipc	ra,0x6
    277c:	d3008093          	addi	ra,ra,-720 # 84a8 <tdat>
    2780:	fe008093          	addi	ra,ra,-32
    2784:	02009183          	lh	gp,32(ra)
    2788:	0ff00793          	li	a5,255
    278c:	00a00713          	li	a4,10
    2790:	18f19263          	bne	gp,a5,2914 <fail>

00002794 <test_11>:
    2794:	00006097          	auipc	ra,0x6
    2798:	d1408093          	addi	ra,ra,-748 # 84a8 <tdat>
    279c:	ffb08093          	addi	ra,ra,-5
    27a0:	00709183          	lh	gp,7(ra)
    27a4:	f0000793          	li	a5,-256
    27a8:	00b00713          	li	a4,11
    27ac:	16f19463          	bne	gp,a5,2914 <fail>

000027b0 <test_12>:
    27b0:	00c00713          	li	a4,12
    27b4:	00000213          	li	tp,0
    27b8:	00006097          	auipc	ra,0x6
    27bc:	cf208093          	addi	ra,ra,-782 # 84aa <tdat2>
    27c0:	00209183          	lh	gp,2(ra)
    27c4:	00018313          	mv	t1,gp
    27c8:	000017b7          	lui	a5,0x1
    27cc:	ff078793          	addi	a5,a5,-16 # ff0 <test_4+0x4>
    27d0:	14f31263          	bne	t1,a5,2914 <fail>
    27d4:	00120213          	addi	tp,tp,1 # 1 <boot+0x1>
    27d8:	00200293          	li	t0,2
    27dc:	fc521ee3          	bne	tp,t0,27b8 <test_12+0x8>

000027e0 <test_13>:
    27e0:	00d00713          	li	a4,13
    27e4:	00000213          	li	tp,0
    27e8:	00006097          	auipc	ra,0x6
    27ec:	cc408093          	addi	ra,ra,-828 # 84ac <tdat3>
    27f0:	00209183          	lh	gp,2(ra)
    27f4:	00000013          	nop
    27f8:	00018313          	mv	t1,gp
    27fc:	fffff7b7          	lui	a5,0xfffff
    2800:	00f78793          	addi	a5,a5,15 # fffff00f <io+0x7ffff00f>
    2804:	10f31863          	bne	t1,a5,2914 <fail>
    2808:	00120213          	addi	tp,tp,1 # 1 <boot+0x1>
    280c:	00200293          	li	t0,2
    2810:	fc521ce3          	bne	tp,t0,27e8 <test_13+0x8>

00002814 <test_14>:
    2814:	00e00713          	li	a4,14
    2818:	00000213          	li	tp,0
    281c:	00006097          	auipc	ra,0x6
    2820:	c8c08093          	addi	ra,ra,-884 # 84a8 <tdat>
    2824:	00209183          	lh	gp,2(ra)
    2828:	00000013          	nop
    282c:	00000013          	nop
    2830:	00018313          	mv	t1,gp
    2834:	f0000793          	li	a5,-256
    2838:	0cf31e63          	bne	t1,a5,2914 <fail>
    283c:	00120213          	addi	tp,tp,1 # 1 <boot+0x1>
    2840:	00200293          	li	t0,2
    2844:	fc521ce3          	bne	tp,t0,281c <test_14+0x8>

00002848 <test_15>:
    2848:	00f00713          	li	a4,15
    284c:	00000213          	li	tp,0
    2850:	00006097          	auipc	ra,0x6
    2854:	c5a08093          	addi	ra,ra,-934 # 84aa <tdat2>
    2858:	00209183          	lh	gp,2(ra)
    285c:	000017b7          	lui	a5,0x1
    2860:	ff078793          	addi	a5,a5,-16 # ff0 <test_4+0x4>
    2864:	0af19863          	bne	gp,a5,2914 <fail>
    2868:	00120213          	addi	tp,tp,1 # 1 <boot+0x1>
    286c:	00200293          	li	t0,2
    2870:	fe5210e3          	bne	tp,t0,2850 <test_15+0x8>

00002874 <test_16>:
    2874:	01000713          	li	a4,16
    2878:	00000213          	li	tp,0
    287c:	00006097          	auipc	ra,0x6
    2880:	c3008093          	addi	ra,ra,-976 # 84ac <tdat3>
    2884:	00000013          	nop
    2888:	00209183          	lh	gp,2(ra)
    288c:	fffff7b7          	lui	a5,0xfffff
    2890:	00f78793          	addi	a5,a5,15 # fffff00f <io+0x7ffff00f>
    2894:	08f19063          	bne	gp,a5,2914 <fail>
    2898:	00120213          	addi	tp,tp,1 # 1 <boot+0x1>
    289c:	00200293          	li	t0,2
    28a0:	fc521ee3          	bne	tp,t0,287c <test_16+0x8>

000028a4 <test_17>:
    28a4:	01100713          	li	a4,17
    28a8:	00000213          	li	tp,0
    28ac:	00006097          	auipc	ra,0x6
    28b0:	bfc08093          	addi	ra,ra,-1028 # 84a8 <tdat>
    28b4:	00000013          	nop
    28b8:	00000013          	nop
    28bc:	00209183          	lh	gp,2(ra)
    28c0:	f0000793          	li	a5,-256
    28c4:	04f19863          	bne	gp,a5,2914 <fail>
    28c8:	00120213          	addi	tp,tp,1 # 1 <boot+0x1>
    28cc:	00200293          	li	t0,2
    28d0:	fc521ee3          	bne	tp,t0,28ac <test_17+0x8>

000028d4 <test_18>:
    28d4:	00006197          	auipc	gp,0x6
    28d8:	bd418193          	addi	gp,gp,-1068 # 84a8 <tdat>
    28dc:	00019103          	lh	sp,0(gp)
    28e0:	00200113          	li	sp,2
    28e4:	00200793          	li	a5,2
    28e8:	01200713          	li	a4,18
    28ec:	02f11463          	bne	sp,a5,2914 <fail>

000028f0 <test_19>:
    28f0:	00006197          	auipc	gp,0x6
    28f4:	bb818193          	addi	gp,gp,-1096 # 84a8 <tdat>
    28f8:	00019103          	lh	sp,0(gp)
    28fc:	00000013          	nop
    2900:	00200113          	li	sp,2
    2904:	00200793          	li	a5,2
    2908:	01300713          	li	a4,19
    290c:	00f11463          	bne	sp,a5,2914 <fail>
    2910:	00e01663          	bne	zero,a4,291c <pass>

00002914 <fail>:
    2914:	fc5fd0ef          	jal	ra,8d8 <failure>
    2918:	00100073          	ebreak

0000291c <pass>:
    291c:	00009137          	lui	sp,0x9
    2920:	fc5fd0ef          	jal	ra,8e4 <OK>
    2924:	874fe06f          	j	998 <lh_ret>

00002928 <srai>:
    2928:	00003537          	lui	a0,0x3
    292c:	94850513          	addi	a0,a0,-1720 # 2948 <.test_name>

00002930 <loop>:
    2930:	92dfd0ef          	jal	ra,25c <putstr>

00002934 <.prname_next>:
    2934:	00050583          	lb	a1,0(a0)
    2938:	00058c63          	beqz	a1,2950 <.prname_done>
    293c:	00b62023          	sw	a1,0(a2)
    2940:	00150513          	addi	a0,a0,1
    2944:	ff1ff06f          	j	2934 <.prname_next>

00002948 <.test_name>:
    2948:	69617273          	csrrci	tp,0x696,2
    294c:	0000                	unimp
	...

00002950 <.prname_done>:
    2950:	02e00593          	li	a1,46
    2954:	00b62023          	sw	a1,0(a2)
    2958:	00b62023          	sw	a1,0(a2)

0000295c <test_2>:
    295c:	00000093          	li	ra,0
    2960:	4000d193          	srai	gp,ra,0x0
    2964:	00000793          	li	a5,0
    2968:	00200713          	li	a4,2
    296c:	2af19463          	bne	gp,a5,2c14 <fail>

00002970 <test_3>:
    2970:	800000b7          	lui	ra,0x80000
    2974:	4010d193          	srai	gp,ra,0x1
    2978:	c00007b7          	lui	a5,0xc0000
    297c:	00300713          	li	a4,3
    2980:	28f19a63          	bne	gp,a5,2c14 <fail>

00002984 <test_4>:
    2984:	800000b7          	lui	ra,0x80000
    2988:	4070d193          	srai	gp,ra,0x7
    298c:	ff0007b7          	lui	a5,0xff000
    2990:	00400713          	li	a4,4
    2994:	28f19063          	bne	gp,a5,2c14 <fail>

00002998 <test_5>:
    2998:	800000b7          	lui	ra,0x80000
    299c:	40e0d193          	srai	gp,ra,0xe
    29a0:	fffe07b7          	lui	a5,0xfffe0
    29a4:	00500713          	li	a4,5
    29a8:	26f19663          	bne	gp,a5,2c14 <fail>

000029ac <test_6>:
    29ac:	800000b7          	lui	ra,0x80000
    29b0:	00108093          	addi	ra,ra,1 # 80000001 <io+0x1>
    29b4:	41f0d193          	srai	gp,ra,0x1f
    29b8:	fff00793          	li	a5,-1
    29bc:	00600713          	li	a4,6
    29c0:	24f19a63          	bne	gp,a5,2c14 <fail>

000029c4 <test_7>:
    29c4:	800000b7          	lui	ra,0x80000
    29c8:	fff08093          	addi	ra,ra,-1 # 7fffffff <io+0xffffffff>
    29cc:	4000d193          	srai	gp,ra,0x0
    29d0:	800007b7          	lui	a5,0x80000
    29d4:	fff78793          	addi	a5,a5,-1 # 7fffffff <io+0xffffffff>
    29d8:	00700713          	li	a4,7
    29dc:	22f19c63          	bne	gp,a5,2c14 <fail>

000029e0 <test_8>:
    29e0:	800000b7          	lui	ra,0x80000
    29e4:	fff08093          	addi	ra,ra,-1 # 7fffffff <io+0xffffffff>
    29e8:	4010d193          	srai	gp,ra,0x1
    29ec:	400007b7          	lui	a5,0x40000
    29f0:	fff78793          	addi	a5,a5,-1 # 3fffffff <tdat10+0x3fff7b02>
    29f4:	00800713          	li	a4,8
    29f8:	20f19e63          	bne	gp,a5,2c14 <fail>

000029fc <test_9>:
    29fc:	800000b7          	lui	ra,0x80000
    2a00:	fff08093          	addi	ra,ra,-1 # 7fffffff <io+0xffffffff>
    2a04:	4070d193          	srai	gp,ra,0x7
    2a08:	010007b7          	lui	a5,0x1000
    2a0c:	fff78793          	addi	a5,a5,-1 # ffffff <tdat10+0xff7b02>
    2a10:	00900713          	li	a4,9
    2a14:	20f19063          	bne	gp,a5,2c14 <fail>

00002a18 <test_10>:
    2a18:	800000b7          	lui	ra,0x80000
    2a1c:	fff08093          	addi	ra,ra,-1 # 7fffffff <io+0xffffffff>
    2a20:	40e0d193          	srai	gp,ra,0xe
    2a24:	000207b7          	lui	a5,0x20
    2a28:	fff78793          	addi	a5,a5,-1 # 1ffff <tdat10+0x17b02>
    2a2c:	00a00713          	li	a4,10
    2a30:	1ef19263          	bne	gp,a5,2c14 <fail>

00002a34 <test_11>:
    2a34:	800000b7          	lui	ra,0x80000
    2a38:	fff08093          	addi	ra,ra,-1 # 7fffffff <io+0xffffffff>
    2a3c:	41f0d193          	srai	gp,ra,0x1f
    2a40:	00000793          	li	a5,0
    2a44:	00b00713          	li	a4,11
    2a48:	1cf19663          	bne	gp,a5,2c14 <fail>

00002a4c <test_12>:
    2a4c:	818180b7          	lui	ra,0x81818
    2a50:	18108093          	addi	ra,ra,385 # 81818181 <io+0x1818181>
    2a54:	4000d193          	srai	gp,ra,0x0
    2a58:	818187b7          	lui	a5,0x81818
    2a5c:	18178793          	addi	a5,a5,385 # 81818181 <io+0x1818181>
    2a60:	00c00713          	li	a4,12
    2a64:	1af19863          	bne	gp,a5,2c14 <fail>

00002a68 <test_13>:
    2a68:	818180b7          	lui	ra,0x81818
    2a6c:	18108093          	addi	ra,ra,385 # 81818181 <io+0x1818181>
    2a70:	4010d193          	srai	gp,ra,0x1
    2a74:	c0c0c7b7          	lui	a5,0xc0c0c
    2a78:	0c078793          	addi	a5,a5,192 # c0c0c0c0 <io+0x40c0c0c0>
    2a7c:	00d00713          	li	a4,13
    2a80:	18f19a63          	bne	gp,a5,2c14 <fail>

00002a84 <test_14>:
    2a84:	818180b7          	lui	ra,0x81818
    2a88:	18108093          	addi	ra,ra,385 # 81818181 <io+0x1818181>
    2a8c:	4070d193          	srai	gp,ra,0x7
    2a90:	ff0307b7          	lui	a5,0xff030
    2a94:	30378793          	addi	a5,a5,771 # ff030303 <io+0x7f030303>
    2a98:	00e00713          	li	a4,14
    2a9c:	16f19c63          	bne	gp,a5,2c14 <fail>

00002aa0 <test_15>:
    2aa0:	818180b7          	lui	ra,0x81818
    2aa4:	18108093          	addi	ra,ra,385 # 81818181 <io+0x1818181>
    2aa8:	40e0d193          	srai	gp,ra,0xe
    2aac:	fffe07b7          	lui	a5,0xfffe0
    2ab0:	60678793          	addi	a5,a5,1542 # fffe0606 <io+0x7ffe0606>
    2ab4:	00f00713          	li	a4,15
    2ab8:	14f19e63          	bne	gp,a5,2c14 <fail>

00002abc <test_16>:
    2abc:	818180b7          	lui	ra,0x81818
    2ac0:	18108093          	addi	ra,ra,385 # 81818181 <io+0x1818181>
    2ac4:	41f0d193          	srai	gp,ra,0x1f
    2ac8:	fff00793          	li	a5,-1
    2acc:	01000713          	li	a4,16
    2ad0:	14f19263          	bne	gp,a5,2c14 <fail>

00002ad4 <test_17>:
    2ad4:	800000b7          	lui	ra,0x80000
    2ad8:	4070d093          	srai	ra,ra,0x7
    2adc:	ff0007b7          	lui	a5,0xff000
    2ae0:	01100713          	li	a4,17
    2ae4:	12f09863          	bne	ra,a5,2c14 <fail>

00002ae8 <test_18>:
    2ae8:	00000213          	li	tp,0
    2aec:	800000b7          	lui	ra,0x80000
    2af0:	4070d193          	srai	gp,ra,0x7
    2af4:	00018313          	mv	t1,gp
    2af8:	00120213          	addi	tp,tp,1 # 1 <boot+0x1>
    2afc:	00200293          	li	t0,2
    2b00:	fe5216e3          	bne	tp,t0,2aec <test_18+0x4>
    2b04:	ff0007b7          	lui	a5,0xff000
    2b08:	01200713          	li	a4,18
    2b0c:	10f31463          	bne	t1,a5,2c14 <fail>

00002b10 <test_19>:
    2b10:	00000213          	li	tp,0
    2b14:	800000b7          	lui	ra,0x80000
    2b18:	40e0d193          	srai	gp,ra,0xe
    2b1c:	00000013          	nop
    2b20:	00018313          	mv	t1,gp
    2b24:	00120213          	addi	tp,tp,1 # 1 <boot+0x1>
    2b28:	00200293          	li	t0,2
    2b2c:	fe5214e3          	bne	tp,t0,2b14 <test_19+0x4>
    2b30:	fffe07b7          	lui	a5,0xfffe0
    2b34:	01300713          	li	a4,19
    2b38:	0cf31e63          	bne	t1,a5,2c14 <fail>

00002b3c <test_20>:
    2b3c:	00000213          	li	tp,0
    2b40:	800000b7          	lui	ra,0x80000
    2b44:	00108093          	addi	ra,ra,1 # 80000001 <io+0x1>
    2b48:	41f0d193          	srai	gp,ra,0x1f
    2b4c:	00000013          	nop
    2b50:	00000013          	nop
    2b54:	00018313          	mv	t1,gp
    2b58:	00120213          	addi	tp,tp,1 # 1 <boot+0x1>
    2b5c:	00200293          	li	t0,2
    2b60:	fe5210e3          	bne	tp,t0,2b40 <test_20+0x4>
    2b64:	fff00793          	li	a5,-1
    2b68:	01400713          	li	a4,20
    2b6c:	0af31463          	bne	t1,a5,2c14 <fail>

00002b70 <test_21>:
    2b70:	00000213          	li	tp,0
    2b74:	800000b7          	lui	ra,0x80000
    2b78:	4070d193          	srai	gp,ra,0x7
    2b7c:	00120213          	addi	tp,tp,1 # 1 <boot+0x1>
    2b80:	00200293          	li	t0,2
    2b84:	fe5218e3          	bne	tp,t0,2b74 <test_21+0x4>
    2b88:	ff0007b7          	lui	a5,0xff000
    2b8c:	01500713          	li	a4,21
    2b90:	08f19263          	bne	gp,a5,2c14 <fail>

00002b94 <test_22>:
    2b94:	00000213          	li	tp,0
    2b98:	800000b7          	lui	ra,0x80000
    2b9c:	00000013          	nop
    2ba0:	40e0d193          	srai	gp,ra,0xe
    2ba4:	00120213          	addi	tp,tp,1 # 1 <boot+0x1>
    2ba8:	00200293          	li	t0,2
    2bac:	fe5216e3          	bne	tp,t0,2b98 <test_22+0x4>
    2bb0:	fffe07b7          	lui	a5,0xfffe0
    2bb4:	01600713          	li	a4,22
    2bb8:	04f19e63          	bne	gp,a5,2c14 <fail>

00002bbc <test_23>:
    2bbc:	00000213          	li	tp,0
    2bc0:	800000b7          	lui	ra,0x80000
    2bc4:	00108093          	addi	ra,ra,1 # 80000001 <io+0x1>
    2bc8:	00000013          	nop
    2bcc:	00000013          	nop
    2bd0:	41f0d193          	srai	gp,ra,0x1f
    2bd4:	00120213          	addi	tp,tp,1 # 1 <boot+0x1>
    2bd8:	00200293          	li	t0,2
    2bdc:	fe5212e3          	bne	tp,t0,2bc0 <test_23+0x4>
    2be0:	fff00793          	li	a5,-1
    2be4:	01700713          	li	a4,23
    2be8:	02f19663          	bne	gp,a5,2c14 <fail>

00002bec <test_24>:
    2bec:	41f05093          	srai	ra,zero,0x1f
    2bf0:	00000793          	li	a5,0
    2bf4:	01800713          	li	a4,24
    2bf8:	00f09e63          	bne	ra,a5,2c14 <fail>

00002bfc <test_25>:
    2bfc:	02100093          	li	ra,33
    2c00:	4140d013          	srai	zero,ra,0x14
    2c04:	00000793          	li	a5,0
    2c08:	01900713          	li	a4,25
    2c0c:	00f01463          	bne	zero,a5,2c14 <fail>
    2c10:	00e01663          	bne	zero,a4,2c1c <pass>

00002c14 <fail>:
    2c14:	cc5fd0ef          	jal	ra,8d8 <failure>
    2c18:	00100073          	ebreak

00002c1c <pass>:
    2c1c:	00009137          	lui	sp,0x9
    2c20:	cc5fd0ef          	jal	ra,8e4 <OK>
    2c24:	de5fd06f          	j	a08 <srai_ret>

00002c28 <bltu>:
    2c28:	00003537          	lui	a0,0x3
    2c2c:	c4850513          	addi	a0,a0,-952 # 2c48 <.test_name>

00002c30 <loop>:
    2c30:	e2cfd0ef          	jal	ra,25c <putstr>

00002c34 <.prname_next>:
    2c34:	00050583          	lb	a1,0(a0)
    2c38:	00058c63          	beqz	a1,2c50 <.prname_done>
    2c3c:	00b62023          	sw	a1,0(a2)
    2c40:	00150513          	addi	a0,a0,1
    2c44:	ff1ff06f          	j	2c34 <.prname_next>

00002c48 <.test_name>:
    2c48:	6c62                	flw	fs8,24(sp)
    2c4a:	7574                	flw	fa3,108(a0)
    2c4c:	0000                	unimp
	...

00002c50 <.prname_done>:
    2c50:	02e00593          	li	a1,46
    2c54:	00b62023          	sw	a1,0(a2)
    2c58:	00b62023          	sw	a1,0(a2)

00002c5c <test_2>:
    2c5c:	00200713          	li	a4,2
    2c60:	00000093          	li	ra,0
    2c64:	00100113          	li	sp,1
    2c68:	0020e663          	bltu	ra,sp,2c74 <test_2+0x18>
    2c6c:	2ee01263          	bne	zero,a4,2f50 <fail>
    2c70:	00e01663          	bne	zero,a4,2c7c <test_3>
    2c74:	fe20eee3          	bltu	ra,sp,2c70 <test_2+0x14>
    2c78:	2ce01c63          	bne	zero,a4,2f50 <fail>

00002c7c <test_3>:
    2c7c:	00300713          	li	a4,3
    2c80:	ffe00093          	li	ra,-2
    2c84:	fff00113          	li	sp,-1
    2c88:	0020e663          	bltu	ra,sp,2c94 <test_3+0x18>
    2c8c:	2ce01263          	bne	zero,a4,2f50 <fail>
    2c90:	00e01663          	bne	zero,a4,2c9c <test_4>
    2c94:	fe20eee3          	bltu	ra,sp,2c90 <test_3+0x14>
    2c98:	2ae01c63          	bne	zero,a4,2f50 <fail>

00002c9c <test_4>:
    2c9c:	00400713          	li	a4,4
    2ca0:	00000093          	li	ra,0
    2ca4:	fff00113          	li	sp,-1
    2ca8:	0020e663          	bltu	ra,sp,2cb4 <test_4+0x18>
    2cac:	2ae01263          	bne	zero,a4,2f50 <fail>
    2cb0:	00e01663          	bne	zero,a4,2cbc <test_5>
    2cb4:	fe20eee3          	bltu	ra,sp,2cb0 <test_4+0x14>
    2cb8:	28e01c63          	bne	zero,a4,2f50 <fail>

00002cbc <test_5>:
    2cbc:	00500713          	li	a4,5
    2cc0:	00100093          	li	ra,1
    2cc4:	00000113          	li	sp,0
    2cc8:	0020e463          	bltu	ra,sp,2cd0 <test_5+0x14>
    2ccc:	00e01463          	bne	zero,a4,2cd4 <test_5+0x18>
    2cd0:	28e01063          	bne	zero,a4,2f50 <fail>
    2cd4:	fe20eee3          	bltu	ra,sp,2cd0 <test_5+0x14>

00002cd8 <test_6>:
    2cd8:	00600713          	li	a4,6
    2cdc:	fff00093          	li	ra,-1
    2ce0:	ffe00113          	li	sp,-2
    2ce4:	0020e463          	bltu	ra,sp,2cec <test_6+0x14>
    2ce8:	00e01463          	bne	zero,a4,2cf0 <test_6+0x18>
    2cec:	26e01263          	bne	zero,a4,2f50 <fail>
    2cf0:	fe20eee3          	bltu	ra,sp,2cec <test_6+0x14>

00002cf4 <test_7>:
    2cf4:	00700713          	li	a4,7
    2cf8:	fff00093          	li	ra,-1
    2cfc:	00000113          	li	sp,0
    2d00:	0020e463          	bltu	ra,sp,2d08 <test_7+0x14>
    2d04:	00e01463          	bne	zero,a4,2d0c <test_7+0x18>
    2d08:	24e01463          	bne	zero,a4,2f50 <fail>
    2d0c:	fe20eee3          	bltu	ra,sp,2d08 <test_7+0x14>

00002d10 <test_8>:
    2d10:	00800713          	li	a4,8
    2d14:	800000b7          	lui	ra,0x80000
    2d18:	80000137          	lui	sp,0x80000
    2d1c:	fff10113          	addi	sp,sp,-1 # 7fffffff <io+0xffffffff>
    2d20:	0020e463          	bltu	ra,sp,2d28 <test_8+0x18>
    2d24:	00e01463          	bne	zero,a4,2d2c <test_8+0x1c>
    2d28:	22e01463          	bne	zero,a4,2f50 <fail>
    2d2c:	fe20eee3          	bltu	ra,sp,2d28 <test_8+0x18>

00002d30 <test_9>:
    2d30:	00900713          	li	a4,9
    2d34:	00000213          	li	tp,0
    2d38:	f00000b7          	lui	ra,0xf0000
    2d3c:	f0000137          	lui	sp,0xf0000
    2d40:	fff10113          	addi	sp,sp,-1 # efffffff <io+0x6fffffff>
    2d44:	2020e663          	bltu	ra,sp,2f50 <fail>
    2d48:	00120213          	addi	tp,tp,1 # 1 <boot+0x1>
    2d4c:	00200293          	li	t0,2
    2d50:	fe5214e3          	bne	tp,t0,2d38 <test_9+0x8>

00002d54 <test_10>:
    2d54:	00a00713          	li	a4,10
    2d58:	00000213          	li	tp,0
    2d5c:	f00000b7          	lui	ra,0xf0000
    2d60:	f0000137          	lui	sp,0xf0000
    2d64:	fff10113          	addi	sp,sp,-1 # efffffff <io+0x6fffffff>
    2d68:	00000013          	nop
    2d6c:	1e20e263          	bltu	ra,sp,2f50 <fail>
    2d70:	00120213          	addi	tp,tp,1 # 1 <boot+0x1>
    2d74:	00200293          	li	t0,2
    2d78:	fe5212e3          	bne	tp,t0,2d5c <test_10+0x8>

00002d7c <test_11>:
    2d7c:	00b00713          	li	a4,11
    2d80:	00000213          	li	tp,0
    2d84:	f00000b7          	lui	ra,0xf0000
    2d88:	f0000137          	lui	sp,0xf0000
    2d8c:	fff10113          	addi	sp,sp,-1 # efffffff <io+0x6fffffff>
    2d90:	00000013          	nop
    2d94:	00000013          	nop
    2d98:	1a20ec63          	bltu	ra,sp,2f50 <fail>
    2d9c:	00120213          	addi	tp,tp,1 # 1 <boot+0x1>
    2da0:	00200293          	li	t0,2
    2da4:	fe5210e3          	bne	tp,t0,2d84 <test_11+0x8>

00002da8 <test_12>:
    2da8:	00c00713          	li	a4,12
    2dac:	00000213          	li	tp,0
    2db0:	f00000b7          	lui	ra,0xf0000
    2db4:	00000013          	nop
    2db8:	f0000137          	lui	sp,0xf0000
    2dbc:	fff10113          	addi	sp,sp,-1 # efffffff <io+0x6fffffff>
    2dc0:	1820e863          	bltu	ra,sp,2f50 <fail>
    2dc4:	00120213          	addi	tp,tp,1 # 1 <boot+0x1>
    2dc8:	00200293          	li	t0,2
    2dcc:	fe5212e3          	bne	tp,t0,2db0 <test_12+0x8>

00002dd0 <test_13>:
    2dd0:	00d00713          	li	a4,13
    2dd4:	00000213          	li	tp,0
    2dd8:	f00000b7          	lui	ra,0xf0000
    2ddc:	00000013          	nop
    2de0:	f0000137          	lui	sp,0xf0000
    2de4:	fff10113          	addi	sp,sp,-1 # efffffff <io+0x6fffffff>
    2de8:	00000013          	nop
    2dec:	1620e263          	bltu	ra,sp,2f50 <fail>
    2df0:	00120213          	addi	tp,tp,1 # 1 <boot+0x1>
    2df4:	00200293          	li	t0,2
    2df8:	fe5210e3          	bne	tp,t0,2dd8 <test_13+0x8>

00002dfc <test_14>:
    2dfc:	00e00713          	li	a4,14
    2e00:	00000213          	li	tp,0
    2e04:	f00000b7          	lui	ra,0xf0000
    2e08:	00000013          	nop
    2e0c:	00000013          	nop
    2e10:	f0000137          	lui	sp,0xf0000
    2e14:	fff10113          	addi	sp,sp,-1 # efffffff <io+0x6fffffff>
    2e18:	1220ec63          	bltu	ra,sp,2f50 <fail>
    2e1c:	00120213          	addi	tp,tp,1 # 1 <boot+0x1>
    2e20:	00200293          	li	t0,2
    2e24:	fe5210e3          	bne	tp,t0,2e04 <test_14+0x8>

00002e28 <test_15>:
    2e28:	00f00713          	li	a4,15
    2e2c:	00000213          	li	tp,0
    2e30:	f00000b7          	lui	ra,0xf0000
    2e34:	f0000137          	lui	sp,0xf0000
    2e38:	fff10113          	addi	sp,sp,-1 # efffffff <io+0x6fffffff>
    2e3c:	1020ea63          	bltu	ra,sp,2f50 <fail>
    2e40:	00120213          	addi	tp,tp,1 # 1 <boot+0x1>
    2e44:	00200293          	li	t0,2
    2e48:	fe5214e3          	bne	tp,t0,2e30 <test_15+0x8>

00002e4c <test_16>:
    2e4c:	01000713          	li	a4,16
    2e50:	00000213          	li	tp,0
    2e54:	f00000b7          	lui	ra,0xf0000
    2e58:	f0000137          	lui	sp,0xf0000
    2e5c:	fff10113          	addi	sp,sp,-1 # efffffff <io+0x6fffffff>
    2e60:	00000013          	nop
    2e64:	0e20e663          	bltu	ra,sp,2f50 <fail>
    2e68:	00120213          	addi	tp,tp,1 # 1 <boot+0x1>
    2e6c:	00200293          	li	t0,2
    2e70:	fe5212e3          	bne	tp,t0,2e54 <test_16+0x8>

00002e74 <test_17>:
    2e74:	01100713          	li	a4,17
    2e78:	00000213          	li	tp,0
    2e7c:	f00000b7          	lui	ra,0xf0000
    2e80:	f0000137          	lui	sp,0xf0000
    2e84:	fff10113          	addi	sp,sp,-1 # efffffff <io+0x6fffffff>
    2e88:	00000013          	nop
    2e8c:	00000013          	nop
    2e90:	0c20e063          	bltu	ra,sp,2f50 <fail>
    2e94:	00120213          	addi	tp,tp,1 # 1 <boot+0x1>
    2e98:	00200293          	li	t0,2
    2e9c:	fe5210e3          	bne	tp,t0,2e7c <test_17+0x8>

00002ea0 <test_18>:
    2ea0:	01200713          	li	a4,18
    2ea4:	00000213          	li	tp,0
    2ea8:	f00000b7          	lui	ra,0xf0000
    2eac:	00000013          	nop
    2eb0:	f0000137          	lui	sp,0xf0000
    2eb4:	fff10113          	addi	sp,sp,-1 # efffffff <io+0x6fffffff>
    2eb8:	0820ec63          	bltu	ra,sp,2f50 <fail>
    2ebc:	00120213          	addi	tp,tp,1 # 1 <boot+0x1>
    2ec0:	00200293          	li	t0,2
    2ec4:	fe5212e3          	bne	tp,t0,2ea8 <test_18+0x8>

00002ec8 <test_19>:
    2ec8:	01300713          	li	a4,19
    2ecc:	00000213          	li	tp,0
    2ed0:	f00000b7          	lui	ra,0xf0000
    2ed4:	00000013          	nop
    2ed8:	f0000137          	lui	sp,0xf0000
    2edc:	fff10113          	addi	sp,sp,-1 # efffffff <io+0x6fffffff>
    2ee0:	00000013          	nop
    2ee4:	0620e663          	bltu	ra,sp,2f50 <fail>
    2ee8:	00120213          	addi	tp,tp,1 # 1 <boot+0x1>
    2eec:	00200293          	li	t0,2
    2ef0:	fe5210e3          	bne	tp,t0,2ed0 <test_19+0x8>

00002ef4 <test_20>:
    2ef4:	01400713          	li	a4,20
    2ef8:	00000213          	li	tp,0
    2efc:	f00000b7          	lui	ra,0xf0000
    2f00:	00000013          	nop
    2f04:	00000013          	nop
    2f08:	f0000137          	lui	sp,0xf0000
    2f0c:	fff10113          	addi	sp,sp,-1 # efffffff <io+0x6fffffff>
    2f10:	0420e063          	bltu	ra,sp,2f50 <fail>
    2f14:	00120213          	addi	tp,tp,1 # 1 <boot+0x1>
    2f18:	00200293          	li	t0,2
    2f1c:	fe5210e3          	bne	tp,t0,2efc <test_20+0x8>

00002f20 <test_21>:
    2f20:	00100093          	li	ra,1
    2f24:	00106a63          	bltu	zero,ra,2f38 <test_21+0x18>
    2f28:	00108093          	addi	ra,ra,1 # f0000001 <io+0x70000001>
    2f2c:	00108093          	addi	ra,ra,1
    2f30:	00108093          	addi	ra,ra,1
    2f34:	00108093          	addi	ra,ra,1
    2f38:	00108093          	addi	ra,ra,1
    2f3c:	00108093          	addi	ra,ra,1
    2f40:	00300793          	li	a5,3
    2f44:	01500713          	li	a4,21
    2f48:	00f09463          	bne	ra,a5,2f50 <fail>
    2f4c:	00e01663          	bne	zero,a4,2f58 <pass>

00002f50 <fail>:
    2f50:	989fd0ef          	jal	ra,8d8 <failure>
    2f54:	00100073          	ebreak

00002f58 <pass>:
    2f58:	00009137          	lui	sp,0x9
    2f5c:	989fd0ef          	jal	ra,8e4 <OK>
    2f60:	a21fd06f          	j	980 <bltu_ret>

00002f64 <slti>:
    2f64:	00003537          	lui	a0,0x3
    2f68:	f8450513          	addi	a0,a0,-124 # 2f84 <.test_name>

00002f6c <loop>:
    2f6c:	af0fd0ef          	jal	ra,25c <putstr>

00002f70 <.prname_next>:
    2f70:	00050583          	lb	a1,0(a0)
    2f74:	00058c63          	beqz	a1,2f8c <.prname_done>
    2f78:	00b62023          	sw	a1,0(a2)
    2f7c:	00150513          	addi	a0,a0,1
    2f80:	ff1ff06f          	j	2f70 <.prname_next>

00002f84 <.test_name>:
    2f84:	69746c73          	csrrsi	s8,0x697,8
    2f88:	0000                	unimp
	...

00002f8c <.prname_done>:
    2f8c:	02e00593          	li	a1,46
    2f90:	00b62023          	sw	a1,0(a2)
    2f94:	00b62023          	sw	a1,0(a2)

00002f98 <test_2>:
    2f98:	00000093          	li	ra,0
    2f9c:	0000a193          	slti	gp,ra,0
    2fa0:	00000793          	li	a5,0
    2fa4:	00200713          	li	a4,2
    2fa8:	26f19263          	bne	gp,a5,320c <fail>

00002fac <test_3>:
    2fac:	00100093          	li	ra,1
    2fb0:	0010a193          	slti	gp,ra,1
    2fb4:	00000793          	li	a5,0
    2fb8:	00300713          	li	a4,3
    2fbc:	24f19863          	bne	gp,a5,320c <fail>

00002fc0 <test_4>:
    2fc0:	00300093          	li	ra,3
    2fc4:	0070a193          	slti	gp,ra,7
    2fc8:	00100793          	li	a5,1
    2fcc:	00400713          	li	a4,4
    2fd0:	22f19e63          	bne	gp,a5,320c <fail>

00002fd4 <test_5>:
    2fd4:	00700093          	li	ra,7
    2fd8:	0030a193          	slti	gp,ra,3
    2fdc:	00000793          	li	a5,0
    2fe0:	00500713          	li	a4,5
    2fe4:	22f19463          	bne	gp,a5,320c <fail>

00002fe8 <test_6>:
    2fe8:	00000093          	li	ra,0
    2fec:	8000a193          	slti	gp,ra,-2048
    2ff0:	00000793          	li	a5,0
    2ff4:	00600713          	li	a4,6
    2ff8:	20f19a63          	bne	gp,a5,320c <fail>

00002ffc <test_7>:
    2ffc:	800000b7          	lui	ra,0x80000
    3000:	0000a193          	slti	gp,ra,0
    3004:	00100793          	li	a5,1
    3008:	00700713          	li	a4,7
    300c:	20f19063          	bne	gp,a5,320c <fail>

00003010 <test_8>:
    3010:	800000b7          	lui	ra,0x80000
    3014:	8000a193          	slti	gp,ra,-2048
    3018:	00100793          	li	a5,1
    301c:	00800713          	li	a4,8
    3020:	1ef19663          	bne	gp,a5,320c <fail>

00003024 <test_9>:
    3024:	00000093          	li	ra,0
    3028:	7ff0a193          	slti	gp,ra,2047
    302c:	00100793          	li	a5,1
    3030:	00900713          	li	a4,9
    3034:	1cf19c63          	bne	gp,a5,320c <fail>

00003038 <test_10>:
    3038:	800000b7          	lui	ra,0x80000
    303c:	fff08093          	addi	ra,ra,-1 # 7fffffff <io+0xffffffff>
    3040:	0000a193          	slti	gp,ra,0
    3044:	00000793          	li	a5,0
    3048:	00a00713          	li	a4,10
    304c:	1cf19063          	bne	gp,a5,320c <fail>

00003050 <test_11>:
    3050:	800000b7          	lui	ra,0x80000
    3054:	fff08093          	addi	ra,ra,-1 # 7fffffff <io+0xffffffff>
    3058:	7ff0a193          	slti	gp,ra,2047
    305c:	00000793          	li	a5,0
    3060:	00b00713          	li	a4,11
    3064:	1af19463          	bne	gp,a5,320c <fail>

00003068 <test_12>:
    3068:	800000b7          	lui	ra,0x80000
    306c:	7ff0a193          	slti	gp,ra,2047
    3070:	00100793          	li	a5,1
    3074:	00c00713          	li	a4,12
    3078:	18f19a63          	bne	gp,a5,320c <fail>

0000307c <test_13>:
    307c:	800000b7          	lui	ra,0x80000
    3080:	fff08093          	addi	ra,ra,-1 # 7fffffff <io+0xffffffff>
    3084:	8000a193          	slti	gp,ra,-2048
    3088:	00000793          	li	a5,0
    308c:	00d00713          	li	a4,13
    3090:	16f19e63          	bne	gp,a5,320c <fail>

00003094 <test_14>:
    3094:	00000093          	li	ra,0
    3098:	fff0a193          	slti	gp,ra,-1
    309c:	00000793          	li	a5,0
    30a0:	00e00713          	li	a4,14
    30a4:	16f19463          	bne	gp,a5,320c <fail>

000030a8 <test_15>:
    30a8:	fff00093          	li	ra,-1
    30ac:	0010a193          	slti	gp,ra,1
    30b0:	00100793          	li	a5,1
    30b4:	00f00713          	li	a4,15
    30b8:	14f19a63          	bne	gp,a5,320c <fail>

000030bc <test_16>:
    30bc:	fff00093          	li	ra,-1
    30c0:	fff0a193          	slti	gp,ra,-1
    30c4:	00000793          	li	a5,0
    30c8:	01000713          	li	a4,16
    30cc:	14f19063          	bne	gp,a5,320c <fail>

000030d0 <test_17>:
    30d0:	00b00093          	li	ra,11
    30d4:	00d0b093          	sltiu	ra,ra,13
    30d8:	00100793          	li	a5,1
    30dc:	01100713          	li	a4,17
    30e0:	12f09663          	bne	ra,a5,320c <fail>

000030e4 <test_18>:
    30e4:	00000213          	li	tp,0
    30e8:	00f00093          	li	ra,15
    30ec:	00a0a193          	slti	gp,ra,10
    30f0:	00018313          	mv	t1,gp
    30f4:	00120213          	addi	tp,tp,1 # 1 <boot+0x1>
    30f8:	00200293          	li	t0,2
    30fc:	fe5216e3          	bne	tp,t0,30e8 <test_18+0x4>
    3100:	00000793          	li	a5,0
    3104:	01200713          	li	a4,18
    3108:	10f31263          	bne	t1,a5,320c <fail>

0000310c <test_19>:
    310c:	00000213          	li	tp,0
    3110:	00a00093          	li	ra,10
    3114:	0100a193          	slti	gp,ra,16
    3118:	00000013          	nop
    311c:	00018313          	mv	t1,gp
    3120:	00120213          	addi	tp,tp,1 # 1 <boot+0x1>
    3124:	00200293          	li	t0,2
    3128:	fe5214e3          	bne	tp,t0,3110 <test_19+0x4>
    312c:	00100793          	li	a5,1
    3130:	01300713          	li	a4,19
    3134:	0cf31c63          	bne	t1,a5,320c <fail>

00003138 <test_20>:
    3138:	00000213          	li	tp,0
    313c:	01000093          	li	ra,16
    3140:	0090a193          	slti	gp,ra,9
    3144:	00000013          	nop
    3148:	00000013          	nop
    314c:	00018313          	mv	t1,gp
    3150:	00120213          	addi	tp,tp,1 # 1 <boot+0x1>
    3154:	00200293          	li	t0,2
    3158:	fe5212e3          	bne	tp,t0,313c <test_20+0x4>
    315c:	00000793          	li	a5,0
    3160:	01400713          	li	a4,20
    3164:	0af31463          	bne	t1,a5,320c <fail>

00003168 <test_21>:
    3168:	00000213          	li	tp,0
    316c:	00b00093          	li	ra,11
    3170:	00f0a193          	slti	gp,ra,15
    3174:	00120213          	addi	tp,tp,1 # 1 <boot+0x1>
    3178:	00200293          	li	t0,2
    317c:	fe5218e3          	bne	tp,t0,316c <test_21+0x4>
    3180:	00100793          	li	a5,1
    3184:	01500713          	li	a4,21
    3188:	08f19263          	bne	gp,a5,320c <fail>

0000318c <test_22>:
    318c:	00000213          	li	tp,0
    3190:	01100093          	li	ra,17
    3194:	00000013          	nop
    3198:	0080a193          	slti	gp,ra,8
    319c:	00120213          	addi	tp,tp,1 # 1 <boot+0x1>
    31a0:	00200293          	li	t0,2
    31a4:	fe5216e3          	bne	tp,t0,3190 <test_22+0x4>
    31a8:	00000793          	li	a5,0
    31ac:	01600713          	li	a4,22
    31b0:	04f19e63          	bne	gp,a5,320c <fail>

000031b4 <test_23>:
    31b4:	00000213          	li	tp,0
    31b8:	00c00093          	li	ra,12
    31bc:	00000013          	nop
    31c0:	00000013          	nop
    31c4:	00e0a193          	slti	gp,ra,14
    31c8:	00120213          	addi	tp,tp,1 # 1 <boot+0x1>
    31cc:	00200293          	li	t0,2
    31d0:	fe5214e3          	bne	tp,t0,31b8 <test_23+0x4>
    31d4:	00100793          	li	a5,1
    31d8:	01700713          	li	a4,23
    31dc:	02f19863          	bne	gp,a5,320c <fail>

000031e0 <test_24>:
    31e0:	fff02093          	slti	ra,zero,-1
    31e4:	00000793          	li	a5,0
    31e8:	01800713          	li	a4,24
    31ec:	02f09063          	bne	ra,a5,320c <fail>

000031f0 <test_25>:
    31f0:	00ff00b7          	lui	ra,0xff0
    31f4:	0ff08093          	addi	ra,ra,255 # ff00ff <tdat10+0xfe7c02>
    31f8:	fff0a013          	slti	zero,ra,-1
    31fc:	00000793          	li	a5,0
    3200:	01900713          	li	a4,25
    3204:	00f01463          	bne	zero,a5,320c <fail>
    3208:	00e01663          	bne	zero,a4,3214 <pass>

0000320c <fail>:
    320c:	eccfd0ef          	jal	ra,8d8 <failure>
    3210:	00100073          	ebreak

00003214 <pass>:
    3214:	00009137          	lui	sp,0x9
    3218:	eccfd0ef          	jal	ra,8e4 <OK>
    321c:	fbcfd06f          	j	9d8 <slti_ret>

00003220 <slli>:
    3220:	00003537          	lui	a0,0x3
    3224:	24050513          	addi	a0,a0,576 # 3240 <.test_name>

00003228 <loop>:
    3228:	834fd0ef          	jal	ra,25c <putstr>

0000322c <.prname_next>:
    322c:	00050583          	lb	a1,0(a0)
    3230:	00058c63          	beqz	a1,3248 <.prname_done>
    3234:	00b62023          	sw	a1,0(a2)
    3238:	00150513          	addi	a0,a0,1
    323c:	ff1ff06f          	j	322c <.prname_next>

00003240 <.test_name>:
    3240:	696c6c73          	csrrsi	s8,0x696,24
    3244:	0000                	unimp
	...

00003248 <.prname_done>:
    3248:	02e00593          	li	a1,46
    324c:	00b62023          	sw	a1,0(a2)
    3250:	00b62023          	sw	a1,0(a2)

00003254 <test_2>:
    3254:	00100093          	li	ra,1
    3258:	00009193          	slli	gp,ra,0x0
    325c:	00100793          	li	a5,1
    3260:	00200713          	li	a4,2
    3264:	26f19a63          	bne	gp,a5,34d8 <fail>

00003268 <test_3>:
    3268:	00100093          	li	ra,1
    326c:	00109193          	slli	gp,ra,0x1
    3270:	00200793          	li	a5,2
    3274:	00300713          	li	a4,3
    3278:	26f19063          	bne	gp,a5,34d8 <fail>

0000327c <test_4>:
    327c:	00100093          	li	ra,1
    3280:	00709193          	slli	gp,ra,0x7
    3284:	08000793          	li	a5,128
    3288:	00400713          	li	a4,4
    328c:	24f19663          	bne	gp,a5,34d8 <fail>

00003290 <test_5>:
    3290:	00100093          	li	ra,1
    3294:	00e09193          	slli	gp,ra,0xe
    3298:	000047b7          	lui	a5,0x4
    329c:	00500713          	li	a4,5
    32a0:	22f19c63          	bne	gp,a5,34d8 <fail>

000032a4 <test_6>:
    32a4:	00100093          	li	ra,1
    32a8:	01f09193          	slli	gp,ra,0x1f
    32ac:	800007b7          	lui	a5,0x80000
    32b0:	00600713          	li	a4,6
    32b4:	22f19263          	bne	gp,a5,34d8 <fail>

000032b8 <test_7>:
    32b8:	fff00093          	li	ra,-1
    32bc:	00009193          	slli	gp,ra,0x0
    32c0:	fff00793          	li	a5,-1
    32c4:	00700713          	li	a4,7
    32c8:	20f19863          	bne	gp,a5,34d8 <fail>

000032cc <test_8>:
    32cc:	fff00093          	li	ra,-1
    32d0:	00109193          	slli	gp,ra,0x1
    32d4:	ffe00793          	li	a5,-2
    32d8:	00800713          	li	a4,8
    32dc:	1ef19e63          	bne	gp,a5,34d8 <fail>

000032e0 <test_9>:
    32e0:	fff00093          	li	ra,-1
    32e4:	00709193          	slli	gp,ra,0x7
    32e8:	f8000793          	li	a5,-128
    32ec:	00900713          	li	a4,9
    32f0:	1ef19463          	bne	gp,a5,34d8 <fail>

000032f4 <test_10>:
    32f4:	fff00093          	li	ra,-1
    32f8:	00e09193          	slli	gp,ra,0xe
    32fc:	ffffc7b7          	lui	a5,0xffffc
    3300:	00a00713          	li	a4,10
    3304:	1cf19a63          	bne	gp,a5,34d8 <fail>

00003308 <test_11>:
    3308:	fff00093          	li	ra,-1
    330c:	01f09193          	slli	gp,ra,0x1f
    3310:	800007b7          	lui	a5,0x80000
    3314:	00b00713          	li	a4,11
    3318:	1cf19063          	bne	gp,a5,34d8 <fail>

0000331c <test_12>:
    331c:	212120b7          	lui	ra,0x21212
    3320:	12108093          	addi	ra,ra,289 # 21212121 <tdat10+0x21209c24>
    3324:	00009193          	slli	gp,ra,0x0
    3328:	212127b7          	lui	a5,0x21212
    332c:	12178793          	addi	a5,a5,289 # 21212121 <tdat10+0x21209c24>
    3330:	00c00713          	li	a4,12
    3334:	1af19263          	bne	gp,a5,34d8 <fail>

00003338 <test_13>:
    3338:	212120b7          	lui	ra,0x21212
    333c:	12108093          	addi	ra,ra,289 # 21212121 <tdat10+0x21209c24>
    3340:	00109193          	slli	gp,ra,0x1
    3344:	424247b7          	lui	a5,0x42424
    3348:	24278793          	addi	a5,a5,578 # 42424242 <tdat10+0x4241bd45>
    334c:	00d00713          	li	a4,13
    3350:	18f19463          	bne	gp,a5,34d8 <fail>

00003354 <test_14>:
    3354:	212120b7          	lui	ra,0x21212
    3358:	12108093          	addi	ra,ra,289 # 21212121 <tdat10+0x21209c24>
    335c:	00709193          	slli	gp,ra,0x7
    3360:	909097b7          	lui	a5,0x90909
    3364:	08078793          	addi	a5,a5,128 # 90909080 <io+0x10909080>
    3368:	00e00713          	li	a4,14
    336c:	16f19663          	bne	gp,a5,34d8 <fail>

00003370 <test_15>:
    3370:	212120b7          	lui	ra,0x21212
    3374:	12108093          	addi	ra,ra,289 # 21212121 <tdat10+0x21209c24>
    3378:	00e09193          	slli	gp,ra,0xe
    337c:	484847b7          	lui	a5,0x48484
    3380:	00f00713          	li	a4,15
    3384:	14f19a63          	bne	gp,a5,34d8 <fail>

00003388 <test_16>:
    3388:	212120b7          	lui	ra,0x21212
    338c:	12108093          	addi	ra,ra,289 # 21212121 <tdat10+0x21209c24>
    3390:	01f09193          	slli	gp,ra,0x1f
    3394:	800007b7          	lui	a5,0x80000
    3398:	01000713          	li	a4,16
    339c:	12f19e63          	bne	gp,a5,34d8 <fail>

000033a0 <test_17>:
    33a0:	00100093          	li	ra,1
    33a4:	00709093          	slli	ra,ra,0x7
    33a8:	08000793          	li	a5,128
    33ac:	01100713          	li	a4,17
    33b0:	12f09463          	bne	ra,a5,34d8 <fail>

000033b4 <test_18>:
    33b4:	00000213          	li	tp,0
    33b8:	00100093          	li	ra,1
    33bc:	00709193          	slli	gp,ra,0x7
    33c0:	00018313          	mv	t1,gp
    33c4:	00120213          	addi	tp,tp,1 # 1 <boot+0x1>
    33c8:	00200293          	li	t0,2
    33cc:	fe5216e3          	bne	tp,t0,33b8 <test_18+0x4>
    33d0:	08000793          	li	a5,128
    33d4:	01200713          	li	a4,18
    33d8:	10f31063          	bne	t1,a5,34d8 <fail>

000033dc <test_19>:
    33dc:	00000213          	li	tp,0
    33e0:	00100093          	li	ra,1
    33e4:	00e09193          	slli	gp,ra,0xe
    33e8:	00000013          	nop
    33ec:	00018313          	mv	t1,gp
    33f0:	00120213          	addi	tp,tp,1 # 1 <boot+0x1>
    33f4:	00200293          	li	t0,2
    33f8:	fe5214e3          	bne	tp,t0,33e0 <test_19+0x4>
    33fc:	000047b7          	lui	a5,0x4
    3400:	01300713          	li	a4,19
    3404:	0cf31a63          	bne	t1,a5,34d8 <fail>

00003408 <test_20>:
    3408:	00000213          	li	tp,0
    340c:	00100093          	li	ra,1
    3410:	01f09193          	slli	gp,ra,0x1f
    3414:	00000013          	nop
    3418:	00000013          	nop
    341c:	00018313          	mv	t1,gp
    3420:	00120213          	addi	tp,tp,1 # 1 <boot+0x1>
    3424:	00200293          	li	t0,2
    3428:	fe5212e3          	bne	tp,t0,340c <test_20+0x4>
    342c:	800007b7          	lui	a5,0x80000
    3430:	01400713          	li	a4,20
    3434:	0af31263          	bne	t1,a5,34d8 <fail>

00003438 <test_21>:
    3438:	00000213          	li	tp,0
    343c:	00100093          	li	ra,1
    3440:	00709193          	slli	gp,ra,0x7
    3444:	00120213          	addi	tp,tp,1 # 1 <boot+0x1>
    3448:	00200293          	li	t0,2
    344c:	fe5218e3          	bne	tp,t0,343c <test_21+0x4>
    3450:	08000793          	li	a5,128
    3454:	01500713          	li	a4,21
    3458:	08f19063          	bne	gp,a5,34d8 <fail>

0000345c <test_22>:
    345c:	00000213          	li	tp,0
    3460:	00100093          	li	ra,1
    3464:	00000013          	nop
    3468:	00e09193          	slli	gp,ra,0xe
    346c:	00120213          	addi	tp,tp,1 # 1 <boot+0x1>
    3470:	00200293          	li	t0,2
    3474:	fe5216e3          	bne	tp,t0,3460 <test_22+0x4>
    3478:	000047b7          	lui	a5,0x4
    347c:	01600713          	li	a4,22
    3480:	04f19c63          	bne	gp,a5,34d8 <fail>

00003484 <test_23>:
    3484:	00000213          	li	tp,0
    3488:	00100093          	li	ra,1
    348c:	00000013          	nop
    3490:	00000013          	nop
    3494:	01f09193          	slli	gp,ra,0x1f
    3498:	00120213          	addi	tp,tp,1 # 1 <boot+0x1>
    349c:	00200293          	li	t0,2
    34a0:	fe5214e3          	bne	tp,t0,3488 <test_23+0x4>
    34a4:	800007b7          	lui	a5,0x80000
    34a8:	01700713          	li	a4,23
    34ac:	02f19663          	bne	gp,a5,34d8 <fail>

000034b0 <test_24>:
    34b0:	01f01093          	slli	ra,zero,0x1f
    34b4:	00000793          	li	a5,0
    34b8:	01800713          	li	a4,24
    34bc:	00f09e63          	bne	ra,a5,34d8 <fail>

000034c0 <test_25>:
    34c0:	02100093          	li	ra,33
    34c4:	01409013          	slli	zero,ra,0x14
    34c8:	00000793          	li	a5,0
    34cc:	01900713          	li	a4,25
    34d0:	00f01463          	bne	zero,a5,34d8 <fail>
    34d4:	00e01663          	bne	zero,a4,34e0 <pass>

000034d8 <fail>:
    34d8:	c00fd0ef          	jal	ra,8d8 <failure>
    34dc:	00100073          	ebreak

000034e0 <pass>:
    34e0:	00009137          	lui	sp,0x9
    34e4:	c00fd0ef          	jal	ra,8e4 <OK>
    34e8:	d10fd06f          	j	9f8 <slli_ret>

000034ec <srli>:
    34ec:	00003537          	lui	a0,0x3
    34f0:	50c50513          	addi	a0,a0,1292 # 350c <.test_name>

000034f4 <loop>:
    34f4:	d69fc0ef          	jal	ra,25c <putstr>

000034f8 <.prname_next>:
    34f8:	00050583          	lb	a1,0(a0)
    34fc:	00058c63          	beqz	a1,3514 <.prname_done>
    3500:	00b62023          	sw	a1,0(a2)
    3504:	00150513          	addi	a0,a0,1
    3508:	ff1ff06f          	j	34f8 <.prname_next>

0000350c <.test_name>:
    350c:	696c7273          	csrrci	tp,0x696,24
    3510:	0000                	unimp
	...

00003514 <.prname_done>:
    3514:	02e00593          	li	a1,46
    3518:	00b62023          	sw	a1,0(a2)
    351c:	00b62023          	sw	a1,0(a2)

00003520 <test_2>:
    3520:	ffff80b7          	lui	ra,0xffff8
    3524:	0000d193          	srli	gp,ra,0x0
    3528:	ffff87b7          	lui	a5,0xffff8
    352c:	00200713          	li	a4,2
    3530:	2af19263          	bne	gp,a5,37d4 <fail>

00003534 <test_3>:
    3534:	ffff80b7          	lui	ra,0xffff8
    3538:	0010d193          	srli	gp,ra,0x1
    353c:	7fffc7b7          	lui	a5,0x7fffc
    3540:	00300713          	li	a4,3
    3544:	28f19863          	bne	gp,a5,37d4 <fail>

00003548 <test_4>:
    3548:	ffff80b7          	lui	ra,0xffff8
    354c:	0070d193          	srli	gp,ra,0x7
    3550:	020007b7          	lui	a5,0x2000
    3554:	f0078793          	addi	a5,a5,-256 # 1ffff00 <tdat10+0x1ff7a03>
    3558:	00400713          	li	a4,4
    355c:	26f19c63          	bne	gp,a5,37d4 <fail>

00003560 <test_5>:
    3560:	ffff80b7          	lui	ra,0xffff8
    3564:	00e0d193          	srli	gp,ra,0xe
    3568:	000407b7          	lui	a5,0x40
    356c:	ffe78793          	addi	a5,a5,-2 # 3fffe <tdat10+0x37b01>
    3570:	00500713          	li	a4,5
    3574:	26f19063          	bne	gp,a5,37d4 <fail>

00003578 <test_6>:
    3578:	ffff80b7          	lui	ra,0xffff8
    357c:	00108093          	addi	ra,ra,1 # ffff8001 <io+0x7fff8001>
    3580:	00f0d193          	srli	gp,ra,0xf
    3584:	000207b7          	lui	a5,0x20
    3588:	fff78793          	addi	a5,a5,-1 # 1ffff <tdat10+0x17b02>
    358c:	00600713          	li	a4,6
    3590:	24f19263          	bne	gp,a5,37d4 <fail>

00003594 <test_7>:
    3594:	fff00093          	li	ra,-1
    3598:	0000d193          	srli	gp,ra,0x0
    359c:	fff00793          	li	a5,-1
    35a0:	00700713          	li	a4,7
    35a4:	22f19863          	bne	gp,a5,37d4 <fail>

000035a8 <test_8>:
    35a8:	fff00093          	li	ra,-1
    35ac:	0010d193          	srli	gp,ra,0x1
    35b0:	800007b7          	lui	a5,0x80000
    35b4:	fff78793          	addi	a5,a5,-1 # 7fffffff <io+0xffffffff>
    35b8:	00800713          	li	a4,8
    35bc:	20f19c63          	bne	gp,a5,37d4 <fail>

000035c0 <test_9>:
    35c0:	fff00093          	li	ra,-1
    35c4:	0070d193          	srli	gp,ra,0x7
    35c8:	020007b7          	lui	a5,0x2000
    35cc:	fff78793          	addi	a5,a5,-1 # 1ffffff <tdat10+0x1ff7b02>
    35d0:	00900713          	li	a4,9
    35d4:	20f19063          	bne	gp,a5,37d4 <fail>

000035d8 <test_10>:
    35d8:	fff00093          	li	ra,-1
    35dc:	00e0d193          	srli	gp,ra,0xe
    35e0:	000407b7          	lui	a5,0x40
    35e4:	fff78793          	addi	a5,a5,-1 # 3ffff <tdat10+0x37b02>
    35e8:	00a00713          	li	a4,10
    35ec:	1ef19463          	bne	gp,a5,37d4 <fail>

000035f0 <test_11>:
    35f0:	fff00093          	li	ra,-1
    35f4:	01f0d193          	srli	gp,ra,0x1f
    35f8:	00100793          	li	a5,1
    35fc:	00b00713          	li	a4,11
    3600:	1cf19a63          	bne	gp,a5,37d4 <fail>

00003604 <test_12>:
    3604:	212120b7          	lui	ra,0x21212
    3608:	12108093          	addi	ra,ra,289 # 21212121 <tdat10+0x21209c24>
    360c:	0000d193          	srli	gp,ra,0x0
    3610:	212127b7          	lui	a5,0x21212
    3614:	12178793          	addi	a5,a5,289 # 21212121 <tdat10+0x21209c24>
    3618:	00c00713          	li	a4,12
    361c:	1af19c63          	bne	gp,a5,37d4 <fail>

00003620 <test_13>:
    3620:	212120b7          	lui	ra,0x21212
    3624:	12108093          	addi	ra,ra,289 # 21212121 <tdat10+0x21209c24>
    3628:	0010d193          	srli	gp,ra,0x1
    362c:	109097b7          	lui	a5,0x10909
    3630:	09078793          	addi	a5,a5,144 # 10909090 <tdat10+0x10900b93>
    3634:	00d00713          	li	a4,13
    3638:	18f19e63          	bne	gp,a5,37d4 <fail>

0000363c <test_14>:
    363c:	212120b7          	lui	ra,0x21212
    3640:	12108093          	addi	ra,ra,289 # 21212121 <tdat10+0x21209c24>
    3644:	0070d193          	srli	gp,ra,0x7
    3648:	004247b7          	lui	a5,0x424
    364c:	24278793          	addi	a5,a5,578 # 424242 <tdat10+0x41bd45>
    3650:	00e00713          	li	a4,14
    3654:	18f19063          	bne	gp,a5,37d4 <fail>

00003658 <test_15>:
    3658:	212120b7          	lui	ra,0x21212
    365c:	12108093          	addi	ra,ra,289 # 21212121 <tdat10+0x21209c24>
    3660:	00e0d193          	srli	gp,ra,0xe
    3664:	000087b7          	lui	a5,0x8
    3668:	48478793          	addi	a5,a5,1156 # 8484 <nxt.0+0x2e4>
    366c:	00f00713          	li	a4,15
    3670:	16f19263          	bne	gp,a5,37d4 <fail>

00003674 <test_16>:
    3674:	212120b7          	lui	ra,0x21212
    3678:	12108093          	addi	ra,ra,289 # 21212121 <tdat10+0x21209c24>
    367c:	01f0d193          	srli	gp,ra,0x1f
    3680:	00000793          	li	a5,0
    3684:	01000713          	li	a4,16
    3688:	14f19663          	bne	gp,a5,37d4 <fail>

0000368c <test_21>:
    368c:	ffff80b7          	lui	ra,0xffff8
    3690:	0010d093          	srli	ra,ra,0x1
    3694:	7fffc7b7          	lui	a5,0x7fffc
    3698:	01500713          	li	a4,21
    369c:	12f09c63          	bne	ra,a5,37d4 <fail>

000036a0 <test_22>:
    36a0:	00000213          	li	tp,0
    36a4:	ffff80b7          	lui	ra,0xffff8
    36a8:	0010d193          	srli	gp,ra,0x1
    36ac:	00018313          	mv	t1,gp
    36b0:	00120213          	addi	tp,tp,1 # 1 <boot+0x1>
    36b4:	00200293          	li	t0,2
    36b8:	fe5216e3          	bne	tp,t0,36a4 <test_22+0x4>
    36bc:	7fffc7b7          	lui	a5,0x7fffc
    36c0:	01600713          	li	a4,22
    36c4:	10f31863          	bne	t1,a5,37d4 <fail>

000036c8 <test_23>:
    36c8:	00000213          	li	tp,0
    36cc:	ffff80b7          	lui	ra,0xffff8
    36d0:	00e0d193          	srli	gp,ra,0xe
    36d4:	00000013          	nop
    36d8:	00018313          	mv	t1,gp
    36dc:	00120213          	addi	tp,tp,1 # 1 <boot+0x1>
    36e0:	00200293          	li	t0,2
    36e4:	fe5214e3          	bne	tp,t0,36cc <test_23+0x4>
    36e8:	000407b7          	lui	a5,0x40
    36ec:	ffe78793          	addi	a5,a5,-2 # 3fffe <tdat10+0x37b01>
    36f0:	01700713          	li	a4,23
    36f4:	0ef31063          	bne	t1,a5,37d4 <fail>

000036f8 <test_24>:
    36f8:	00000213          	li	tp,0
    36fc:	ffff80b7          	lui	ra,0xffff8
    3700:	00f0d193          	srli	gp,ra,0xf
    3704:	00000013          	nop
    3708:	00000013          	nop
    370c:	00018313          	mv	t1,gp
    3710:	00120213          	addi	tp,tp,1 # 1 <boot+0x1>
    3714:	00200293          	li	t0,2
    3718:	fe5212e3          	bne	tp,t0,36fc <test_24+0x4>
    371c:	000207b7          	lui	a5,0x20
    3720:	fff78793          	addi	a5,a5,-1 # 1ffff <tdat10+0x17b02>
    3724:	01800713          	li	a4,24
    3728:	0af31663          	bne	t1,a5,37d4 <fail>

0000372c <test_25>:
    372c:	00000213          	li	tp,0
    3730:	ffff80b7          	lui	ra,0xffff8
    3734:	0010d193          	srli	gp,ra,0x1
    3738:	00120213          	addi	tp,tp,1 # 1 <boot+0x1>
    373c:	00200293          	li	t0,2
    3740:	fe5218e3          	bne	tp,t0,3730 <test_25+0x4>
    3744:	7fffc7b7          	lui	a5,0x7fffc
    3748:	01900713          	li	a4,25
    374c:	08f19463          	bne	gp,a5,37d4 <fail>

00003750 <test_26>:
    3750:	00000213          	li	tp,0
    3754:	ffff80b7          	lui	ra,0xffff8
    3758:	00000013          	nop
    375c:	00e0d193          	srli	gp,ra,0xe
    3760:	00120213          	addi	tp,tp,1 # 1 <boot+0x1>
    3764:	00200293          	li	t0,2
    3768:	fe5216e3          	bne	tp,t0,3754 <test_26+0x4>
    376c:	000407b7          	lui	a5,0x40
    3770:	ffe78793          	addi	a5,a5,-2 # 3fffe <tdat10+0x37b01>
    3774:	01a00713          	li	a4,26
    3778:	04f19e63          	bne	gp,a5,37d4 <fail>

0000377c <test_27>:
    377c:	00000213          	li	tp,0
    3780:	ffff80b7          	lui	ra,0xffff8
    3784:	00000013          	nop
    3788:	00000013          	nop
    378c:	00f0d193          	srli	gp,ra,0xf
    3790:	00120213          	addi	tp,tp,1 # 1 <boot+0x1>
    3794:	00200293          	li	t0,2
    3798:	fe5214e3          	bne	tp,t0,3780 <test_27+0x4>
    379c:	000207b7          	lui	a5,0x20
    37a0:	fff78793          	addi	a5,a5,-1 # 1ffff <tdat10+0x17b02>
    37a4:	01b00713          	li	a4,27
    37a8:	02f19663          	bne	gp,a5,37d4 <fail>

000037ac <test_28>:
    37ac:	01f05093          	srli	ra,zero,0x1f
    37b0:	00000793          	li	a5,0
    37b4:	01c00713          	li	a4,28
    37b8:	00f09e63          	bne	ra,a5,37d4 <fail>

000037bc <test_29>:
    37bc:	02100093          	li	ra,33
    37c0:	0140d013          	srli	zero,ra,0x14
    37c4:	00000793          	li	a5,0
    37c8:	01d00713          	li	a4,29
    37cc:	00f01463          	bne	zero,a5,37d4 <fail>
    37d0:	00e01663          	bne	zero,a4,37dc <pass>

000037d4 <fail>:
    37d4:	904fd0ef          	jal	ra,8d8 <failure>
    37d8:	00100073          	ebreak

000037dc <pass>:
    37dc:	00009137          	lui	sp,0x9
    37e0:	904fd0ef          	jal	ra,8e4 <OK>
    37e4:	a1cfd06f          	j	a00 <srli_ret>

000037e8 <sw>:
    37e8:	00004537          	lui	a0,0x4
    37ec:	80850513          	addi	a0,a0,-2040 # 3808 <.test_name>

000037f0 <loop>:
    37f0:	a6dfc0ef          	jal	ra,25c <putstr>

000037f4 <.prname_next>:
    37f4:	00050583          	lb	a1,0(a0)
    37f8:	00058a63          	beqz	a1,380c <.prname_done>
    37fc:	00b62023          	sw	a1,0(a2)
    3800:	00150513          	addi	a0,a0,1
    3804:	ff1ff06f          	j	37f4 <.prname_next>

00003808 <.test_name>:
    3808:	00007773          	csrrci	a4,ustatus,0

0000380c <.prname_done>:
    380c:	02e00593          	li	a1,46
    3810:	00b62023          	sw	a1,0(a2)
    3814:	00b62023          	sw	a1,0(a2)

00003818 <test_2>:
    3818:	00005097          	auipc	ra,0x5
    381c:	c9808093          	addi	ra,ra,-872 # 84b0 <tdat>
    3820:	00aa0137          	lui	sp,0xaa0
    3824:	0aa10113          	addi	sp,sp,170 # aa00aa <tdat10+0xa97bad>
    3828:	0020a023          	sw	sp,0(ra)
    382c:	0000a183          	lw	gp,0(ra)
    3830:	00aa07b7          	lui	a5,0xaa0
    3834:	0aa78793          	addi	a5,a5,170 # aa00aa <tdat10+0xa97bad>
    3838:	00200713          	li	a4,2
    383c:	46f19063          	bne	gp,a5,3c9c <fail>

00003840 <test_3>:
    3840:	00005097          	auipc	ra,0x5
    3844:	c7008093          	addi	ra,ra,-912 # 84b0 <tdat>
    3848:	aa00b137          	lui	sp,0xaa00b
    384c:	a0010113          	addi	sp,sp,-1536 # aa00aa00 <io+0x2a00aa00>
    3850:	0020a223          	sw	sp,4(ra)
    3854:	0040a183          	lw	gp,4(ra)
    3858:	aa00b7b7          	lui	a5,0xaa00b
    385c:	a0078793          	addi	a5,a5,-1536 # aa00aa00 <io+0x2a00aa00>
    3860:	00300713          	li	a4,3
    3864:	42f19c63          	bne	gp,a5,3c9c <fail>

00003868 <test_4>:
    3868:	00005097          	auipc	ra,0x5
    386c:	c4808093          	addi	ra,ra,-952 # 84b0 <tdat>
    3870:	0aa01137          	lui	sp,0xaa01
    3874:	aa010113          	addi	sp,sp,-1376 # aa00aa0 <tdat10+0xa9f85a3>
    3878:	0020a423          	sw	sp,8(ra)
    387c:	0080a183          	lw	gp,8(ra)
    3880:	0aa017b7          	lui	a5,0xaa01
    3884:	aa078793          	addi	a5,a5,-1376 # aa00aa0 <tdat10+0xa9f85a3>
    3888:	00400713          	li	a4,4
    388c:	40f19863          	bne	gp,a5,3c9c <fail>

00003890 <test_5>:
    3890:	00005097          	auipc	ra,0x5
    3894:	c2008093          	addi	ra,ra,-992 # 84b0 <tdat>
    3898:	a00aa137          	lui	sp,0xa00aa
    389c:	00a10113          	addi	sp,sp,10 # a00aa00a <io+0x200aa00a>
    38a0:	0020a623          	sw	sp,12(ra)
    38a4:	00c0a183          	lw	gp,12(ra)
    38a8:	a00aa7b7          	lui	a5,0xa00aa
    38ac:	00a78793          	addi	a5,a5,10 # a00aa00a <io+0x200aa00a>
    38b0:	00500713          	li	a4,5
    38b4:	3ef19463          	bne	gp,a5,3c9c <fail>

000038b8 <test_6>:
    38b8:	00005097          	auipc	ra,0x5
    38bc:	c1408093          	addi	ra,ra,-1004 # 84cc <tdat8>
    38c0:	00aa0137          	lui	sp,0xaa0
    38c4:	0aa10113          	addi	sp,sp,170 # aa00aa <tdat10+0xa97bad>
    38c8:	fe20aa23          	sw	sp,-12(ra)
    38cc:	ff40a183          	lw	gp,-12(ra)
    38d0:	00aa07b7          	lui	a5,0xaa0
    38d4:	0aa78793          	addi	a5,a5,170 # aa00aa <tdat10+0xa97bad>
    38d8:	00600713          	li	a4,6
    38dc:	3cf19063          	bne	gp,a5,3c9c <fail>

000038e0 <test_7>:
    38e0:	00005097          	auipc	ra,0x5
    38e4:	bec08093          	addi	ra,ra,-1044 # 84cc <tdat8>
    38e8:	aa00b137          	lui	sp,0xaa00b
    38ec:	a0010113          	addi	sp,sp,-1536 # aa00aa00 <io+0x2a00aa00>
    38f0:	fe20ac23          	sw	sp,-8(ra)
    38f4:	ff80a183          	lw	gp,-8(ra)
    38f8:	aa00b7b7          	lui	a5,0xaa00b
    38fc:	a0078793          	addi	a5,a5,-1536 # aa00aa00 <io+0x2a00aa00>
    3900:	00700713          	li	a4,7
    3904:	38f19c63          	bne	gp,a5,3c9c <fail>

00003908 <test_8>:
    3908:	00005097          	auipc	ra,0x5
    390c:	bc408093          	addi	ra,ra,-1084 # 84cc <tdat8>
    3910:	0aa01137          	lui	sp,0xaa01
    3914:	aa010113          	addi	sp,sp,-1376 # aa00aa0 <tdat10+0xa9f85a3>
    3918:	fe20ae23          	sw	sp,-4(ra)
    391c:	ffc0a183          	lw	gp,-4(ra)
    3920:	0aa017b7          	lui	a5,0xaa01
    3924:	aa078793          	addi	a5,a5,-1376 # aa00aa0 <tdat10+0xa9f85a3>
    3928:	00800713          	li	a4,8
    392c:	36f19863          	bne	gp,a5,3c9c <fail>

00003930 <test_9>:
    3930:	00005097          	auipc	ra,0x5
    3934:	b9c08093          	addi	ra,ra,-1124 # 84cc <tdat8>
    3938:	a00aa137          	lui	sp,0xa00aa
    393c:	00a10113          	addi	sp,sp,10 # a00aa00a <io+0x200aa00a>
    3940:	0020a023          	sw	sp,0(ra)
    3944:	0000a183          	lw	gp,0(ra)
    3948:	a00aa7b7          	lui	a5,0xa00aa
    394c:	00a78793          	addi	a5,a5,10 # a00aa00a <io+0x200aa00a>
    3950:	00900713          	li	a4,9
    3954:	34f19463          	bne	gp,a5,3c9c <fail>

00003958 <test_10>:
    3958:	00005097          	auipc	ra,0x5
    395c:	b7808093          	addi	ra,ra,-1160 # 84d0 <tdat9>
    3960:	12345137          	lui	sp,0x12345
    3964:	67810113          	addi	sp,sp,1656 # 12345678 <tdat10+0x1233d17b>
    3968:	fe008213          	addi	tp,ra,-32
    396c:	02222023          	sw	sp,32(tp) # 20 <boot+0x20>
    3970:	0000a183          	lw	gp,0(ra)
    3974:	123457b7          	lui	a5,0x12345
    3978:	67878793          	addi	a5,a5,1656 # 12345678 <tdat10+0x1233d17b>
    397c:	00a00713          	li	a4,10
    3980:	30f19e63          	bne	gp,a5,3c9c <fail>

00003984 <test_11>:
    3984:	00005097          	auipc	ra,0x5
    3988:	b4c08093          	addi	ra,ra,-1204 # 84d0 <tdat9>
    398c:	58213137          	lui	sp,0x58213
    3990:	09810113          	addi	sp,sp,152 # 58213098 <tdat10+0x5820ab9b>
    3994:	ffd08093          	addi	ra,ra,-3
    3998:	0020a3a3          	sw	sp,7(ra)
    399c:	00005217          	auipc	tp,0x5
    39a0:	b3820213          	addi	tp,tp,-1224 # 84d4 <tdat10>
    39a4:	00022183          	lw	gp,0(tp) # 0 <boot>
    39a8:	582137b7          	lui	a5,0x58213
    39ac:	09878793          	addi	a5,a5,152 # 58213098 <tdat10+0x5820ab9b>
    39b0:	00b00713          	li	a4,11
    39b4:	2ef19463          	bne	gp,a5,3c9c <fail>

000039b8 <test_12>:
    39b8:	00c00713          	li	a4,12
    39bc:	00000213          	li	tp,0
    39c0:	aabbd0b7          	lui	ra,0xaabbd
    39c4:	cdd08093          	addi	ra,ra,-803 # aabbccdd <io+0x2abbccdd>
    39c8:	00005117          	auipc	sp,0x5
    39cc:	ae810113          	addi	sp,sp,-1304 # 84b0 <tdat>
    39d0:	00112023          	sw	ra,0(sp)
    39d4:	00012183          	lw	gp,0(sp)
    39d8:	aabbd7b7          	lui	a5,0xaabbd
    39dc:	cdd78793          	addi	a5,a5,-803 # aabbccdd <io+0x2abbccdd>
    39e0:	2af19e63          	bne	gp,a5,3c9c <fail>
    39e4:	00120213          	addi	tp,tp,1 # 1 <boot+0x1>
    39e8:	00200293          	li	t0,2
    39ec:	fc521ae3          	bne	tp,t0,39c0 <test_12+0x8>

000039f0 <test_13>:
    39f0:	00d00713          	li	a4,13
    39f4:	00000213          	li	tp,0
    39f8:	daabc0b7          	lui	ra,0xdaabc
    39fc:	ccd08093          	addi	ra,ra,-819 # daabbccd <io+0x5aabbccd>
    3a00:	00005117          	auipc	sp,0x5
    3a04:	ab010113          	addi	sp,sp,-1360 # 84b0 <tdat>
    3a08:	00000013          	nop
    3a0c:	00112223          	sw	ra,4(sp)
    3a10:	00412183          	lw	gp,4(sp)
    3a14:	daabc7b7          	lui	a5,0xdaabc
    3a18:	ccd78793          	addi	a5,a5,-819 # daabbccd <io+0x5aabbccd>
    3a1c:	28f19063          	bne	gp,a5,3c9c <fail>
    3a20:	00120213          	addi	tp,tp,1 # 1 <boot+0x1>
    3a24:	00200293          	li	t0,2
    3a28:	fc5218e3          	bne	tp,t0,39f8 <test_13+0x8>

00003a2c <test_14>:
    3a2c:	00e00713          	li	a4,14
    3a30:	00000213          	li	tp,0
    3a34:	ddaac0b7          	lui	ra,0xddaac
    3a38:	bcc08093          	addi	ra,ra,-1076 # ddaabbcc <io+0x5daabbcc>
    3a3c:	00005117          	auipc	sp,0x5
    3a40:	a7410113          	addi	sp,sp,-1420 # 84b0 <tdat>
    3a44:	00000013          	nop
    3a48:	00000013          	nop
    3a4c:	00112423          	sw	ra,8(sp)
    3a50:	00812183          	lw	gp,8(sp)
    3a54:	ddaac7b7          	lui	a5,0xddaac
    3a58:	bcc78793          	addi	a5,a5,-1076 # ddaabbcc <io+0x5daabbcc>
    3a5c:	24f19063          	bne	gp,a5,3c9c <fail>
    3a60:	00120213          	addi	tp,tp,1 # 1 <boot+0x1>
    3a64:	00200293          	li	t0,2
    3a68:	fc5216e3          	bne	tp,t0,3a34 <test_14+0x8>

00003a6c <test_15>:
    3a6c:	00f00713          	li	a4,15
    3a70:	00000213          	li	tp,0
    3a74:	cddab0b7          	lui	ra,0xcddab
    3a78:	bbc08093          	addi	ra,ra,-1092 # cddaabbc <io+0x4ddaabbc>
    3a7c:	00000013          	nop
    3a80:	00005117          	auipc	sp,0x5
    3a84:	a3010113          	addi	sp,sp,-1488 # 84b0 <tdat>
    3a88:	00112623          	sw	ra,12(sp)
    3a8c:	00c12183          	lw	gp,12(sp)
    3a90:	cddab7b7          	lui	a5,0xcddab
    3a94:	bbc78793          	addi	a5,a5,-1092 # cddaabbc <io+0x4ddaabbc>
    3a98:	20f19263          	bne	gp,a5,3c9c <fail>
    3a9c:	00120213          	addi	tp,tp,1 # 1 <boot+0x1>
    3aa0:	00200293          	li	t0,2
    3aa4:	fc5218e3          	bne	tp,t0,3a74 <test_15+0x8>

00003aa8 <test_16>:
    3aa8:	01000713          	li	a4,16
    3aac:	00000213          	li	tp,0
    3ab0:	ccddb0b7          	lui	ra,0xccddb
    3ab4:	abb08093          	addi	ra,ra,-1349 # ccddaabb <io+0x4cddaabb>
    3ab8:	00000013          	nop
    3abc:	00005117          	auipc	sp,0x5
    3ac0:	9f410113          	addi	sp,sp,-1548 # 84b0 <tdat>
    3ac4:	00000013          	nop
    3ac8:	00112823          	sw	ra,16(sp)
    3acc:	01012183          	lw	gp,16(sp)
    3ad0:	ccddb7b7          	lui	a5,0xccddb
    3ad4:	abb78793          	addi	a5,a5,-1349 # ccddaabb <io+0x4cddaabb>
    3ad8:	1cf19263          	bne	gp,a5,3c9c <fail>
    3adc:	00120213          	addi	tp,tp,1 # 1 <boot+0x1>
    3ae0:	00200293          	li	t0,2
    3ae4:	fc5216e3          	bne	tp,t0,3ab0 <test_16+0x8>

00003ae8 <test_17>:
    3ae8:	01100713          	li	a4,17
    3aec:	00000213          	li	tp,0
    3af0:	bccde0b7          	lui	ra,0xbccde
    3af4:	aab08093          	addi	ra,ra,-1365 # bccddaab <io+0x3ccddaab>
    3af8:	00000013          	nop
    3afc:	00000013          	nop
    3b00:	00005117          	auipc	sp,0x5
    3b04:	9b010113          	addi	sp,sp,-1616 # 84b0 <tdat>
    3b08:	00112a23          	sw	ra,20(sp)
    3b0c:	01412183          	lw	gp,20(sp)
    3b10:	bccde7b7          	lui	a5,0xbccde
    3b14:	aab78793          	addi	a5,a5,-1365 # bccddaab <io+0x3ccddaab>
    3b18:	18f19263          	bne	gp,a5,3c9c <fail>
    3b1c:	00120213          	addi	tp,tp,1 # 1 <boot+0x1>
    3b20:	00200293          	li	t0,2
    3b24:	fc5216e3          	bne	tp,t0,3af0 <test_17+0x8>

00003b28 <test_18>:
    3b28:	01200713          	li	a4,18
    3b2c:	00000213          	li	tp,0
    3b30:	00005117          	auipc	sp,0x5
    3b34:	98010113          	addi	sp,sp,-1664 # 84b0 <tdat>
    3b38:	001120b7          	lui	ra,0x112
    3b3c:	23308093          	addi	ra,ra,563 # 112233 <tdat10+0x109d36>
    3b40:	00112023          	sw	ra,0(sp)
    3b44:	00012183          	lw	gp,0(sp)
    3b48:	001127b7          	lui	a5,0x112
    3b4c:	23378793          	addi	a5,a5,563 # 112233 <tdat10+0x109d36>
    3b50:	14f19663          	bne	gp,a5,3c9c <fail>
    3b54:	00120213          	addi	tp,tp,1 # 1 <boot+0x1>
    3b58:	00200293          	li	t0,2
    3b5c:	fc521ae3          	bne	tp,t0,3b30 <test_18+0x8>

00003b60 <test_19>:
    3b60:	01300713          	li	a4,19
    3b64:	00000213          	li	tp,0
    3b68:	00005117          	auipc	sp,0x5
    3b6c:	94810113          	addi	sp,sp,-1720 # 84b0 <tdat>
    3b70:	300110b7          	lui	ra,0x30011
    3b74:	22308093          	addi	ra,ra,547 # 30011223 <tdat10+0x30008d26>
    3b78:	00000013          	nop
    3b7c:	00112223          	sw	ra,4(sp)
    3b80:	00412183          	lw	gp,4(sp)
    3b84:	300117b7          	lui	a5,0x30011
    3b88:	22378793          	addi	a5,a5,547 # 30011223 <tdat10+0x30008d26>
    3b8c:	10f19863          	bne	gp,a5,3c9c <fail>
    3b90:	00120213          	addi	tp,tp,1 # 1 <boot+0x1>
    3b94:	00200293          	li	t0,2
    3b98:	fc5218e3          	bne	tp,t0,3b68 <test_19+0x8>

00003b9c <test_20>:
    3b9c:	01400713          	li	a4,20
    3ba0:	00000213          	li	tp,0
    3ba4:	00005117          	auipc	sp,0x5
    3ba8:	90c10113          	addi	sp,sp,-1780 # 84b0 <tdat>
    3bac:	330010b7          	lui	ra,0x33001
    3bb0:	12208093          	addi	ra,ra,290 # 33001122 <tdat10+0x32ff8c25>
    3bb4:	00000013          	nop
    3bb8:	00000013          	nop
    3bbc:	00112423          	sw	ra,8(sp)
    3bc0:	00812183          	lw	gp,8(sp)
    3bc4:	330017b7          	lui	a5,0x33001
    3bc8:	12278793          	addi	a5,a5,290 # 33001122 <tdat10+0x32ff8c25>
    3bcc:	0cf19863          	bne	gp,a5,3c9c <fail>
    3bd0:	00120213          	addi	tp,tp,1 # 1 <boot+0x1>
    3bd4:	00200293          	li	t0,2
    3bd8:	fc5216e3          	bne	tp,t0,3ba4 <test_20+0x8>

00003bdc <test_21>:
    3bdc:	01500713          	li	a4,21
    3be0:	00000213          	li	tp,0
    3be4:	00005117          	auipc	sp,0x5
    3be8:	8cc10113          	addi	sp,sp,-1844 # 84b0 <tdat>
    3bec:	00000013          	nop
    3bf0:	233000b7          	lui	ra,0x23300
    3bf4:	11208093          	addi	ra,ra,274 # 23300112 <tdat10+0x232f7c15>
    3bf8:	00112623          	sw	ra,12(sp)
    3bfc:	00c12183          	lw	gp,12(sp)
    3c00:	233007b7          	lui	a5,0x23300
    3c04:	11278793          	addi	a5,a5,274 # 23300112 <tdat10+0x232f7c15>
    3c08:	08f19a63          	bne	gp,a5,3c9c <fail>
    3c0c:	00120213          	addi	tp,tp,1 # 1 <boot+0x1>
    3c10:	00200293          	li	t0,2
    3c14:	fc5218e3          	bne	tp,t0,3be4 <test_21+0x8>

00003c18 <test_22>:
    3c18:	01600713          	li	a4,22
    3c1c:	00000213          	li	tp,0
    3c20:	00005117          	auipc	sp,0x5
    3c24:	89010113          	addi	sp,sp,-1904 # 84b0 <tdat>
    3c28:	00000013          	nop
    3c2c:	223300b7          	lui	ra,0x22330
    3c30:	01108093          	addi	ra,ra,17 # 22330011 <tdat10+0x22327b14>
    3c34:	00000013          	nop
    3c38:	00112823          	sw	ra,16(sp)
    3c3c:	01012183          	lw	gp,16(sp)
    3c40:	223307b7          	lui	a5,0x22330
    3c44:	01178793          	addi	a5,a5,17 # 22330011 <tdat10+0x22327b14>
    3c48:	04f19a63          	bne	gp,a5,3c9c <fail>
    3c4c:	00120213          	addi	tp,tp,1 # 1 <boot+0x1>
    3c50:	00200293          	li	t0,2
    3c54:	fc5216e3          	bne	tp,t0,3c20 <test_22+0x8>

00003c58 <test_23>:
    3c58:	01700713          	li	a4,23
    3c5c:	00000213          	li	tp,0
    3c60:	00005117          	auipc	sp,0x5
    3c64:	85010113          	addi	sp,sp,-1968 # 84b0 <tdat>
    3c68:	00000013          	nop
    3c6c:	00000013          	nop
    3c70:	122330b7          	lui	ra,0x12233
    3c74:	00108093          	addi	ra,ra,1 # 12233001 <tdat10+0x1222ab04>
    3c78:	00112a23          	sw	ra,20(sp)
    3c7c:	01412183          	lw	gp,20(sp)
    3c80:	122337b7          	lui	a5,0x12233
    3c84:	00178793          	addi	a5,a5,1 # 12233001 <tdat10+0x1222ab04>
    3c88:	00f19a63          	bne	gp,a5,3c9c <fail>
    3c8c:	00120213          	addi	tp,tp,1 # 1 <boot+0x1>
    3c90:	00200293          	li	t0,2
    3c94:	fc5216e3          	bne	tp,t0,3c60 <test_23+0x8>
    3c98:	00e01663          	bne	zero,a4,3ca4 <pass>

00003c9c <fail>:
    3c9c:	c3dfc0ef          	jal	ra,8d8 <failure>
    3ca0:	00100073          	ebreak

00003ca4 <pass>:
    3ca4:	00009137          	lui	sp,0x9
    3ca8:	c3dfc0ef          	jal	ra,8e4 <OK>
    3cac:	d1dfc06f          	j	9c8 <sw_ret>

00003cb0 <lw>:
    3cb0:	00004537          	lui	a0,0x4
    3cb4:	cd050513          	addi	a0,a0,-816 # 3cd0 <.test_name>

00003cb8 <loop>:
    3cb8:	da4fc0ef          	jal	ra,25c <putstr>

00003cbc <.prname_next>:
    3cbc:	00050583          	lb	a1,0(a0)
    3cc0:	00058a63          	beqz	a1,3cd4 <.prname_done>
    3cc4:	00b62023          	sw	a1,0(a2)
    3cc8:	00150513          	addi	a0,a0,1
    3ccc:	ff1ff06f          	j	3cbc <.prname_next>

00003cd0 <.test_name>:
    3cd0:	776c                	flw	fa1,108(a4)
	...

00003cd4 <.prname_done>:
    3cd4:	02e00593          	li	a1,46
    3cd8:	00b62023          	sw	a1,0(a2)
    3cdc:	00b62023          	sw	a1,0(a2)

00003ce0 <test_2>:
    3ce0:	00004097          	auipc	ra,0x4
    3ce4:	7f808093          	addi	ra,ra,2040 # 84d8 <tdat>
    3ce8:	0000a183          	lw	gp,0(ra)
    3cec:	00ff07b7          	lui	a5,0xff0
    3cf0:	0ff78793          	addi	a5,a5,255 # ff00ff <tdat10+0xfe7c02>
    3cf4:	00200713          	li	a4,2
    3cf8:	26f19a63          	bne	gp,a5,3f6c <fail>

00003cfc <test_3>:
    3cfc:	00004097          	auipc	ra,0x4
    3d00:	7dc08093          	addi	ra,ra,2012 # 84d8 <tdat>
    3d04:	0040a183          	lw	gp,4(ra)
    3d08:	ff0107b7          	lui	a5,0xff010
    3d0c:	f0078793          	addi	a5,a5,-256 # ff00ff00 <io+0x7f00ff00>
    3d10:	00300713          	li	a4,3
    3d14:	24f19c63          	bne	gp,a5,3f6c <fail>

00003d18 <test_4>:
    3d18:	00004097          	auipc	ra,0x4
    3d1c:	7c008093          	addi	ra,ra,1984 # 84d8 <tdat>
    3d20:	0080a183          	lw	gp,8(ra)
    3d24:	0ff017b7          	lui	a5,0xff01
    3d28:	ff078793          	addi	a5,a5,-16 # ff00ff0 <tdat10+0xfef8af3>
    3d2c:	00400713          	li	a4,4
    3d30:	22f19e63          	bne	gp,a5,3f6c <fail>

00003d34 <test_5>:
    3d34:	00004097          	auipc	ra,0x4
    3d38:	7a408093          	addi	ra,ra,1956 # 84d8 <tdat>
    3d3c:	00c0a183          	lw	gp,12(ra)
    3d40:	f00ff7b7          	lui	a5,0xf00ff
    3d44:	00f78793          	addi	a5,a5,15 # f00ff00f <io+0x700ff00f>
    3d48:	00500713          	li	a4,5
    3d4c:	22f19063          	bne	gp,a5,3f6c <fail>

00003d50 <test_6>:
    3d50:	00004097          	auipc	ra,0x4
    3d54:	79408093          	addi	ra,ra,1940 # 84e4 <tdat4>
    3d58:	ff40a183          	lw	gp,-12(ra)
    3d5c:	00ff07b7          	lui	a5,0xff0
    3d60:	0ff78793          	addi	a5,a5,255 # ff00ff <tdat10+0xfe7c02>
    3d64:	00600713          	li	a4,6
    3d68:	20f19263          	bne	gp,a5,3f6c <fail>

00003d6c <test_7>:
    3d6c:	00004097          	auipc	ra,0x4
    3d70:	77808093          	addi	ra,ra,1912 # 84e4 <tdat4>
    3d74:	ff80a183          	lw	gp,-8(ra)
    3d78:	ff0107b7          	lui	a5,0xff010
    3d7c:	f0078793          	addi	a5,a5,-256 # ff00ff00 <io+0x7f00ff00>
    3d80:	00700713          	li	a4,7
    3d84:	1ef19463          	bne	gp,a5,3f6c <fail>

00003d88 <test_8>:
    3d88:	00004097          	auipc	ra,0x4
    3d8c:	75c08093          	addi	ra,ra,1884 # 84e4 <tdat4>
    3d90:	ffc0a183          	lw	gp,-4(ra)
    3d94:	0ff017b7          	lui	a5,0xff01
    3d98:	ff078793          	addi	a5,a5,-16 # ff00ff0 <tdat10+0xfef8af3>
    3d9c:	00800713          	li	a4,8
    3da0:	1cf19663          	bne	gp,a5,3f6c <fail>

00003da4 <test_9>:
    3da4:	00004097          	auipc	ra,0x4
    3da8:	74008093          	addi	ra,ra,1856 # 84e4 <tdat4>
    3dac:	0000a183          	lw	gp,0(ra)
    3db0:	f00ff7b7          	lui	a5,0xf00ff
    3db4:	00f78793          	addi	a5,a5,15 # f00ff00f <io+0x700ff00f>
    3db8:	00900713          	li	a4,9
    3dbc:	1af19863          	bne	gp,a5,3f6c <fail>

00003dc0 <test_10>:
    3dc0:	00004097          	auipc	ra,0x4
    3dc4:	71808093          	addi	ra,ra,1816 # 84d8 <tdat>
    3dc8:	fe008093          	addi	ra,ra,-32
    3dcc:	0200a183          	lw	gp,32(ra)
    3dd0:	00ff07b7          	lui	a5,0xff0
    3dd4:	0ff78793          	addi	a5,a5,255 # ff00ff <tdat10+0xfe7c02>
    3dd8:	00a00713          	li	a4,10
    3ddc:	18f19863          	bne	gp,a5,3f6c <fail>

00003de0 <test_11>:
    3de0:	00004097          	auipc	ra,0x4
    3de4:	6f808093          	addi	ra,ra,1784 # 84d8 <tdat>
    3de8:	ffd08093          	addi	ra,ra,-3
    3dec:	0070a183          	lw	gp,7(ra)
    3df0:	ff0107b7          	lui	a5,0xff010
    3df4:	f0078793          	addi	a5,a5,-256 # ff00ff00 <io+0x7f00ff00>
    3df8:	00b00713          	li	a4,11
    3dfc:	16f19863          	bne	gp,a5,3f6c <fail>

00003e00 <test_12>:
    3e00:	00c00713          	li	a4,12
    3e04:	00000213          	li	tp,0
    3e08:	00004097          	auipc	ra,0x4
    3e0c:	6d408093          	addi	ra,ra,1748 # 84dc <tdat2>
    3e10:	0040a183          	lw	gp,4(ra)
    3e14:	00018313          	mv	t1,gp
    3e18:	0ff017b7          	lui	a5,0xff01
    3e1c:	ff078793          	addi	a5,a5,-16 # ff00ff0 <tdat10+0xfef8af3>
    3e20:	14f31663          	bne	t1,a5,3f6c <fail>
    3e24:	00120213          	addi	tp,tp,1 # 1 <boot+0x1>
    3e28:	00200293          	li	t0,2
    3e2c:	fc521ee3          	bne	tp,t0,3e08 <test_12+0x8>

00003e30 <test_13>:
    3e30:	00d00713          	li	a4,13
    3e34:	00000213          	li	tp,0
    3e38:	00004097          	auipc	ra,0x4
    3e3c:	6a808093          	addi	ra,ra,1704 # 84e0 <tdat3>
    3e40:	0040a183          	lw	gp,4(ra)
    3e44:	00000013          	nop
    3e48:	00018313          	mv	t1,gp
    3e4c:	f00ff7b7          	lui	a5,0xf00ff
    3e50:	00f78793          	addi	a5,a5,15 # f00ff00f <io+0x700ff00f>
    3e54:	10f31c63          	bne	t1,a5,3f6c <fail>
    3e58:	00120213          	addi	tp,tp,1 # 1 <boot+0x1>
    3e5c:	00200293          	li	t0,2
    3e60:	fc521ce3          	bne	tp,t0,3e38 <test_13+0x8>

00003e64 <test_14>:
    3e64:	00e00713          	li	a4,14
    3e68:	00000213          	li	tp,0
    3e6c:	00004097          	auipc	ra,0x4
    3e70:	66c08093          	addi	ra,ra,1644 # 84d8 <tdat>
    3e74:	0040a183          	lw	gp,4(ra)
    3e78:	00000013          	nop
    3e7c:	00000013          	nop
    3e80:	00018313          	mv	t1,gp
    3e84:	ff0107b7          	lui	a5,0xff010
    3e88:	f0078793          	addi	a5,a5,-256 # ff00ff00 <io+0x7f00ff00>
    3e8c:	0ef31063          	bne	t1,a5,3f6c <fail>
    3e90:	00120213          	addi	tp,tp,1 # 1 <boot+0x1>
    3e94:	00200293          	li	t0,2
    3e98:	fc521ae3          	bne	tp,t0,3e6c <test_14+0x8>

00003e9c <test_15>:
    3e9c:	00f00713          	li	a4,15
    3ea0:	00000213          	li	tp,0
    3ea4:	00004097          	auipc	ra,0x4
    3ea8:	63808093          	addi	ra,ra,1592 # 84dc <tdat2>
    3eac:	0040a183          	lw	gp,4(ra)
    3eb0:	0ff017b7          	lui	a5,0xff01
    3eb4:	ff078793          	addi	a5,a5,-16 # ff00ff0 <tdat10+0xfef8af3>
    3eb8:	0af19a63          	bne	gp,a5,3f6c <fail>
    3ebc:	00120213          	addi	tp,tp,1 # 1 <boot+0x1>
    3ec0:	00200293          	li	t0,2
    3ec4:	fe5210e3          	bne	tp,t0,3ea4 <test_15+0x8>

00003ec8 <test_16>:
    3ec8:	01000713          	li	a4,16
    3ecc:	00000213          	li	tp,0
    3ed0:	00004097          	auipc	ra,0x4
    3ed4:	61008093          	addi	ra,ra,1552 # 84e0 <tdat3>
    3ed8:	00000013          	nop
    3edc:	0040a183          	lw	gp,4(ra)
    3ee0:	f00ff7b7          	lui	a5,0xf00ff
    3ee4:	00f78793          	addi	a5,a5,15 # f00ff00f <io+0x700ff00f>
    3ee8:	08f19263          	bne	gp,a5,3f6c <fail>
    3eec:	00120213          	addi	tp,tp,1 # 1 <boot+0x1>
    3ef0:	00200293          	li	t0,2
    3ef4:	fc521ee3          	bne	tp,t0,3ed0 <test_16+0x8>

00003ef8 <test_17>:
    3ef8:	01100713          	li	a4,17
    3efc:	00000213          	li	tp,0
    3f00:	00004097          	auipc	ra,0x4
    3f04:	5d808093          	addi	ra,ra,1496 # 84d8 <tdat>
    3f08:	00000013          	nop
    3f0c:	00000013          	nop
    3f10:	0040a183          	lw	gp,4(ra)
    3f14:	ff0107b7          	lui	a5,0xff010
    3f18:	f0078793          	addi	a5,a5,-256 # ff00ff00 <io+0x7f00ff00>
    3f1c:	04f19863          	bne	gp,a5,3f6c <fail>
    3f20:	00120213          	addi	tp,tp,1 # 1 <boot+0x1>
    3f24:	00200293          	li	t0,2
    3f28:	fc521ce3          	bne	tp,t0,3f00 <test_17+0x8>

00003f2c <test_18>:
    3f2c:	00004197          	auipc	gp,0x4
    3f30:	5ac18193          	addi	gp,gp,1452 # 84d8 <tdat>
    3f34:	0001a103          	lw	sp,0(gp)
    3f38:	00200113          	li	sp,2
    3f3c:	00200793          	li	a5,2
    3f40:	01200713          	li	a4,18
    3f44:	02f11463          	bne	sp,a5,3f6c <fail>

00003f48 <test_19>:
    3f48:	00004197          	auipc	gp,0x4
    3f4c:	59018193          	addi	gp,gp,1424 # 84d8 <tdat>
    3f50:	0001a103          	lw	sp,0(gp)
    3f54:	00000013          	nop
    3f58:	00200113          	li	sp,2
    3f5c:	00200793          	li	a5,2
    3f60:	01300713          	li	a4,19
    3f64:	00f11463          	bne	sp,a5,3f6c <fail>
    3f68:	00e01663          	bne	zero,a4,3f74 <pass>

00003f6c <fail>:
    3f6c:	96dfc0ef          	jal	ra,8d8 <failure>
    3f70:	00100073          	ebreak

00003f74 <pass>:
    3f74:	00009137          	lui	sp,0x9
    3f78:	96dfc0ef          	jal	ra,8e4 <OK>
    3f7c:	a25fc06f          	j	9a0 <lw_ret>

00003f80 <beq>:
    3f80:	00004537          	lui	a0,0x4
    3f84:	fa050513          	addi	a0,a0,-96 # 3fa0 <.test_name>

00003f88 <loop>:
    3f88:	ad4fc0ef          	jal	ra,25c <putstr>

00003f8c <.prname_next>:
    3f8c:	00050583          	lb	a1,0(a0)
    3f90:	00058a63          	beqz	a1,3fa4 <.prname_done>
    3f94:	00b62023          	sw	a1,0(a2)
    3f98:	00150513          	addi	a0,a0,1
    3f9c:	ff1ff06f          	j	3f8c <.prname_next>

00003fa0 <.test_name>:
    3fa0:	6562                	flw	fa0,24(sp)
    3fa2:	0071                	c.nop	28

00003fa4 <.prname_done>:
    3fa4:	02e00593          	li	a1,46
    3fa8:	00b62023          	sw	a1,0(a2)
    3fac:	00b62023          	sw	a1,0(a2)

00003fb0 <test_2>:
    3fb0:	00200713          	li	a4,2
    3fb4:	00000093          	li	ra,0
    3fb8:	00000113          	li	sp,0
    3fbc:	00208663          	beq	ra,sp,3fc8 <test_2+0x18>
    3fc0:	2ae01863          	bne	zero,a4,4270 <fail>
    3fc4:	00e01663          	bne	zero,a4,3fd0 <test_3>
    3fc8:	fe208ee3          	beq	ra,sp,3fc4 <test_2+0x14>
    3fcc:	2ae01263          	bne	zero,a4,4270 <fail>

00003fd0 <test_3>:
    3fd0:	00300713          	li	a4,3
    3fd4:	00100093          	li	ra,1
    3fd8:	00100113          	li	sp,1
    3fdc:	00208663          	beq	ra,sp,3fe8 <test_3+0x18>
    3fe0:	28e01863          	bne	zero,a4,4270 <fail>
    3fe4:	00e01663          	bne	zero,a4,3ff0 <test_4>
    3fe8:	fe208ee3          	beq	ra,sp,3fe4 <test_3+0x14>
    3fec:	28e01263          	bne	zero,a4,4270 <fail>

00003ff0 <test_4>:
    3ff0:	00400713          	li	a4,4
    3ff4:	fff00093          	li	ra,-1
    3ff8:	fff00113          	li	sp,-1
    3ffc:	00208663          	beq	ra,sp,4008 <test_4+0x18>
    4000:	26e01863          	bne	zero,a4,4270 <fail>
    4004:	00e01663          	bne	zero,a4,4010 <test_5>
    4008:	fe208ee3          	beq	ra,sp,4004 <test_4+0x14>
    400c:	26e01263          	bne	zero,a4,4270 <fail>

00004010 <test_5>:
    4010:	00500713          	li	a4,5
    4014:	00000093          	li	ra,0
    4018:	00100113          	li	sp,1
    401c:	00208463          	beq	ra,sp,4024 <test_5+0x14>
    4020:	00e01463          	bne	zero,a4,4028 <test_5+0x18>
    4024:	24e01663          	bne	zero,a4,4270 <fail>
    4028:	fe208ee3          	beq	ra,sp,4024 <test_5+0x14>

0000402c <test_6>:
    402c:	00600713          	li	a4,6
    4030:	00100093          	li	ra,1
    4034:	00000113          	li	sp,0
    4038:	00208463          	beq	ra,sp,4040 <test_6+0x14>
    403c:	00e01463          	bne	zero,a4,4044 <test_6+0x18>
    4040:	22e01863          	bne	zero,a4,4270 <fail>
    4044:	fe208ee3          	beq	ra,sp,4040 <test_6+0x14>

00004048 <test_7>:
    4048:	00700713          	li	a4,7
    404c:	fff00093          	li	ra,-1
    4050:	00100113          	li	sp,1
    4054:	00208463          	beq	ra,sp,405c <test_7+0x14>
    4058:	00e01463          	bne	zero,a4,4060 <test_7+0x18>
    405c:	20e01a63          	bne	zero,a4,4270 <fail>
    4060:	fe208ee3          	beq	ra,sp,405c <test_7+0x14>

00004064 <test_8>:
    4064:	00800713          	li	a4,8
    4068:	00100093          	li	ra,1
    406c:	fff00113          	li	sp,-1
    4070:	00208463          	beq	ra,sp,4078 <test_8+0x14>
    4074:	00e01463          	bne	zero,a4,407c <test_8+0x18>
    4078:	1ee01c63          	bne	zero,a4,4270 <fail>
    407c:	fe208ee3          	beq	ra,sp,4078 <test_8+0x14>

00004080 <test_9>:
    4080:	00900713          	li	a4,9
    4084:	00000213          	li	tp,0
    4088:	00000093          	li	ra,0
    408c:	fff00113          	li	sp,-1
    4090:	1e208063          	beq	ra,sp,4270 <fail>
    4094:	00120213          	addi	tp,tp,1 # 1 <boot+0x1>
    4098:	00200293          	li	t0,2
    409c:	fe5216e3          	bne	tp,t0,4088 <test_9+0x8>

000040a0 <test_10>:
    40a0:	00a00713          	li	a4,10
    40a4:	00000213          	li	tp,0
    40a8:	00000093          	li	ra,0
    40ac:	fff00113          	li	sp,-1
    40b0:	00000013          	nop
    40b4:	1a208e63          	beq	ra,sp,4270 <fail>
    40b8:	00120213          	addi	tp,tp,1 # 1 <boot+0x1>
    40bc:	00200293          	li	t0,2
    40c0:	fe5214e3          	bne	tp,t0,40a8 <test_10+0x8>

000040c4 <test_11>:
    40c4:	00b00713          	li	a4,11
    40c8:	00000213          	li	tp,0
    40cc:	00000093          	li	ra,0
    40d0:	fff00113          	li	sp,-1
    40d4:	00000013          	nop
    40d8:	00000013          	nop
    40dc:	18208a63          	beq	ra,sp,4270 <fail>
    40e0:	00120213          	addi	tp,tp,1 # 1 <boot+0x1>
    40e4:	00200293          	li	t0,2
    40e8:	fe5212e3          	bne	tp,t0,40cc <test_11+0x8>

000040ec <test_12>:
    40ec:	00c00713          	li	a4,12
    40f0:	00000213          	li	tp,0
    40f4:	00000093          	li	ra,0
    40f8:	00000013          	nop
    40fc:	fff00113          	li	sp,-1
    4100:	16208863          	beq	ra,sp,4270 <fail>
    4104:	00120213          	addi	tp,tp,1 # 1 <boot+0x1>
    4108:	00200293          	li	t0,2
    410c:	fe5214e3          	bne	tp,t0,40f4 <test_12+0x8>

00004110 <test_13>:
    4110:	00d00713          	li	a4,13
    4114:	00000213          	li	tp,0
    4118:	00000093          	li	ra,0
    411c:	00000013          	nop
    4120:	fff00113          	li	sp,-1
    4124:	00000013          	nop
    4128:	14208463          	beq	ra,sp,4270 <fail>
    412c:	00120213          	addi	tp,tp,1 # 1 <boot+0x1>
    4130:	00200293          	li	t0,2
    4134:	fe5212e3          	bne	tp,t0,4118 <test_13+0x8>

00004138 <test_14>:
    4138:	00e00713          	li	a4,14
    413c:	00000213          	li	tp,0
    4140:	00000093          	li	ra,0
    4144:	00000013          	nop
    4148:	00000013          	nop
    414c:	fff00113          	li	sp,-1
    4150:	12208063          	beq	ra,sp,4270 <fail>
    4154:	00120213          	addi	tp,tp,1 # 1 <boot+0x1>
    4158:	00200293          	li	t0,2
    415c:	fe5212e3          	bne	tp,t0,4140 <test_14+0x8>

00004160 <test_15>:
    4160:	00f00713          	li	a4,15
    4164:	00000213          	li	tp,0
    4168:	00000093          	li	ra,0
    416c:	fff00113          	li	sp,-1
    4170:	10208063          	beq	ra,sp,4270 <fail>
    4174:	00120213          	addi	tp,tp,1 # 1 <boot+0x1>
    4178:	00200293          	li	t0,2
    417c:	fe5216e3          	bne	tp,t0,4168 <test_15+0x8>

00004180 <test_16>:
    4180:	01000713          	li	a4,16
    4184:	00000213          	li	tp,0
    4188:	00000093          	li	ra,0
    418c:	fff00113          	li	sp,-1
    4190:	00000013          	nop
    4194:	0c208e63          	beq	ra,sp,4270 <fail>
    4198:	00120213          	addi	tp,tp,1 # 1 <boot+0x1>
    419c:	00200293          	li	t0,2
    41a0:	fe5214e3          	bne	tp,t0,4188 <test_16+0x8>

000041a4 <test_17>:
    41a4:	01100713          	li	a4,17
    41a8:	00000213          	li	tp,0
    41ac:	00000093          	li	ra,0
    41b0:	fff00113          	li	sp,-1
    41b4:	00000013          	nop
    41b8:	00000013          	nop
    41bc:	0a208a63          	beq	ra,sp,4270 <fail>
    41c0:	00120213          	addi	tp,tp,1 # 1 <boot+0x1>
    41c4:	00200293          	li	t0,2
    41c8:	fe5212e3          	bne	tp,t0,41ac <test_17+0x8>

000041cc <test_18>:
    41cc:	01200713          	li	a4,18
    41d0:	00000213          	li	tp,0
    41d4:	00000093          	li	ra,0
    41d8:	00000013          	nop
    41dc:	fff00113          	li	sp,-1
    41e0:	08208863          	beq	ra,sp,4270 <fail>
    41e4:	00120213          	addi	tp,tp,1 # 1 <boot+0x1>
    41e8:	00200293          	li	t0,2
    41ec:	fe5214e3          	bne	tp,t0,41d4 <test_18+0x8>

000041f0 <test_19>:
    41f0:	01300713          	li	a4,19
    41f4:	00000213          	li	tp,0
    41f8:	00000093          	li	ra,0
    41fc:	00000013          	nop
    4200:	fff00113          	li	sp,-1
    4204:	00000013          	nop
    4208:	06208463          	beq	ra,sp,4270 <fail>
    420c:	00120213          	addi	tp,tp,1 # 1 <boot+0x1>
    4210:	00200293          	li	t0,2
    4214:	fe5212e3          	bne	tp,t0,41f8 <test_19+0x8>

00004218 <test_20>:
    4218:	01400713          	li	a4,20
    421c:	00000213          	li	tp,0
    4220:	00000093          	li	ra,0
    4224:	00000013          	nop
    4228:	00000013          	nop
    422c:	fff00113          	li	sp,-1
    4230:	04208063          	beq	ra,sp,4270 <fail>
    4234:	00120213          	addi	tp,tp,1 # 1 <boot+0x1>
    4238:	00200293          	li	t0,2
    423c:	fe5212e3          	bne	tp,t0,4220 <test_20+0x8>

00004240 <test_21>:
    4240:	00100093          	li	ra,1
    4244:	00000a63          	beqz	zero,4258 <test_21+0x18>
    4248:	00108093          	addi	ra,ra,1
    424c:	00108093          	addi	ra,ra,1
    4250:	00108093          	addi	ra,ra,1
    4254:	00108093          	addi	ra,ra,1
    4258:	00108093          	addi	ra,ra,1
    425c:	00108093          	addi	ra,ra,1
    4260:	00300793          	li	a5,3
    4264:	01500713          	li	a4,21
    4268:	00f09463          	bne	ra,a5,4270 <fail>
    426c:	00e01663          	bne	zero,a4,4278 <pass>

00004270 <fail>:
    4270:	e68fc0ef          	jal	ra,8d8 <failure>
    4274:	00100073          	ebreak

00004278 <pass>:
    4278:	00009137          	lui	sp,0x9
    427c:	e68fc0ef          	jal	ra,8e4 <OK>
    4280:	ee0fc06f          	j	960 <beq_ret>
    4284:	0000                	unimp
	...

00004288 <auipc>:
    4288:	00004537          	lui	a0,0x4
    428c:	2a850513          	addi	a0,a0,680 # 42a8 <.test_name>

00004290 <loop>:
    4290:	fcdfb0ef          	jal	ra,25c <putstr>

00004294 <.prname_next>:
    4294:	00050583          	lb	a1,0(a0)
    4298:	00058c63          	beqz	a1,42b0 <.prname_done>
    429c:	00b62023          	sw	a1,0(a2)
    42a0:	00150513          	addi	a0,a0,1
    42a4:	ff1ff06f          	j	4294 <.prname_next>

000042a8 <.test_name>:
    42a8:	7561                	lui	a0,0xffff8
    42aa:	7069                	c.lui	zero,0xffffa
    42ac:	00000063          	beqz	zero,42ac <.test_name+0x4>

000042b0 <.prname_done>:
    42b0:	02e00593          	li	a1,46
    42b4:	00b62023          	sw	a1,0(a2)
    42b8:	00b62023          	sw	a1,0(a2)

000042bc <test_2>:
    42bc:	00000013          	nop
    42c0:	00002517          	auipc	a0,0x2
    42c4:	71c50513          	addi	a0,a0,1820 # 69dc <test_16+0x4>
    42c8:	004005ef          	jal	a1,42cc <test_2+0x10>
    42cc:	40b50533          	sub	a0,a0,a1
    42d0:	000027b7          	lui	a5,0x2
    42d4:	71078793          	addi	a5,a5,1808 # 2710 <test_6>
    42d8:	00200713          	li	a4,2
    42dc:	02f51463          	bne	a0,a5,4304 <fail>

000042e0 <test_3>:
    42e0:	ffffe517          	auipc	a0,0xffffe
    42e4:	8fc50513          	addi	a0,a0,-1796 # 1bdc <test_23+0x4>
    42e8:	004005ef          	jal	a1,42ec <test_3+0xc>
    42ec:	40b50533          	sub	a0,a0,a1
    42f0:	ffffe7b7          	lui	a5,0xffffe
    42f4:	8f078793          	addi	a5,a5,-1808 # ffffd8f0 <io+0x7fffd8f0>
    42f8:	00300713          	li	a4,3
    42fc:	00f51463          	bne	a0,a5,4304 <fail>
    4300:	00e01663          	bne	zero,a4,430c <pass>

00004304 <fail>:
    4304:	dd4fc0ef          	jal	ra,8d8 <failure>
    4308:	00100073          	ebreak

0000430c <pass>:
    430c:	00009137          	lui	sp,0x9
    4310:	dd4fc0ef          	jal	ra,8e4 <OK>
    4314:	e2cfc06f          	j	940 <auipc_ret>

00004318 <addi>:
    4318:	00004537          	lui	a0,0x4
    431c:	33850513          	addi	a0,a0,824 # 4338 <.test_name>

00004320 <loop>:
    4320:	f3dfb0ef          	jal	ra,25c <putstr>

00004324 <.prname_next>:
    4324:	00050583          	lb	a1,0(a0)
    4328:	00058c63          	beqz	a1,4340 <.prname_done>
    432c:	00b62023          	sw	a1,0(a2)
    4330:	00150513          	addi	a0,a0,1
    4334:	ff1ff06f          	j	4324 <.prname_next>

00004338 <.test_name>:
    4338:	6461                	lui	s0,0x18
    433a:	6964                	flw	fs1,84(a0)
    433c:	0000                	unimp
	...

00004340 <.prname_done>:
    4340:	02e00593          	li	a1,46
    4344:	00b62023          	sw	a1,0(a2)
    4348:	00b62023          	sw	a1,0(a2)

0000434c <test_2>:
    434c:	00000093          	li	ra,0
    4350:	00008193          	mv	gp,ra
    4354:	00000793          	li	a5,0
    4358:	00200713          	li	a4,2
    435c:	26f19c63          	bne	gp,a5,45d4 <fail>

00004360 <test_3>:
    4360:	00100093          	li	ra,1
    4364:	00108193          	addi	gp,ra,1
    4368:	00200793          	li	a5,2
    436c:	00300713          	li	a4,3
    4370:	26f19263          	bne	gp,a5,45d4 <fail>

00004374 <test_4>:
    4374:	00300093          	li	ra,3
    4378:	00708193          	addi	gp,ra,7
    437c:	00a00793          	li	a5,10
    4380:	00400713          	li	a4,4
    4384:	24f19863          	bne	gp,a5,45d4 <fail>

00004388 <test_5>:
    4388:	00000093          	li	ra,0
    438c:	80008193          	addi	gp,ra,-2048
    4390:	80000793          	li	a5,-2048
    4394:	00500713          	li	a4,5
    4398:	22f19e63          	bne	gp,a5,45d4 <fail>

0000439c <test_6>:
    439c:	800000b7          	lui	ra,0x80000
    43a0:	00008193          	mv	gp,ra
    43a4:	800007b7          	lui	a5,0x80000
    43a8:	00600713          	li	a4,6
    43ac:	22f19463          	bne	gp,a5,45d4 <fail>

000043b0 <test_7>:
    43b0:	800000b7          	lui	ra,0x80000
    43b4:	80008193          	addi	gp,ra,-2048 # 7ffff800 <io+0xfffff800>
    43b8:	800007b7          	lui	a5,0x80000
    43bc:	80078793          	addi	a5,a5,-2048 # 7ffff800 <io+0xfffff800>
    43c0:	00700713          	li	a4,7
    43c4:	20f19863          	bne	gp,a5,45d4 <fail>

000043c8 <test_8>:
    43c8:	00000093          	li	ra,0
    43cc:	7ff08193          	addi	gp,ra,2047
    43d0:	7ff00793          	li	a5,2047
    43d4:	00800713          	li	a4,8
    43d8:	1ef19e63          	bne	gp,a5,45d4 <fail>

000043dc <test_9>:
    43dc:	800000b7          	lui	ra,0x80000
    43e0:	fff08093          	addi	ra,ra,-1 # 7fffffff <io+0xffffffff>
    43e4:	00008193          	mv	gp,ra
    43e8:	800007b7          	lui	a5,0x80000
    43ec:	fff78793          	addi	a5,a5,-1 # 7fffffff <io+0xffffffff>
    43f0:	00900713          	li	a4,9
    43f4:	1ef19063          	bne	gp,a5,45d4 <fail>

000043f8 <test_10>:
    43f8:	800000b7          	lui	ra,0x80000
    43fc:	fff08093          	addi	ra,ra,-1 # 7fffffff <io+0xffffffff>
    4400:	7ff08193          	addi	gp,ra,2047
    4404:	800007b7          	lui	a5,0x80000
    4408:	7fe78793          	addi	a5,a5,2046 # 800007fe <io+0x7fe>
    440c:	00a00713          	li	a4,10
    4410:	1cf19263          	bne	gp,a5,45d4 <fail>

00004414 <test_11>:
    4414:	800000b7          	lui	ra,0x80000
    4418:	7ff08193          	addi	gp,ra,2047 # 800007ff <io+0x7ff>
    441c:	800007b7          	lui	a5,0x80000
    4420:	7ff78793          	addi	a5,a5,2047 # 800007ff <io+0x7ff>
    4424:	00b00713          	li	a4,11
    4428:	1af19663          	bne	gp,a5,45d4 <fail>

0000442c <test_12>:
    442c:	800000b7          	lui	ra,0x80000
    4430:	fff08093          	addi	ra,ra,-1 # 7fffffff <io+0xffffffff>
    4434:	80008193          	addi	gp,ra,-2048
    4438:	7ffff7b7          	lui	a5,0x7ffff
    443c:	7ff78793          	addi	a5,a5,2047 # 7ffff7ff <tdat10+0x7fff7302>
    4440:	00c00713          	li	a4,12
    4444:	18f19863          	bne	gp,a5,45d4 <fail>

00004448 <test_13>:
    4448:	00000093          	li	ra,0
    444c:	fff08193          	addi	gp,ra,-1
    4450:	fff00793          	li	a5,-1
    4454:	00d00713          	li	a4,13
    4458:	16f19e63          	bne	gp,a5,45d4 <fail>

0000445c <test_14>:
    445c:	fff00093          	li	ra,-1
    4460:	00108193          	addi	gp,ra,1
    4464:	00000793          	li	a5,0
    4468:	00e00713          	li	a4,14
    446c:	16f19463          	bne	gp,a5,45d4 <fail>

00004470 <test_15>:
    4470:	fff00093          	li	ra,-1
    4474:	fff08193          	addi	gp,ra,-1
    4478:	ffe00793          	li	a5,-2
    447c:	00f00713          	li	a4,15
    4480:	14f19a63          	bne	gp,a5,45d4 <fail>

00004484 <test_16>:
    4484:	800000b7          	lui	ra,0x80000
    4488:	fff08093          	addi	ra,ra,-1 # 7fffffff <io+0xffffffff>
    448c:	00108193          	addi	gp,ra,1
    4490:	800007b7          	lui	a5,0x80000
    4494:	01000713          	li	a4,16
    4498:	12f19e63          	bne	gp,a5,45d4 <fail>

0000449c <test_17>:
    449c:	00d00093          	li	ra,13
    44a0:	00b08093          	addi	ra,ra,11
    44a4:	01800793          	li	a5,24
    44a8:	01100713          	li	a4,17
    44ac:	12f09463          	bne	ra,a5,45d4 <fail>

000044b0 <test_18>:
    44b0:	00000213          	li	tp,0
    44b4:	00d00093          	li	ra,13
    44b8:	00b08193          	addi	gp,ra,11
    44bc:	00018313          	mv	t1,gp
    44c0:	00120213          	addi	tp,tp,1 # 1 <boot+0x1>
    44c4:	00200293          	li	t0,2
    44c8:	fe5216e3          	bne	tp,t0,44b4 <test_18+0x4>
    44cc:	01800793          	li	a5,24
    44d0:	01200713          	li	a4,18
    44d4:	10f31063          	bne	t1,a5,45d4 <fail>

000044d8 <test_19>:
    44d8:	00000213          	li	tp,0
    44dc:	00d00093          	li	ra,13
    44e0:	00a08193          	addi	gp,ra,10
    44e4:	00000013          	nop
    44e8:	00018313          	mv	t1,gp
    44ec:	00120213          	addi	tp,tp,1 # 1 <boot+0x1>
    44f0:	00200293          	li	t0,2
    44f4:	fe5214e3          	bne	tp,t0,44dc <test_19+0x4>
    44f8:	01700793          	li	a5,23
    44fc:	01300713          	li	a4,19
    4500:	0cf31a63          	bne	t1,a5,45d4 <fail>

00004504 <test_20>:
    4504:	00000213          	li	tp,0
    4508:	00d00093          	li	ra,13
    450c:	00908193          	addi	gp,ra,9
    4510:	00000013          	nop
    4514:	00000013          	nop
    4518:	00018313          	mv	t1,gp
    451c:	00120213          	addi	tp,tp,1 # 1 <boot+0x1>
    4520:	00200293          	li	t0,2
    4524:	fe5212e3          	bne	tp,t0,4508 <test_20+0x4>
    4528:	01600793          	li	a5,22
    452c:	01400713          	li	a4,20
    4530:	0af31263          	bne	t1,a5,45d4 <fail>

00004534 <test_21>:
    4534:	00000213          	li	tp,0
    4538:	00d00093          	li	ra,13
    453c:	00b08193          	addi	gp,ra,11
    4540:	00120213          	addi	tp,tp,1 # 1 <boot+0x1>
    4544:	00200293          	li	t0,2
    4548:	fe5218e3          	bne	tp,t0,4538 <test_21+0x4>
    454c:	01800793          	li	a5,24
    4550:	01500713          	li	a4,21
    4554:	08f19063          	bne	gp,a5,45d4 <fail>

00004558 <test_22>:
    4558:	00000213          	li	tp,0
    455c:	00d00093          	li	ra,13
    4560:	00000013          	nop
    4564:	00a08193          	addi	gp,ra,10
    4568:	00120213          	addi	tp,tp,1 # 1 <boot+0x1>
    456c:	00200293          	li	t0,2
    4570:	fe5216e3          	bne	tp,t0,455c <test_22+0x4>
    4574:	01700793          	li	a5,23
    4578:	01600713          	li	a4,22
    457c:	04f19c63          	bne	gp,a5,45d4 <fail>

00004580 <test_23>:
    4580:	00000213          	li	tp,0
    4584:	00d00093          	li	ra,13
    4588:	00000013          	nop
    458c:	00000013          	nop
    4590:	00908193          	addi	gp,ra,9
    4594:	00120213          	addi	tp,tp,1 # 1 <boot+0x1>
    4598:	00200293          	li	t0,2
    459c:	fe5214e3          	bne	tp,t0,4584 <test_23+0x4>
    45a0:	01600793          	li	a5,22
    45a4:	01700713          	li	a4,23
    45a8:	02f19663          	bne	gp,a5,45d4 <fail>

000045ac <test_24>:
    45ac:	02000093          	li	ra,32
    45b0:	02000793          	li	a5,32
    45b4:	01800713          	li	a4,24
    45b8:	00f09e63          	bne	ra,a5,45d4 <fail>

000045bc <test_25>:
    45bc:	02100093          	li	ra,33
    45c0:	03208013          	addi	zero,ra,50
    45c4:	00000793          	li	a5,0
    45c8:	01900713          	li	a4,25
    45cc:	00f01463          	bne	zero,a5,45d4 <fail>
    45d0:	00e01663          	bne	zero,a4,45dc <pass>

000045d4 <fail>:
    45d4:	b04fc0ef          	jal	ra,8d8 <failure>
    45d8:	00100073          	ebreak

000045dc <pass>:
    45dc:	00009137          	lui	sp,0x9
    45e0:	b04fc0ef          	jal	ra,8e4 <OK>
    45e4:	becfc06f          	j	9d0 <addi_ret>

000045e8 <jalr>:
    45e8:	00004537          	lui	a0,0x4
    45ec:	60850513          	addi	a0,a0,1544 # 4608 <.test_name>

000045f0 <loop>:
    45f0:	c6dfb0ef          	jal	ra,25c <putstr>

000045f4 <.prname_next>:
    45f4:	00050583          	lb	a1,0(a0)
    45f8:	00058c63          	beqz	a1,4610 <.prname_done>
    45fc:	00b62023          	sw	a1,0(a2)
    4600:	00150513          	addi	a0,a0,1
    4604:	ff1ff06f          	j	45f4 <.prname_next>

00004608 <.test_name>:
    4608:	616a                	flw	ft2,152(sp)
    460a:	726c                	flw	fa1,100(a2)
    460c:	0000                	unimp
	...

00004610 <.prname_done>:
    4610:	02e00593          	li	a1,46
    4614:	00b62023          	sw	a1,0(a2)
    4618:	00b62023          	sw	a1,0(a2)

0000461c <test_2>:
    461c:	00200713          	li	a4,2
    4620:	00000693          	li	a3,0
    4624:	00000117          	auipc	sp,0x0
    4628:	01810113          	addi	sp,sp,24 # 463c <target_2>

0000462c <linkaddr_2>:
    462c:	00010667          	jalr	a2,sp
    4630:	00000013          	nop
    4634:	00000013          	nop
    4638:	0e40006f          	j	471c <fail>

0000463c <target_2>:
    463c:	00000097          	auipc	ra,0x0
    4640:	ff008093          	addi	ra,ra,-16 # 462c <linkaddr_2>
    4644:	00408093          	addi	ra,ra,4
    4648:	0cc09a63          	bne	ra,a2,471c <fail>

0000464c <test_3>:
    464c:	00300713          	li	a4,3
    4650:	00000693          	li	a3,0
    4654:	00000197          	auipc	gp,0x0
    4658:	01418193          	addi	gp,gp,20 # 4668 <target_3>

0000465c <linkaddr_3>:
    465c:	00018067          	jr	gp
    4660:	00000013          	nop
    4664:	0b80006f          	j	471c <fail>

00004668 <target_3>:
    4668:	0a069a63          	bnez	a3,471c <fail>

0000466c <test_4>:
    466c:	00400713          	li	a4,4
    4670:	00000213          	li	tp,0
    4674:	00000317          	auipc	t1,0x0
    4678:	01030313          	addi	t1,t1,16 # 4684 <test_4+0x18>
    467c:	000306e7          	jalr	a3,t1
    4680:	08e01e63          	bne	zero,a4,471c <fail>
    4684:	00120213          	addi	tp,tp,1 # 1 <boot+0x1>
    4688:	00200293          	li	t0,2
    468c:	fe5214e3          	bne	tp,t0,4674 <test_4+0x8>

00004690 <test_5>:
    4690:	00500713          	li	a4,5
    4694:	00000213          	li	tp,0
    4698:	00000317          	auipc	t1,0x0
    469c:	01430313          	addi	t1,t1,20 # 46ac <test_5+0x1c>
    46a0:	00000013          	nop
    46a4:	000306e7          	jalr	a3,t1
    46a8:	06e01a63          	bne	zero,a4,471c <fail>
    46ac:	00120213          	addi	tp,tp,1 # 1 <boot+0x1>
    46b0:	00200293          	li	t0,2
    46b4:	fe5212e3          	bne	tp,t0,4698 <test_5+0x8>

000046b8 <test_6>:
    46b8:	00600713          	li	a4,6
    46bc:	00000213          	li	tp,0
    46c0:	00000317          	auipc	t1,0x0
    46c4:	01830313          	addi	t1,t1,24 # 46d8 <test_6+0x20>
    46c8:	00000013          	nop
    46cc:	00000013          	nop
    46d0:	000306e7          	jalr	a3,t1
    46d4:	04e01463          	bne	zero,a4,471c <fail>
    46d8:	00120213          	addi	tp,tp,1 # 1 <boot+0x1>
    46dc:	00200293          	li	t0,2
    46e0:	fe5210e3          	bne	tp,t0,46c0 <test_6+0x8>

000046e4 <test_7>:
    46e4:	00100093          	li	ra,1
    46e8:	00000117          	auipc	sp,0x0
    46ec:	01c10113          	addi	sp,sp,28 # 4704 <test_7+0x20>
    46f0:	ffc10667          	jalr	a2,-4(sp)
    46f4:	00108093          	addi	ra,ra,1
    46f8:	00108093          	addi	ra,ra,1
    46fc:	00108093          	addi	ra,ra,1
    4700:	00108093          	addi	ra,ra,1
    4704:	00108093          	addi	ra,ra,1
    4708:	00108093          	addi	ra,ra,1
    470c:	00400793          	li	a5,4
    4710:	00700713          	li	a4,7
    4714:	00f09463          	bne	ra,a5,471c <fail>
    4718:	00e01663          	bne	zero,a4,4724 <pass>

0000471c <fail>:
    471c:	9bcfc0ef          	jal	ra,8d8 <failure>
    4720:	00100073          	ebreak

00004724 <pass>:
    4724:	00009137          	lui	sp,0x9
    4728:	9bcfc0ef          	jal	ra,8e4 <OK>
    472c:	a2cfc06f          	j	958 <jalr_ret>

00004730 <bne>:
    4730:	00004537          	lui	a0,0x4
    4734:	75050513          	addi	a0,a0,1872 # 4750 <.test_name>

00004738 <loop>:
    4738:	b25fb0ef          	jal	ra,25c <putstr>

0000473c <.prname_next>:
    473c:	00050583          	lb	a1,0(a0)
    4740:	00058a63          	beqz	a1,4754 <.prname_done>
    4744:	00b62023          	sw	a1,0(a2)
    4748:	00150513          	addi	a0,a0,1
    474c:	ff1ff06f          	j	473c <.prname_next>

00004750 <.test_name>:
    4750:	6e62                	flw	ft8,24(sp)
    4752:	0065                	c.nop	25

00004754 <.prname_done>:
    4754:	02e00593          	li	a1,46
    4758:	00b62023          	sw	a1,0(a2)
    475c:	00b62023          	sw	a1,0(a2)

00004760 <test_2>:
    4760:	00200713          	li	a4,2
    4764:	00000093          	li	ra,0
    4768:	00100113          	li	sp,1
    476c:	00209663          	bne	ra,sp,4778 <test_2+0x18>
    4770:	2ae01a63          	bne	zero,a4,4a24 <fail>
    4774:	00e01663          	bne	zero,a4,4780 <test_3>
    4778:	fe209ee3          	bne	ra,sp,4774 <test_2+0x14>
    477c:	2ae01463          	bne	zero,a4,4a24 <fail>

00004780 <test_3>:
    4780:	00300713          	li	a4,3
    4784:	00100093          	li	ra,1
    4788:	00000113          	li	sp,0
    478c:	00209663          	bne	ra,sp,4798 <test_3+0x18>
    4790:	28e01a63          	bne	zero,a4,4a24 <fail>
    4794:	00e01663          	bne	zero,a4,47a0 <test_4>
    4798:	fe209ee3          	bne	ra,sp,4794 <test_3+0x14>
    479c:	28e01463          	bne	zero,a4,4a24 <fail>

000047a0 <test_4>:
    47a0:	00400713          	li	a4,4
    47a4:	fff00093          	li	ra,-1
    47a8:	00100113          	li	sp,1
    47ac:	00209663          	bne	ra,sp,47b8 <test_4+0x18>
    47b0:	26e01a63          	bne	zero,a4,4a24 <fail>
    47b4:	00e01663          	bne	zero,a4,47c0 <test_5>
    47b8:	fe209ee3          	bne	ra,sp,47b4 <test_4+0x14>
    47bc:	26e01463          	bne	zero,a4,4a24 <fail>

000047c0 <test_5>:
    47c0:	00500713          	li	a4,5
    47c4:	00100093          	li	ra,1
    47c8:	fff00113          	li	sp,-1
    47cc:	00209663          	bne	ra,sp,47d8 <test_5+0x18>
    47d0:	24e01a63          	bne	zero,a4,4a24 <fail>
    47d4:	00e01663          	bne	zero,a4,47e0 <test_6>
    47d8:	fe209ee3          	bne	ra,sp,47d4 <test_5+0x14>
    47dc:	24e01463          	bne	zero,a4,4a24 <fail>

000047e0 <test_6>:
    47e0:	00600713          	li	a4,6
    47e4:	00000093          	li	ra,0
    47e8:	00000113          	li	sp,0
    47ec:	00209463          	bne	ra,sp,47f4 <test_6+0x14>
    47f0:	00e01463          	bne	zero,a4,47f8 <test_6+0x18>
    47f4:	22e01863          	bne	zero,a4,4a24 <fail>
    47f8:	fe209ee3          	bne	ra,sp,47f4 <test_6+0x14>

000047fc <test_7>:
    47fc:	00700713          	li	a4,7
    4800:	00100093          	li	ra,1
    4804:	00100113          	li	sp,1
    4808:	00209463          	bne	ra,sp,4810 <test_7+0x14>
    480c:	00e01463          	bne	zero,a4,4814 <test_7+0x18>
    4810:	20e01a63          	bne	zero,a4,4a24 <fail>
    4814:	fe209ee3          	bne	ra,sp,4810 <test_7+0x14>

00004818 <test_8>:
    4818:	00800713          	li	a4,8
    481c:	fff00093          	li	ra,-1
    4820:	fff00113          	li	sp,-1
    4824:	00209463          	bne	ra,sp,482c <test_8+0x14>
    4828:	00e01463          	bne	zero,a4,4830 <test_8+0x18>
    482c:	1ee01c63          	bne	zero,a4,4a24 <fail>
    4830:	fe209ee3          	bne	ra,sp,482c <test_8+0x14>

00004834 <test_9>:
    4834:	00900713          	li	a4,9
    4838:	00000213          	li	tp,0
    483c:	00000093          	li	ra,0
    4840:	00000113          	li	sp,0
    4844:	1e209063          	bne	ra,sp,4a24 <fail>
    4848:	00120213          	addi	tp,tp,1 # 1 <boot+0x1>
    484c:	00200293          	li	t0,2
    4850:	fe5216e3          	bne	tp,t0,483c <test_9+0x8>

00004854 <test_10>:
    4854:	00a00713          	li	a4,10
    4858:	00000213          	li	tp,0
    485c:	00000093          	li	ra,0
    4860:	00000113          	li	sp,0
    4864:	00000013          	nop
    4868:	1a209e63          	bne	ra,sp,4a24 <fail>
    486c:	00120213          	addi	tp,tp,1 # 1 <boot+0x1>
    4870:	00200293          	li	t0,2
    4874:	fe5214e3          	bne	tp,t0,485c <test_10+0x8>

00004878 <test_11>:
    4878:	00b00713          	li	a4,11
    487c:	00000213          	li	tp,0
    4880:	00000093          	li	ra,0
    4884:	00000113          	li	sp,0
    4888:	00000013          	nop
    488c:	00000013          	nop
    4890:	18209a63          	bne	ra,sp,4a24 <fail>
    4894:	00120213          	addi	tp,tp,1 # 1 <boot+0x1>
    4898:	00200293          	li	t0,2
    489c:	fe5212e3          	bne	tp,t0,4880 <test_11+0x8>

000048a0 <test_12>:
    48a0:	00c00713          	li	a4,12
    48a4:	00000213          	li	tp,0
    48a8:	00000093          	li	ra,0
    48ac:	00000013          	nop
    48b0:	00000113          	li	sp,0
    48b4:	16209863          	bne	ra,sp,4a24 <fail>
    48b8:	00120213          	addi	tp,tp,1 # 1 <boot+0x1>
    48bc:	00200293          	li	t0,2
    48c0:	fe5214e3          	bne	tp,t0,48a8 <test_12+0x8>

000048c4 <test_13>:
    48c4:	00d00713          	li	a4,13
    48c8:	00000213          	li	tp,0
    48cc:	00000093          	li	ra,0
    48d0:	00000013          	nop
    48d4:	00000113          	li	sp,0
    48d8:	00000013          	nop
    48dc:	14209463          	bne	ra,sp,4a24 <fail>
    48e0:	00120213          	addi	tp,tp,1 # 1 <boot+0x1>
    48e4:	00200293          	li	t0,2
    48e8:	fe5212e3          	bne	tp,t0,48cc <test_13+0x8>

000048ec <test_14>:
    48ec:	00e00713          	li	a4,14
    48f0:	00000213          	li	tp,0
    48f4:	00000093          	li	ra,0
    48f8:	00000013          	nop
    48fc:	00000013          	nop
    4900:	00000113          	li	sp,0
    4904:	12209063          	bne	ra,sp,4a24 <fail>
    4908:	00120213          	addi	tp,tp,1 # 1 <boot+0x1>
    490c:	00200293          	li	t0,2
    4910:	fe5212e3          	bne	tp,t0,48f4 <test_14+0x8>

00004914 <test_15>:
    4914:	00f00713          	li	a4,15
    4918:	00000213          	li	tp,0
    491c:	00000093          	li	ra,0
    4920:	00000113          	li	sp,0
    4924:	10209063          	bne	ra,sp,4a24 <fail>
    4928:	00120213          	addi	tp,tp,1 # 1 <boot+0x1>
    492c:	00200293          	li	t0,2
    4930:	fe5216e3          	bne	tp,t0,491c <test_15+0x8>

00004934 <test_16>:
    4934:	01000713          	li	a4,16
    4938:	00000213          	li	tp,0
    493c:	00000093          	li	ra,0
    4940:	00000113          	li	sp,0
    4944:	00000013          	nop
    4948:	0c209e63          	bne	ra,sp,4a24 <fail>
    494c:	00120213          	addi	tp,tp,1 # 1 <boot+0x1>
    4950:	00200293          	li	t0,2
    4954:	fe5214e3          	bne	tp,t0,493c <test_16+0x8>

00004958 <test_17>:
    4958:	01100713          	li	a4,17
    495c:	00000213          	li	tp,0
    4960:	00000093          	li	ra,0
    4964:	00000113          	li	sp,0
    4968:	00000013          	nop
    496c:	00000013          	nop
    4970:	0a209a63          	bne	ra,sp,4a24 <fail>
    4974:	00120213          	addi	tp,tp,1 # 1 <boot+0x1>
    4978:	00200293          	li	t0,2
    497c:	fe5212e3          	bne	tp,t0,4960 <test_17+0x8>

00004980 <test_18>:
    4980:	01200713          	li	a4,18
    4984:	00000213          	li	tp,0
    4988:	00000093          	li	ra,0
    498c:	00000013          	nop
    4990:	00000113          	li	sp,0
    4994:	08209863          	bne	ra,sp,4a24 <fail>
    4998:	00120213          	addi	tp,tp,1 # 1 <boot+0x1>
    499c:	00200293          	li	t0,2
    49a0:	fe5214e3          	bne	tp,t0,4988 <test_18+0x8>

000049a4 <test_19>:
    49a4:	01300713          	li	a4,19
    49a8:	00000213          	li	tp,0
    49ac:	00000093          	li	ra,0
    49b0:	00000013          	nop
    49b4:	00000113          	li	sp,0
    49b8:	00000013          	nop
    49bc:	06209463          	bne	ra,sp,4a24 <fail>
    49c0:	00120213          	addi	tp,tp,1 # 1 <boot+0x1>
    49c4:	00200293          	li	t0,2
    49c8:	fe5212e3          	bne	tp,t0,49ac <test_19+0x8>

000049cc <test_20>:
    49cc:	01400713          	li	a4,20
    49d0:	00000213          	li	tp,0
    49d4:	00000093          	li	ra,0
    49d8:	00000013          	nop
    49dc:	00000013          	nop
    49e0:	00000113          	li	sp,0
    49e4:	04209063          	bne	ra,sp,4a24 <fail>
    49e8:	00120213          	addi	tp,tp,1 # 1 <boot+0x1>
    49ec:	00200293          	li	t0,2
    49f0:	fe5212e3          	bne	tp,t0,49d4 <test_20+0x8>

000049f4 <test_21>:
    49f4:	00100093          	li	ra,1
    49f8:	00009a63          	bnez	ra,4a0c <test_21+0x18>
    49fc:	00108093          	addi	ra,ra,1
    4a00:	00108093          	addi	ra,ra,1
    4a04:	00108093          	addi	ra,ra,1
    4a08:	00108093          	addi	ra,ra,1
    4a0c:	00108093          	addi	ra,ra,1
    4a10:	00108093          	addi	ra,ra,1
    4a14:	00300793          	li	a5,3
    4a18:	01500713          	li	a4,21
    4a1c:	00f09463          	bne	ra,a5,4a24 <fail>
    4a20:	00e01663          	bne	zero,a4,4a2c <pass>

00004a24 <fail>:
    4a24:	eb5fb0ef          	jal	ra,8d8 <failure>
    4a28:	00100073          	ebreak

00004a2c <pass>:
    4a2c:	00009137          	lui	sp,0x9
    4a30:	eb5fb0ef          	jal	ra,8e4 <OK>
    4a34:	f35fb06f          	j	968 <bne_ret>

00004a38 <xori>:
    4a38:	00005537          	lui	a0,0x5
    4a3c:	a5850513          	addi	a0,a0,-1448 # 4a58 <.test_name>

00004a40 <loop>:
    4a40:	81dfb0ef          	jal	ra,25c <putstr>

00004a44 <.prname_next>:
    4a44:	00050583          	lb	a1,0(a0)
    4a48:	00058c63          	beqz	a1,4a60 <.prname_done>
    4a4c:	00b62023          	sw	a1,0(a2)
    4a50:	00150513          	addi	a0,a0,1
    4a54:	ff1ff06f          	j	4a44 <.prname_next>

00004a58 <.test_name>:
    4a58:	6f78                	flw	fa4,92(a4)
    4a5a:	6972                	flw	fs2,28(sp)
    4a5c:	0000                	unimp
	...

00004a60 <.prname_done>:
    4a60:	02e00593          	li	a1,46
    4a64:	00b62023          	sw	a1,0(a2)
    4a68:	00b62023          	sw	a1,0(a2)

00004a6c <test_2>:
    4a6c:	00ff10b7          	lui	ra,0xff1
    4a70:	f0008093          	addi	ra,ra,-256 # ff0f00 <tdat10+0xfe8a03>
    4a74:	f0f0c193          	xori	gp,ra,-241
    4a78:	ff00f7b7          	lui	a5,0xff00f
    4a7c:	00f78793          	addi	a5,a5,15 # ff00f00f <io+0x7f00f00f>
    4a80:	00200713          	li	a4,2
    4a84:	1cf19663          	bne	gp,a5,4c50 <fail>

00004a88 <test_3>:
    4a88:	0ff010b7          	lui	ra,0xff01
    4a8c:	ff008093          	addi	ra,ra,-16 # ff00ff0 <tdat10+0xfef8af3>
    4a90:	0f00c193          	xori	gp,ra,240
    4a94:	0ff017b7          	lui	a5,0xff01
    4a98:	f0078793          	addi	a5,a5,-256 # ff00f00 <tdat10+0xfef8a03>
    4a9c:	00300713          	li	a4,3
    4aa0:	1af19863          	bne	gp,a5,4c50 <fail>

00004aa4 <test_4>:
    4aa4:	00ff10b7          	lui	ra,0xff1
    4aa8:	8ff08093          	addi	ra,ra,-1793 # ff08ff <tdat10+0xfe8402>
    4aac:	70f0c193          	xori	gp,ra,1807
    4ab0:	00ff17b7          	lui	a5,0xff1
    4ab4:	ff078793          	addi	a5,a5,-16 # ff0ff0 <tdat10+0xfe8af3>
    4ab8:	00400713          	li	a4,4
    4abc:	18f19a63          	bne	gp,a5,4c50 <fail>

00004ac0 <test_5>:
    4ac0:	f00ff0b7          	lui	ra,0xf00ff
    4ac4:	00f08093          	addi	ra,ra,15 # f00ff00f <io+0x700ff00f>
    4ac8:	0f00c193          	xori	gp,ra,240
    4acc:	f00ff7b7          	lui	a5,0xf00ff
    4ad0:	0ff78793          	addi	a5,a5,255 # f00ff0ff <io+0x700ff0ff>
    4ad4:	00500713          	li	a4,5
    4ad8:	16f19c63          	bne	gp,a5,4c50 <fail>

00004adc <test_6>:
    4adc:	ff00f0b7          	lui	ra,0xff00f
    4ae0:	70008093          	addi	ra,ra,1792 # ff00f700 <io+0x7f00f700>
    4ae4:	70f0c093          	xori	ra,ra,1807
    4ae8:	ff00f7b7          	lui	a5,0xff00f
    4aec:	00f78793          	addi	a5,a5,15 # ff00f00f <io+0x7f00f00f>
    4af0:	00600713          	li	a4,6
    4af4:	14f09e63          	bne	ra,a5,4c50 <fail>

00004af8 <test_7>:
    4af8:	00000213          	li	tp,0
    4afc:	0ff010b7          	lui	ra,0xff01
    4b00:	ff008093          	addi	ra,ra,-16 # ff00ff0 <tdat10+0xfef8af3>
    4b04:	0f00c193          	xori	gp,ra,240
    4b08:	00018313          	mv	t1,gp
    4b0c:	00120213          	addi	tp,tp,1 # 1 <boot+0x1>
    4b10:	00200293          	li	t0,2
    4b14:	fe5214e3          	bne	tp,t0,4afc <test_7+0x4>
    4b18:	0ff017b7          	lui	a5,0xff01
    4b1c:	f0078793          	addi	a5,a5,-256 # ff00f00 <tdat10+0xfef8a03>
    4b20:	00700713          	li	a4,7
    4b24:	12f31663          	bne	t1,a5,4c50 <fail>

00004b28 <test_8>:
    4b28:	00000213          	li	tp,0
    4b2c:	00ff10b7          	lui	ra,0xff1
    4b30:	8ff08093          	addi	ra,ra,-1793 # ff08ff <tdat10+0xfe8402>
    4b34:	70f0c193          	xori	gp,ra,1807
    4b38:	00000013          	nop
    4b3c:	00018313          	mv	t1,gp
    4b40:	00120213          	addi	tp,tp,1 # 1 <boot+0x1>
    4b44:	00200293          	li	t0,2
    4b48:	fe5212e3          	bne	tp,t0,4b2c <test_8+0x4>
    4b4c:	00ff17b7          	lui	a5,0xff1
    4b50:	ff078793          	addi	a5,a5,-16 # ff0ff0 <tdat10+0xfe8af3>
    4b54:	00800713          	li	a4,8
    4b58:	0ef31c63          	bne	t1,a5,4c50 <fail>

00004b5c <test_9>:
    4b5c:	00000213          	li	tp,0
    4b60:	f00ff0b7          	lui	ra,0xf00ff
    4b64:	00f08093          	addi	ra,ra,15 # f00ff00f <io+0x700ff00f>
    4b68:	0f00c193          	xori	gp,ra,240
    4b6c:	00000013          	nop
    4b70:	00000013          	nop
    4b74:	00018313          	mv	t1,gp
    4b78:	00120213          	addi	tp,tp,1 # 1 <boot+0x1>
    4b7c:	00200293          	li	t0,2
    4b80:	fe5210e3          	bne	tp,t0,4b60 <test_9+0x4>
    4b84:	f00ff7b7          	lui	a5,0xf00ff
    4b88:	0ff78793          	addi	a5,a5,255 # f00ff0ff <io+0x700ff0ff>
    4b8c:	00900713          	li	a4,9
    4b90:	0cf31063          	bne	t1,a5,4c50 <fail>

00004b94 <test_10>:
    4b94:	00000213          	li	tp,0
    4b98:	0ff010b7          	lui	ra,0xff01
    4b9c:	ff008093          	addi	ra,ra,-16 # ff00ff0 <tdat10+0xfef8af3>
    4ba0:	0f00c193          	xori	gp,ra,240
    4ba4:	00120213          	addi	tp,tp,1 # 1 <boot+0x1>
    4ba8:	00200293          	li	t0,2
    4bac:	fe5216e3          	bne	tp,t0,4b98 <test_10+0x4>
    4bb0:	0ff017b7          	lui	a5,0xff01
    4bb4:	f0078793          	addi	a5,a5,-256 # ff00f00 <tdat10+0xfef8a03>
    4bb8:	00a00713          	li	a4,10
    4bbc:	08f19a63          	bne	gp,a5,4c50 <fail>

00004bc0 <test_11>:
    4bc0:	00000213          	li	tp,0
    4bc4:	00ff10b7          	lui	ra,0xff1
    4bc8:	fff08093          	addi	ra,ra,-1 # ff0fff <tdat10+0xfe8b02>
    4bcc:	00000013          	nop
    4bd0:	00f0c193          	xori	gp,ra,15
    4bd4:	00120213          	addi	tp,tp,1 # 1 <boot+0x1>
    4bd8:	00200293          	li	t0,2
    4bdc:	fe5214e3          	bne	tp,t0,4bc4 <test_11+0x4>
    4be0:	00ff17b7          	lui	a5,0xff1
    4be4:	ff078793          	addi	a5,a5,-16 # ff0ff0 <tdat10+0xfe8af3>
    4be8:	00b00713          	li	a4,11
    4bec:	06f19263          	bne	gp,a5,4c50 <fail>

00004bf0 <test_12>:
    4bf0:	00000213          	li	tp,0
    4bf4:	f00ff0b7          	lui	ra,0xf00ff
    4bf8:	00f08093          	addi	ra,ra,15 # f00ff00f <io+0x700ff00f>
    4bfc:	00000013          	nop
    4c00:	00000013          	nop
    4c04:	0f00c193          	xori	gp,ra,240
    4c08:	00120213          	addi	tp,tp,1 # 1 <boot+0x1>
    4c0c:	00200293          	li	t0,2
    4c10:	fe5212e3          	bne	tp,t0,4bf4 <test_12+0x4>
    4c14:	f00ff7b7          	lui	a5,0xf00ff
    4c18:	0ff78793          	addi	a5,a5,255 # f00ff0ff <io+0x700ff0ff>
    4c1c:	00c00713          	li	a4,12
    4c20:	02f19863          	bne	gp,a5,4c50 <fail>

00004c24 <test_13>:
    4c24:	0f004093          	xori	ra,zero,240
    4c28:	0f000793          	li	a5,240
    4c2c:	00d00713          	li	a4,13
    4c30:	02f09063          	bne	ra,a5,4c50 <fail>

00004c34 <test_14>:
    4c34:	00ff00b7          	lui	ra,0xff0
    4c38:	0ff08093          	addi	ra,ra,255 # ff00ff <tdat10+0xfe7c02>
    4c3c:	70f0c013          	xori	zero,ra,1807
    4c40:	00000793          	li	a5,0
    4c44:	00e00713          	li	a4,14
    4c48:	00f01463          	bne	zero,a5,4c50 <fail>
    4c4c:	00e01663          	bne	zero,a4,4c58 <pass>

00004c50 <fail>:
    4c50:	c89fb0ef          	jal	ra,8d8 <failure>
    4c54:	00100073          	ebreak

00004c58 <pass>:
    4c58:	00009137          	lui	sp,0x9
    4c5c:	c89fb0ef          	jal	ra,8e4 <OK>
    4c60:	d81fb06f          	j	9e0 <xori_ret>

00004c64 <bgeu>:
    4c64:	00005537          	lui	a0,0x5
    4c68:	c8450513          	addi	a0,a0,-892 # 4c84 <.test_name>

00004c6c <loop>:
    4c6c:	df0fb0ef          	jal	ra,25c <putstr>

00004c70 <.prname_next>:
    4c70:	00050583          	lb	a1,0(a0)
    4c74:	00058c63          	beqz	a1,4c8c <.prname_done>
    4c78:	00b62023          	sw	a1,0(a2)
    4c7c:	00150513          	addi	a0,a0,1
    4c80:	ff1ff06f          	j	4c70 <.prname_next>

00004c84 <.test_name>:
    4c84:	6762                	flw	fa4,24(sp)
    4c86:	7565                	lui	a0,0xffff9
    4c88:	0000                	unimp
	...

00004c8c <.prname_done>:
    4c8c:	02e00593          	li	a1,46
    4c90:	00b62023          	sw	a1,0(a2)
    4c94:	00b62023          	sw	a1,0(a2)

00004c98 <test_2>:
    4c98:	00200713          	li	a4,2
    4c9c:	00000093          	li	ra,0
    4ca0:	00000113          	li	sp,0
    4ca4:	0020f663          	bgeu	ra,sp,4cb0 <test_2+0x18>
    4ca8:	34e01263          	bne	zero,a4,4fec <fail>
    4cac:	00e01663          	bne	zero,a4,4cb8 <test_3>
    4cb0:	fe20fee3          	bgeu	ra,sp,4cac <test_2+0x14>
    4cb4:	32e01c63          	bne	zero,a4,4fec <fail>

00004cb8 <test_3>:
    4cb8:	00300713          	li	a4,3
    4cbc:	00100093          	li	ra,1
    4cc0:	00100113          	li	sp,1
    4cc4:	0020f663          	bgeu	ra,sp,4cd0 <test_3+0x18>
    4cc8:	32e01263          	bne	zero,a4,4fec <fail>
    4ccc:	00e01663          	bne	zero,a4,4cd8 <test_4>
    4cd0:	fe20fee3          	bgeu	ra,sp,4ccc <test_3+0x14>
    4cd4:	30e01c63          	bne	zero,a4,4fec <fail>

00004cd8 <test_4>:
    4cd8:	00400713          	li	a4,4
    4cdc:	fff00093          	li	ra,-1
    4ce0:	fff00113          	li	sp,-1
    4ce4:	0020f663          	bgeu	ra,sp,4cf0 <test_4+0x18>
    4ce8:	30e01263          	bne	zero,a4,4fec <fail>
    4cec:	00e01663          	bne	zero,a4,4cf8 <test_5>
    4cf0:	fe20fee3          	bgeu	ra,sp,4cec <test_4+0x14>
    4cf4:	2ee01c63          	bne	zero,a4,4fec <fail>

00004cf8 <test_5>:
    4cf8:	00500713          	li	a4,5
    4cfc:	00100093          	li	ra,1
    4d00:	00000113          	li	sp,0
    4d04:	0020f663          	bgeu	ra,sp,4d10 <test_5+0x18>
    4d08:	2ee01263          	bne	zero,a4,4fec <fail>
    4d0c:	00e01663          	bne	zero,a4,4d18 <test_6>
    4d10:	fe20fee3          	bgeu	ra,sp,4d0c <test_5+0x14>
    4d14:	2ce01c63          	bne	zero,a4,4fec <fail>

00004d18 <test_6>:
    4d18:	00600713          	li	a4,6
    4d1c:	fff00093          	li	ra,-1
    4d20:	ffe00113          	li	sp,-2
    4d24:	0020f663          	bgeu	ra,sp,4d30 <test_6+0x18>
    4d28:	2ce01263          	bne	zero,a4,4fec <fail>
    4d2c:	00e01663          	bne	zero,a4,4d38 <test_7>
    4d30:	fe20fee3          	bgeu	ra,sp,4d2c <test_6+0x14>
    4d34:	2ae01c63          	bne	zero,a4,4fec <fail>

00004d38 <test_7>:
    4d38:	00700713          	li	a4,7
    4d3c:	fff00093          	li	ra,-1
    4d40:	00000113          	li	sp,0
    4d44:	0020f663          	bgeu	ra,sp,4d50 <test_7+0x18>
    4d48:	2ae01263          	bne	zero,a4,4fec <fail>
    4d4c:	00e01663          	bne	zero,a4,4d58 <test_8>
    4d50:	fe20fee3          	bgeu	ra,sp,4d4c <test_7+0x14>
    4d54:	28e01c63          	bne	zero,a4,4fec <fail>

00004d58 <test_8>:
    4d58:	00800713          	li	a4,8
    4d5c:	00000093          	li	ra,0
    4d60:	00100113          	li	sp,1
    4d64:	0020f463          	bgeu	ra,sp,4d6c <test_8+0x14>
    4d68:	00e01463          	bne	zero,a4,4d70 <test_8+0x18>
    4d6c:	28e01063          	bne	zero,a4,4fec <fail>
    4d70:	fe20fee3          	bgeu	ra,sp,4d6c <test_8+0x14>

00004d74 <test_9>:
    4d74:	00900713          	li	a4,9
    4d78:	ffe00093          	li	ra,-2
    4d7c:	fff00113          	li	sp,-1
    4d80:	0020f463          	bgeu	ra,sp,4d88 <test_9+0x14>
    4d84:	00e01463          	bne	zero,a4,4d8c <test_9+0x18>
    4d88:	26e01263          	bne	zero,a4,4fec <fail>
    4d8c:	fe20fee3          	bgeu	ra,sp,4d88 <test_9+0x14>

00004d90 <test_10>:
    4d90:	00a00713          	li	a4,10
    4d94:	00000093          	li	ra,0
    4d98:	fff00113          	li	sp,-1
    4d9c:	0020f463          	bgeu	ra,sp,4da4 <test_10+0x14>
    4da0:	00e01463          	bne	zero,a4,4da8 <test_10+0x18>
    4da4:	24e01463          	bne	zero,a4,4fec <fail>
    4da8:	fe20fee3          	bgeu	ra,sp,4da4 <test_10+0x14>

00004dac <test_11>:
    4dac:	00b00713          	li	a4,11
    4db0:	800000b7          	lui	ra,0x80000
    4db4:	fff08093          	addi	ra,ra,-1 # 7fffffff <io+0xffffffff>
    4db8:	80000137          	lui	sp,0x80000
    4dbc:	0020f463          	bgeu	ra,sp,4dc4 <test_11+0x18>
    4dc0:	00e01463          	bne	zero,a4,4dc8 <test_11+0x1c>
    4dc4:	22e01463          	bne	zero,a4,4fec <fail>
    4dc8:	fe20fee3          	bgeu	ra,sp,4dc4 <test_11+0x18>

00004dcc <test_12>:
    4dcc:	00c00713          	li	a4,12
    4dd0:	00000213          	li	tp,0
    4dd4:	f00000b7          	lui	ra,0xf0000
    4dd8:	fff08093          	addi	ra,ra,-1 # efffffff <io+0x6fffffff>
    4ddc:	f0000137          	lui	sp,0xf0000
    4de0:	2020f663          	bgeu	ra,sp,4fec <fail>
    4de4:	00120213          	addi	tp,tp,1 # 1 <boot+0x1>
    4de8:	00200293          	li	t0,2
    4dec:	fe5214e3          	bne	tp,t0,4dd4 <test_12+0x8>

00004df0 <test_13>:
    4df0:	00d00713          	li	a4,13
    4df4:	00000213          	li	tp,0
    4df8:	f00000b7          	lui	ra,0xf0000
    4dfc:	fff08093          	addi	ra,ra,-1 # efffffff <io+0x6fffffff>
    4e00:	f0000137          	lui	sp,0xf0000
    4e04:	00000013          	nop
    4e08:	1e20f263          	bgeu	ra,sp,4fec <fail>
    4e0c:	00120213          	addi	tp,tp,1 # 1 <boot+0x1>
    4e10:	00200293          	li	t0,2
    4e14:	fe5212e3          	bne	tp,t0,4df8 <test_13+0x8>

00004e18 <test_14>:
    4e18:	00e00713          	li	a4,14
    4e1c:	00000213          	li	tp,0
    4e20:	f00000b7          	lui	ra,0xf0000
    4e24:	fff08093          	addi	ra,ra,-1 # efffffff <io+0x6fffffff>
    4e28:	f0000137          	lui	sp,0xf0000
    4e2c:	00000013          	nop
    4e30:	00000013          	nop
    4e34:	1a20fc63          	bgeu	ra,sp,4fec <fail>
    4e38:	00120213          	addi	tp,tp,1 # 1 <boot+0x1>
    4e3c:	00200293          	li	t0,2
    4e40:	fe5210e3          	bne	tp,t0,4e20 <test_14+0x8>

00004e44 <test_15>:
    4e44:	00f00713          	li	a4,15
    4e48:	00000213          	li	tp,0
    4e4c:	f00000b7          	lui	ra,0xf0000
    4e50:	fff08093          	addi	ra,ra,-1 # efffffff <io+0x6fffffff>
    4e54:	00000013          	nop
    4e58:	f0000137          	lui	sp,0xf0000
    4e5c:	1820f863          	bgeu	ra,sp,4fec <fail>
    4e60:	00120213          	addi	tp,tp,1 # 1 <boot+0x1>
    4e64:	00200293          	li	t0,2
    4e68:	fe5212e3          	bne	tp,t0,4e4c <test_15+0x8>

00004e6c <test_16>:
    4e6c:	01000713          	li	a4,16
    4e70:	00000213          	li	tp,0
    4e74:	f00000b7          	lui	ra,0xf0000
    4e78:	fff08093          	addi	ra,ra,-1 # efffffff <io+0x6fffffff>
    4e7c:	00000013          	nop
    4e80:	f0000137          	lui	sp,0xf0000
    4e84:	00000013          	nop
    4e88:	1620f263          	bgeu	ra,sp,4fec <fail>
    4e8c:	00120213          	addi	tp,tp,1 # 1 <boot+0x1>
    4e90:	00200293          	li	t0,2
    4e94:	fe5210e3          	bne	tp,t0,4e74 <test_16+0x8>

00004e98 <test_17>:
    4e98:	01100713          	li	a4,17
    4e9c:	00000213          	li	tp,0
    4ea0:	f00000b7          	lui	ra,0xf0000
    4ea4:	fff08093          	addi	ra,ra,-1 # efffffff <io+0x6fffffff>
    4ea8:	00000013          	nop
    4eac:	00000013          	nop
    4eb0:	f0000137          	lui	sp,0xf0000
    4eb4:	1220fc63          	bgeu	ra,sp,4fec <fail>
    4eb8:	00120213          	addi	tp,tp,1 # 1 <boot+0x1>
    4ebc:	00200293          	li	t0,2
    4ec0:	fe5210e3          	bne	tp,t0,4ea0 <test_17+0x8>

00004ec4 <test_18>:
    4ec4:	01200713          	li	a4,18
    4ec8:	00000213          	li	tp,0
    4ecc:	f00000b7          	lui	ra,0xf0000
    4ed0:	fff08093          	addi	ra,ra,-1 # efffffff <io+0x6fffffff>
    4ed4:	f0000137          	lui	sp,0xf0000
    4ed8:	1020fa63          	bgeu	ra,sp,4fec <fail>
    4edc:	00120213          	addi	tp,tp,1 # 1 <boot+0x1>
    4ee0:	00200293          	li	t0,2
    4ee4:	fe5214e3          	bne	tp,t0,4ecc <test_18+0x8>

00004ee8 <test_19>:
    4ee8:	01300713          	li	a4,19
    4eec:	00000213          	li	tp,0
    4ef0:	f00000b7          	lui	ra,0xf0000
    4ef4:	fff08093          	addi	ra,ra,-1 # efffffff <io+0x6fffffff>
    4ef8:	f0000137          	lui	sp,0xf0000
    4efc:	00000013          	nop
    4f00:	0e20f663          	bgeu	ra,sp,4fec <fail>
    4f04:	00120213          	addi	tp,tp,1 # 1 <boot+0x1>
    4f08:	00200293          	li	t0,2
    4f0c:	fe5212e3          	bne	tp,t0,4ef0 <test_19+0x8>

00004f10 <test_20>:
    4f10:	01400713          	li	a4,20
    4f14:	00000213          	li	tp,0
    4f18:	f00000b7          	lui	ra,0xf0000
    4f1c:	fff08093          	addi	ra,ra,-1 # efffffff <io+0x6fffffff>
    4f20:	f0000137          	lui	sp,0xf0000
    4f24:	00000013          	nop
    4f28:	00000013          	nop
    4f2c:	0c20f063          	bgeu	ra,sp,4fec <fail>
    4f30:	00120213          	addi	tp,tp,1 # 1 <boot+0x1>
    4f34:	00200293          	li	t0,2
    4f38:	fe5210e3          	bne	tp,t0,4f18 <test_20+0x8>

00004f3c <test_21>:
    4f3c:	01500713          	li	a4,21
    4f40:	00000213          	li	tp,0
    4f44:	f00000b7          	lui	ra,0xf0000
    4f48:	fff08093          	addi	ra,ra,-1 # efffffff <io+0x6fffffff>
    4f4c:	00000013          	nop
    4f50:	f0000137          	lui	sp,0xf0000
    4f54:	0820fc63          	bgeu	ra,sp,4fec <fail>
    4f58:	00120213          	addi	tp,tp,1 # 1 <boot+0x1>
    4f5c:	00200293          	li	t0,2
    4f60:	fe5212e3          	bne	tp,t0,4f44 <test_21+0x8>

00004f64 <test_22>:
    4f64:	01600713          	li	a4,22
    4f68:	00000213          	li	tp,0
    4f6c:	f00000b7          	lui	ra,0xf0000
    4f70:	fff08093          	addi	ra,ra,-1 # efffffff <io+0x6fffffff>
    4f74:	00000013          	nop
    4f78:	f0000137          	lui	sp,0xf0000
    4f7c:	00000013          	nop
    4f80:	0620f663          	bgeu	ra,sp,4fec <fail>
    4f84:	00120213          	addi	tp,tp,1 # 1 <boot+0x1>
    4f88:	00200293          	li	t0,2
    4f8c:	fe5210e3          	bne	tp,t0,4f6c <test_22+0x8>

00004f90 <test_23>:
    4f90:	01700713          	li	a4,23
    4f94:	00000213          	li	tp,0
    4f98:	f00000b7          	lui	ra,0xf0000
    4f9c:	fff08093          	addi	ra,ra,-1 # efffffff <io+0x6fffffff>
    4fa0:	00000013          	nop
    4fa4:	00000013          	nop
    4fa8:	f0000137          	lui	sp,0xf0000
    4fac:	0420f063          	bgeu	ra,sp,4fec <fail>
    4fb0:	00120213          	addi	tp,tp,1 # 1 <boot+0x1>
    4fb4:	00200293          	li	t0,2
    4fb8:	fe5210e3          	bne	tp,t0,4f98 <test_23+0x8>

00004fbc <test_24>:
    4fbc:	00100093          	li	ra,1
    4fc0:	0000fa63          	bgeu	ra,zero,4fd4 <test_24+0x18>
    4fc4:	00108093          	addi	ra,ra,1
    4fc8:	00108093          	addi	ra,ra,1
    4fcc:	00108093          	addi	ra,ra,1
    4fd0:	00108093          	addi	ra,ra,1
    4fd4:	00108093          	addi	ra,ra,1
    4fd8:	00108093          	addi	ra,ra,1
    4fdc:	00300793          	li	a5,3
    4fe0:	01800713          	li	a4,24
    4fe4:	00f09463          	bne	ra,a5,4fec <fail>
    4fe8:	00e01663          	bne	zero,a4,4ff4 <pass>

00004fec <fail>:
    4fec:	8edfb0ef          	jal	ra,8d8 <failure>
    4ff0:	00100073          	ebreak

00004ff4 <pass>:
    4ff4:	00009137          	lui	sp,0x9
    4ff8:	8edfb0ef          	jal	ra,8e4 <OK>
    4ffc:	98dfb06f          	j	988 <bgeu_ret>

00005000 <srl>:
    5000:	00005537          	lui	a0,0x5
    5004:	02050513          	addi	a0,a0,32 # 5020 <.test_name>

00005008 <loop>:
    5008:	a54fb0ef          	jal	ra,25c <putstr>

0000500c <.prname_next>:
    500c:	00050583          	lb	a1,0(a0)
    5010:	00058a63          	beqz	a1,5024 <.prname_done>
    5014:	00b62023          	sw	a1,0(a2)
    5018:	00150513          	addi	a0,a0,1
    501c:	ff1ff06f          	j	500c <.prname_next>

00005020 <.test_name>:
    5020:	006c7273          	csrrci	tp,0x6,24

00005024 <.prname_done>:
    5024:	02e00593          	li	a1,46
    5028:	00b62023          	sw	a1,0(a2)
    502c:	00b62023          	sw	a1,0(a2)

00005030 <test_2>:
    5030:	ffff80b7          	lui	ra,0xffff8
    5034:	00000113          	li	sp,0
    5038:	0020d1b3          	srl	gp,ra,sp
    503c:	ffff87b7          	lui	a5,0xffff8
    5040:	00200713          	li	a4,2
    5044:	5af19463          	bne	gp,a5,55ec <fail>

00005048 <test_3>:
    5048:	ffff80b7          	lui	ra,0xffff8
    504c:	00100113          	li	sp,1
    5050:	0020d1b3          	srl	gp,ra,sp
    5054:	7fffc7b7          	lui	a5,0x7fffc
    5058:	00300713          	li	a4,3
    505c:	58f19863          	bne	gp,a5,55ec <fail>

00005060 <test_4>:
    5060:	ffff80b7          	lui	ra,0xffff8
    5064:	00700113          	li	sp,7
    5068:	0020d1b3          	srl	gp,ra,sp
    506c:	020007b7          	lui	a5,0x2000
    5070:	f0078793          	addi	a5,a5,-256 # 1ffff00 <tdat10+0x1ff7a03>
    5074:	00400713          	li	a4,4
    5078:	56f19a63          	bne	gp,a5,55ec <fail>

0000507c <test_5>:
    507c:	ffff80b7          	lui	ra,0xffff8
    5080:	00e00113          	li	sp,14
    5084:	0020d1b3          	srl	gp,ra,sp
    5088:	000407b7          	lui	a5,0x40
    508c:	ffe78793          	addi	a5,a5,-2 # 3fffe <tdat10+0x37b01>
    5090:	00500713          	li	a4,5
    5094:	54f19c63          	bne	gp,a5,55ec <fail>

00005098 <test_6>:
    5098:	ffff80b7          	lui	ra,0xffff8
    509c:	00108093          	addi	ra,ra,1 # ffff8001 <io+0x7fff8001>
    50a0:	00f00113          	li	sp,15
    50a4:	0020d1b3          	srl	gp,ra,sp
    50a8:	000207b7          	lui	a5,0x20
    50ac:	fff78793          	addi	a5,a5,-1 # 1ffff <tdat10+0x17b02>
    50b0:	00600713          	li	a4,6
    50b4:	52f19c63          	bne	gp,a5,55ec <fail>

000050b8 <test_7>:
    50b8:	fff00093          	li	ra,-1
    50bc:	00000113          	li	sp,0
    50c0:	0020d1b3          	srl	gp,ra,sp
    50c4:	fff00793          	li	a5,-1
    50c8:	00700713          	li	a4,7
    50cc:	52f19063          	bne	gp,a5,55ec <fail>

000050d0 <test_8>:
    50d0:	fff00093          	li	ra,-1
    50d4:	00100113          	li	sp,1
    50d8:	0020d1b3          	srl	gp,ra,sp
    50dc:	800007b7          	lui	a5,0x80000
    50e0:	fff78793          	addi	a5,a5,-1 # 7fffffff <io+0xffffffff>
    50e4:	00800713          	li	a4,8
    50e8:	50f19263          	bne	gp,a5,55ec <fail>

000050ec <test_9>:
    50ec:	fff00093          	li	ra,-1
    50f0:	00700113          	li	sp,7
    50f4:	0020d1b3          	srl	gp,ra,sp
    50f8:	020007b7          	lui	a5,0x2000
    50fc:	fff78793          	addi	a5,a5,-1 # 1ffffff <tdat10+0x1ff7b02>
    5100:	00900713          	li	a4,9
    5104:	4ef19463          	bne	gp,a5,55ec <fail>

00005108 <test_10>:
    5108:	fff00093          	li	ra,-1
    510c:	00e00113          	li	sp,14
    5110:	0020d1b3          	srl	gp,ra,sp
    5114:	000407b7          	lui	a5,0x40
    5118:	fff78793          	addi	a5,a5,-1 # 3ffff <tdat10+0x37b02>
    511c:	00a00713          	li	a4,10
    5120:	4cf19663          	bne	gp,a5,55ec <fail>

00005124 <test_11>:
    5124:	fff00093          	li	ra,-1
    5128:	01f00113          	li	sp,31
    512c:	0020d1b3          	srl	gp,ra,sp
    5130:	00100793          	li	a5,1
    5134:	00b00713          	li	a4,11
    5138:	4af19a63          	bne	gp,a5,55ec <fail>

0000513c <test_12>:
    513c:	212120b7          	lui	ra,0x21212
    5140:	12108093          	addi	ra,ra,289 # 21212121 <tdat10+0x21209c24>
    5144:	00000113          	li	sp,0
    5148:	0020d1b3          	srl	gp,ra,sp
    514c:	212127b7          	lui	a5,0x21212
    5150:	12178793          	addi	a5,a5,289 # 21212121 <tdat10+0x21209c24>
    5154:	00c00713          	li	a4,12
    5158:	48f19a63          	bne	gp,a5,55ec <fail>

0000515c <test_13>:
    515c:	212120b7          	lui	ra,0x21212
    5160:	12108093          	addi	ra,ra,289 # 21212121 <tdat10+0x21209c24>
    5164:	00100113          	li	sp,1
    5168:	0020d1b3          	srl	gp,ra,sp
    516c:	109097b7          	lui	a5,0x10909
    5170:	09078793          	addi	a5,a5,144 # 10909090 <tdat10+0x10900b93>
    5174:	00d00713          	li	a4,13
    5178:	46f19a63          	bne	gp,a5,55ec <fail>

0000517c <test_14>:
    517c:	212120b7          	lui	ra,0x21212
    5180:	12108093          	addi	ra,ra,289 # 21212121 <tdat10+0x21209c24>
    5184:	00700113          	li	sp,7
    5188:	0020d1b3          	srl	gp,ra,sp
    518c:	004247b7          	lui	a5,0x424
    5190:	24278793          	addi	a5,a5,578 # 424242 <tdat10+0x41bd45>
    5194:	00e00713          	li	a4,14
    5198:	44f19a63          	bne	gp,a5,55ec <fail>

0000519c <test_15>:
    519c:	212120b7          	lui	ra,0x21212
    51a0:	12108093          	addi	ra,ra,289 # 21212121 <tdat10+0x21209c24>
    51a4:	00e00113          	li	sp,14
    51a8:	0020d1b3          	srl	gp,ra,sp
    51ac:	000087b7          	lui	a5,0x8
    51b0:	48478793          	addi	a5,a5,1156 # 8484 <nxt.0+0x2e4>
    51b4:	00f00713          	li	a4,15
    51b8:	42f19a63          	bne	gp,a5,55ec <fail>

000051bc <test_16>:
    51bc:	212120b7          	lui	ra,0x21212
    51c0:	12108093          	addi	ra,ra,289 # 21212121 <tdat10+0x21209c24>
    51c4:	01f00113          	li	sp,31
    51c8:	0020d1b3          	srl	gp,ra,sp
    51cc:	00000793          	li	a5,0
    51d0:	01000713          	li	a4,16
    51d4:	40f19c63          	bne	gp,a5,55ec <fail>

000051d8 <test_17>:
    51d8:	212120b7          	lui	ra,0x21212
    51dc:	12108093          	addi	ra,ra,289 # 21212121 <tdat10+0x21209c24>
    51e0:	fe000113          	li	sp,-32
    51e4:	0020d1b3          	srl	gp,ra,sp
    51e8:	212127b7          	lui	a5,0x21212
    51ec:	12178793          	addi	a5,a5,289 # 21212121 <tdat10+0x21209c24>
    51f0:	01100713          	li	a4,17
    51f4:	3ef19c63          	bne	gp,a5,55ec <fail>

000051f8 <test_18>:
    51f8:	212120b7          	lui	ra,0x21212
    51fc:	12108093          	addi	ra,ra,289 # 21212121 <tdat10+0x21209c24>
    5200:	fe100113          	li	sp,-31
    5204:	0020d1b3          	srl	gp,ra,sp
    5208:	109097b7          	lui	a5,0x10909
    520c:	09078793          	addi	a5,a5,144 # 10909090 <tdat10+0x10900b93>
    5210:	01200713          	li	a4,18
    5214:	3cf19c63          	bne	gp,a5,55ec <fail>

00005218 <test_19>:
    5218:	212120b7          	lui	ra,0x21212
    521c:	12108093          	addi	ra,ra,289 # 21212121 <tdat10+0x21209c24>
    5220:	fe700113          	li	sp,-25
    5224:	0020d1b3          	srl	gp,ra,sp
    5228:	004247b7          	lui	a5,0x424
    522c:	24278793          	addi	a5,a5,578 # 424242 <tdat10+0x41bd45>
    5230:	01300713          	li	a4,19
    5234:	3af19c63          	bne	gp,a5,55ec <fail>

00005238 <test_20>:
    5238:	212120b7          	lui	ra,0x21212
    523c:	12108093          	addi	ra,ra,289 # 21212121 <tdat10+0x21209c24>
    5240:	fee00113          	li	sp,-18
    5244:	0020d1b3          	srl	gp,ra,sp
    5248:	000087b7          	lui	a5,0x8
    524c:	48478793          	addi	a5,a5,1156 # 8484 <nxt.0+0x2e4>
    5250:	01400713          	li	a4,20
    5254:	38f19c63          	bne	gp,a5,55ec <fail>

00005258 <test_21>:
    5258:	212120b7          	lui	ra,0x21212
    525c:	12108093          	addi	ra,ra,289 # 21212121 <tdat10+0x21209c24>
    5260:	fff00113          	li	sp,-1
    5264:	0020d1b3          	srl	gp,ra,sp
    5268:	00000793          	li	a5,0
    526c:	01500713          	li	a4,21
    5270:	36f19e63          	bne	gp,a5,55ec <fail>

00005274 <test_22>:
    5274:	ffff80b7          	lui	ra,0xffff8
    5278:	00100113          	li	sp,1
    527c:	0020d0b3          	srl	ra,ra,sp
    5280:	7fffc7b7          	lui	a5,0x7fffc
    5284:	01600713          	li	a4,22
    5288:	36f09263          	bne	ra,a5,55ec <fail>

0000528c <test_23>:
    528c:	ffff80b7          	lui	ra,0xffff8
    5290:	00e00113          	li	sp,14
    5294:	0020d133          	srl	sp,ra,sp
    5298:	000407b7          	lui	a5,0x40
    529c:	ffe78793          	addi	a5,a5,-2 # 3fffe <tdat10+0x37b01>
    52a0:	01700713          	li	a4,23
    52a4:	34f11463          	bne	sp,a5,55ec <fail>

000052a8 <test_24>:
    52a8:	00700093          	li	ra,7
    52ac:	0010d0b3          	srl	ra,ra,ra
    52b0:	00000793          	li	a5,0
    52b4:	01800713          	li	a4,24
    52b8:	32f09a63          	bne	ra,a5,55ec <fail>

000052bc <test_25>:
    52bc:	00000213          	li	tp,0
    52c0:	ffff80b7          	lui	ra,0xffff8
    52c4:	00100113          	li	sp,1
    52c8:	0020d1b3          	srl	gp,ra,sp
    52cc:	00018313          	mv	t1,gp
    52d0:	00120213          	addi	tp,tp,1 # 1 <boot+0x1>
    52d4:	00200293          	li	t0,2
    52d8:	fe5214e3          	bne	tp,t0,52c0 <test_25+0x4>
    52dc:	7fffc7b7          	lui	a5,0x7fffc
    52e0:	01900713          	li	a4,25
    52e4:	30f31463          	bne	t1,a5,55ec <fail>

000052e8 <test_26>:
    52e8:	00000213          	li	tp,0
    52ec:	ffff80b7          	lui	ra,0xffff8
    52f0:	00e00113          	li	sp,14
    52f4:	0020d1b3          	srl	gp,ra,sp
    52f8:	00000013          	nop
    52fc:	00018313          	mv	t1,gp
    5300:	00120213          	addi	tp,tp,1 # 1 <boot+0x1>
    5304:	00200293          	li	t0,2
    5308:	fe5212e3          	bne	tp,t0,52ec <test_26+0x4>
    530c:	000407b7          	lui	a5,0x40
    5310:	ffe78793          	addi	a5,a5,-2 # 3fffe <tdat10+0x37b01>
    5314:	01a00713          	li	a4,26
    5318:	2cf31a63          	bne	t1,a5,55ec <fail>

0000531c <test_27>:
    531c:	00000213          	li	tp,0
    5320:	ffff80b7          	lui	ra,0xffff8
    5324:	00f00113          	li	sp,15
    5328:	0020d1b3          	srl	gp,ra,sp
    532c:	00000013          	nop
    5330:	00000013          	nop
    5334:	00018313          	mv	t1,gp
    5338:	00120213          	addi	tp,tp,1 # 1 <boot+0x1>
    533c:	00200293          	li	t0,2
    5340:	fe5210e3          	bne	tp,t0,5320 <test_27+0x4>
    5344:	000207b7          	lui	a5,0x20
    5348:	fff78793          	addi	a5,a5,-1 # 1ffff <tdat10+0x17b02>
    534c:	01b00713          	li	a4,27
    5350:	28f31e63          	bne	t1,a5,55ec <fail>

00005354 <test_28>:
    5354:	00000213          	li	tp,0
    5358:	ffff80b7          	lui	ra,0xffff8
    535c:	00100113          	li	sp,1
    5360:	0020d1b3          	srl	gp,ra,sp
    5364:	00120213          	addi	tp,tp,1 # 1 <boot+0x1>
    5368:	00200293          	li	t0,2
    536c:	fe5216e3          	bne	tp,t0,5358 <test_28+0x4>
    5370:	7fffc7b7          	lui	a5,0x7fffc
    5374:	01c00713          	li	a4,28
    5378:	26f19a63          	bne	gp,a5,55ec <fail>

0000537c <test_29>:
    537c:	00000213          	li	tp,0
    5380:	ffff80b7          	lui	ra,0xffff8
    5384:	00700113          	li	sp,7
    5388:	00000013          	nop
    538c:	0020d1b3          	srl	gp,ra,sp
    5390:	00120213          	addi	tp,tp,1 # 1 <boot+0x1>
    5394:	00200293          	li	t0,2
    5398:	fe5214e3          	bne	tp,t0,5380 <test_29+0x4>
    539c:	020007b7          	lui	a5,0x2000
    53a0:	f0078793          	addi	a5,a5,-256 # 1ffff00 <tdat10+0x1ff7a03>
    53a4:	01d00713          	li	a4,29
    53a8:	24f19263          	bne	gp,a5,55ec <fail>

000053ac <test_30>:
    53ac:	00000213          	li	tp,0
    53b0:	ffff80b7          	lui	ra,0xffff8
    53b4:	00f00113          	li	sp,15
    53b8:	00000013          	nop
    53bc:	00000013          	nop
    53c0:	0020d1b3          	srl	gp,ra,sp
    53c4:	00120213          	addi	tp,tp,1 # 1 <boot+0x1>
    53c8:	00200293          	li	t0,2
    53cc:	fe5212e3          	bne	tp,t0,53b0 <test_30+0x4>
    53d0:	000207b7          	lui	a5,0x20
    53d4:	fff78793          	addi	a5,a5,-1 # 1ffff <tdat10+0x17b02>
    53d8:	01e00713          	li	a4,30
    53dc:	20f19863          	bne	gp,a5,55ec <fail>

000053e0 <test_31>:
    53e0:	00000213          	li	tp,0
    53e4:	ffff80b7          	lui	ra,0xffff8
    53e8:	00000013          	nop
    53ec:	00100113          	li	sp,1
    53f0:	0020d1b3          	srl	gp,ra,sp
    53f4:	00120213          	addi	tp,tp,1 # 1 <boot+0x1>
    53f8:	00200293          	li	t0,2
    53fc:	fe5214e3          	bne	tp,t0,53e4 <test_31+0x4>
    5400:	7fffc7b7          	lui	a5,0x7fffc
    5404:	01f00713          	li	a4,31
    5408:	1ef19263          	bne	gp,a5,55ec <fail>

0000540c <test_32>:
    540c:	00000213          	li	tp,0
    5410:	ffff80b7          	lui	ra,0xffff8
    5414:	00000013          	nop
    5418:	00700113          	li	sp,7
    541c:	00000013          	nop
    5420:	0020d1b3          	srl	gp,ra,sp
    5424:	00120213          	addi	tp,tp,1 # 1 <boot+0x1>
    5428:	00200293          	li	t0,2
    542c:	fe5212e3          	bne	tp,t0,5410 <test_32+0x4>
    5430:	020007b7          	lui	a5,0x2000
    5434:	f0078793          	addi	a5,a5,-256 # 1ffff00 <tdat10+0x1ff7a03>
    5438:	02000713          	li	a4,32
    543c:	1af19863          	bne	gp,a5,55ec <fail>

00005440 <test_33>:
    5440:	00000213          	li	tp,0
    5444:	ffff80b7          	lui	ra,0xffff8
    5448:	00000013          	nop
    544c:	00000013          	nop
    5450:	00f00113          	li	sp,15
    5454:	0020d1b3          	srl	gp,ra,sp
    5458:	00120213          	addi	tp,tp,1 # 1 <boot+0x1>
    545c:	00200293          	li	t0,2
    5460:	fe5212e3          	bne	tp,t0,5444 <test_33+0x4>
    5464:	000207b7          	lui	a5,0x20
    5468:	fff78793          	addi	a5,a5,-1 # 1ffff <tdat10+0x17b02>
    546c:	02100713          	li	a4,33
    5470:	16f19e63          	bne	gp,a5,55ec <fail>

00005474 <test_34>:
    5474:	00000213          	li	tp,0
    5478:	00100113          	li	sp,1
    547c:	ffff80b7          	lui	ra,0xffff8
    5480:	0020d1b3          	srl	gp,ra,sp
    5484:	00120213          	addi	tp,tp,1 # 1 <boot+0x1>
    5488:	00200293          	li	t0,2
    548c:	fe5216e3          	bne	tp,t0,5478 <test_34+0x4>
    5490:	7fffc7b7          	lui	a5,0x7fffc
    5494:	02200713          	li	a4,34
    5498:	14f19a63          	bne	gp,a5,55ec <fail>

0000549c <test_35>:
    549c:	00000213          	li	tp,0
    54a0:	00700113          	li	sp,7
    54a4:	ffff80b7          	lui	ra,0xffff8
    54a8:	00000013          	nop
    54ac:	0020d1b3          	srl	gp,ra,sp
    54b0:	00120213          	addi	tp,tp,1 # 1 <boot+0x1>
    54b4:	00200293          	li	t0,2
    54b8:	fe5214e3          	bne	tp,t0,54a0 <test_35+0x4>
    54bc:	020007b7          	lui	a5,0x2000
    54c0:	f0078793          	addi	a5,a5,-256 # 1ffff00 <tdat10+0x1ff7a03>
    54c4:	02300713          	li	a4,35
    54c8:	12f19263          	bne	gp,a5,55ec <fail>

000054cc <test_36>:
    54cc:	00000213          	li	tp,0
    54d0:	00f00113          	li	sp,15
    54d4:	ffff80b7          	lui	ra,0xffff8
    54d8:	00000013          	nop
    54dc:	00000013          	nop
    54e0:	0020d1b3          	srl	gp,ra,sp
    54e4:	00120213          	addi	tp,tp,1 # 1 <boot+0x1>
    54e8:	00200293          	li	t0,2
    54ec:	fe5212e3          	bne	tp,t0,54d0 <test_36+0x4>
    54f0:	000207b7          	lui	a5,0x20
    54f4:	fff78793          	addi	a5,a5,-1 # 1ffff <tdat10+0x17b02>
    54f8:	02400713          	li	a4,36
    54fc:	0ef19863          	bne	gp,a5,55ec <fail>

00005500 <test_37>:
    5500:	00000213          	li	tp,0
    5504:	00100113          	li	sp,1
    5508:	00000013          	nop
    550c:	ffff80b7          	lui	ra,0xffff8
    5510:	0020d1b3          	srl	gp,ra,sp
    5514:	00120213          	addi	tp,tp,1 # 1 <boot+0x1>
    5518:	00200293          	li	t0,2
    551c:	fe5214e3          	bne	tp,t0,5504 <test_37+0x4>
    5520:	7fffc7b7          	lui	a5,0x7fffc
    5524:	02500713          	li	a4,37
    5528:	0cf19263          	bne	gp,a5,55ec <fail>

0000552c <test_38>:
    552c:	00000213          	li	tp,0
    5530:	00700113          	li	sp,7
    5534:	00000013          	nop
    5538:	ffff80b7          	lui	ra,0xffff8
    553c:	00000013          	nop
    5540:	0020d1b3          	srl	gp,ra,sp
    5544:	00120213          	addi	tp,tp,1 # 1 <boot+0x1>
    5548:	00200293          	li	t0,2
    554c:	fe5212e3          	bne	tp,t0,5530 <test_38+0x4>
    5550:	020007b7          	lui	a5,0x2000
    5554:	f0078793          	addi	a5,a5,-256 # 1ffff00 <tdat10+0x1ff7a03>
    5558:	02600713          	li	a4,38
    555c:	08f19863          	bne	gp,a5,55ec <fail>

00005560 <test_39>:
    5560:	00000213          	li	tp,0
    5564:	00f00113          	li	sp,15
    5568:	00000013          	nop
    556c:	00000013          	nop
    5570:	ffff80b7          	lui	ra,0xffff8
    5574:	0020d1b3          	srl	gp,ra,sp
    5578:	00120213          	addi	tp,tp,1 # 1 <boot+0x1>
    557c:	00200293          	li	t0,2
    5580:	fe5212e3          	bne	tp,t0,5564 <test_39+0x4>
    5584:	000207b7          	lui	a5,0x20
    5588:	fff78793          	addi	a5,a5,-1 # 1ffff <tdat10+0x17b02>
    558c:	02700713          	li	a4,39
    5590:	04f19e63          	bne	gp,a5,55ec <fail>

00005594 <test_40>:
    5594:	00f00093          	li	ra,15
    5598:	00105133          	srl	sp,zero,ra
    559c:	00000793          	li	a5,0
    55a0:	02800713          	li	a4,40
    55a4:	04f11463          	bne	sp,a5,55ec <fail>

000055a8 <test_41>:
    55a8:	02000093          	li	ra,32
    55ac:	0000d133          	srl	sp,ra,zero
    55b0:	02000793          	li	a5,32
    55b4:	02900713          	li	a4,41
    55b8:	02f11a63          	bne	sp,a5,55ec <fail>

000055bc <test_42>:
    55bc:	000050b3          	srl	ra,zero,zero
    55c0:	00000793          	li	a5,0
    55c4:	02a00713          	li	a4,42
    55c8:	02f09263          	bne	ra,a5,55ec <fail>

000055cc <test_43>:
    55cc:	40000093          	li	ra,1024
    55d0:	00001137          	lui	sp,0x1
    55d4:	80010113          	addi	sp,sp,-2048 # 800 <usleep+0x20>
    55d8:	0020d033          	srl	zero,ra,sp
    55dc:	00000793          	li	a5,0
    55e0:	02b00713          	li	a4,43
    55e4:	00f01463          	bne	zero,a5,55ec <fail>
    55e8:	00e01663          	bne	zero,a4,55f4 <pass>

000055ec <fail>:
    55ec:	aecfb0ef          	jal	ra,8d8 <failure>
    55f0:	00100073          	ebreak

000055f4 <pass>:
    55f4:	00009137          	lui	sp,0x9
    55f8:	aecfb0ef          	jal	ra,8e4 <OK>
    55fc:	c3cfb06f          	j	a38 <srl_ret>

00005600 <slt>:
    5600:	00005537          	lui	a0,0x5
    5604:	62050513          	addi	a0,a0,1568 # 5620 <.test_name>

00005608 <loop>:
    5608:	c55fa0ef          	jal	ra,25c <putstr>

0000560c <.prname_next>:
    560c:	00050583          	lb	a1,0(a0)
    5610:	00058a63          	beqz	a1,5624 <.prname_done>
    5614:	00b62023          	sw	a1,0(a2)
    5618:	00150513          	addi	a0,a0,1
    561c:	ff1ff06f          	j	560c <.prname_next>

00005620 <.test_name>:
    5620:	00746c73          	csrrsi	s8,0x7,8

00005624 <.prname_done>:
    5624:	02e00593          	li	a1,46
    5628:	00b62023          	sw	a1,0(a2)
    562c:	00b62023          	sw	a1,0(a2)

00005630 <test_2>:
    5630:	00000093          	li	ra,0
    5634:	00000113          	li	sp,0
    5638:	0020a1b3          	slt	gp,ra,sp
    563c:	00000793          	li	a5,0
    5640:	00200713          	li	a4,2
    5644:	4af19a63          	bne	gp,a5,5af8 <fail>

00005648 <test_3>:
    5648:	00100093          	li	ra,1
    564c:	00100113          	li	sp,1
    5650:	0020a1b3          	slt	gp,ra,sp
    5654:	00000793          	li	a5,0
    5658:	00300713          	li	a4,3
    565c:	48f19e63          	bne	gp,a5,5af8 <fail>

00005660 <test_4>:
    5660:	00300093          	li	ra,3
    5664:	00700113          	li	sp,7
    5668:	0020a1b3          	slt	gp,ra,sp
    566c:	00100793          	li	a5,1
    5670:	00400713          	li	a4,4
    5674:	48f19263          	bne	gp,a5,5af8 <fail>

00005678 <test_5>:
    5678:	00700093          	li	ra,7
    567c:	00300113          	li	sp,3
    5680:	0020a1b3          	slt	gp,ra,sp
    5684:	00000793          	li	a5,0
    5688:	00500713          	li	a4,5
    568c:	46f19663          	bne	gp,a5,5af8 <fail>

00005690 <test_6>:
    5690:	00000093          	li	ra,0
    5694:	ffff8137          	lui	sp,0xffff8
    5698:	0020a1b3          	slt	gp,ra,sp
    569c:	00000793          	li	a5,0
    56a0:	00600713          	li	a4,6
    56a4:	44f19a63          	bne	gp,a5,5af8 <fail>

000056a8 <test_7>:
    56a8:	800000b7          	lui	ra,0x80000
    56ac:	00000113          	li	sp,0
    56b0:	0020a1b3          	slt	gp,ra,sp
    56b4:	00100793          	li	a5,1
    56b8:	00700713          	li	a4,7
    56bc:	42f19e63          	bne	gp,a5,5af8 <fail>

000056c0 <test_8>:
    56c0:	800000b7          	lui	ra,0x80000
    56c4:	ffff8137          	lui	sp,0xffff8
    56c8:	0020a1b3          	slt	gp,ra,sp
    56cc:	00100793          	li	a5,1
    56d0:	00800713          	li	a4,8
    56d4:	42f19263          	bne	gp,a5,5af8 <fail>

000056d8 <test_9>:
    56d8:	00000093          	li	ra,0
    56dc:	00008137          	lui	sp,0x8
    56e0:	fff10113          	addi	sp,sp,-1 # 7fff <test_14+0x23>
    56e4:	0020a1b3          	slt	gp,ra,sp
    56e8:	00100793          	li	a5,1
    56ec:	00900713          	li	a4,9
    56f0:	40f19463          	bne	gp,a5,5af8 <fail>

000056f4 <test_10>:
    56f4:	800000b7          	lui	ra,0x80000
    56f8:	fff08093          	addi	ra,ra,-1 # 7fffffff <io+0xffffffff>
    56fc:	00000113          	li	sp,0
    5700:	0020a1b3          	slt	gp,ra,sp
    5704:	00000793          	li	a5,0
    5708:	00a00713          	li	a4,10
    570c:	3ef19663          	bne	gp,a5,5af8 <fail>

00005710 <test_11>:
    5710:	800000b7          	lui	ra,0x80000
    5714:	fff08093          	addi	ra,ra,-1 # 7fffffff <io+0xffffffff>
    5718:	00008137          	lui	sp,0x8
    571c:	fff10113          	addi	sp,sp,-1 # 7fff <test_14+0x23>
    5720:	0020a1b3          	slt	gp,ra,sp
    5724:	00000793          	li	a5,0
    5728:	00b00713          	li	a4,11
    572c:	3cf19663          	bne	gp,a5,5af8 <fail>

00005730 <test_12>:
    5730:	800000b7          	lui	ra,0x80000
    5734:	00008137          	lui	sp,0x8
    5738:	fff10113          	addi	sp,sp,-1 # 7fff <test_14+0x23>
    573c:	0020a1b3          	slt	gp,ra,sp
    5740:	00100793          	li	a5,1
    5744:	00c00713          	li	a4,12
    5748:	3af19863          	bne	gp,a5,5af8 <fail>

0000574c <test_13>:
    574c:	800000b7          	lui	ra,0x80000
    5750:	fff08093          	addi	ra,ra,-1 # 7fffffff <io+0xffffffff>
    5754:	ffff8137          	lui	sp,0xffff8
    5758:	0020a1b3          	slt	gp,ra,sp
    575c:	00000793          	li	a5,0
    5760:	00d00713          	li	a4,13
    5764:	38f19a63          	bne	gp,a5,5af8 <fail>

00005768 <test_14>:
    5768:	00000093          	li	ra,0
    576c:	fff00113          	li	sp,-1
    5770:	0020a1b3          	slt	gp,ra,sp
    5774:	00000793          	li	a5,0
    5778:	00e00713          	li	a4,14
    577c:	36f19e63          	bne	gp,a5,5af8 <fail>

00005780 <test_15>:
    5780:	fff00093          	li	ra,-1
    5784:	00100113          	li	sp,1
    5788:	0020a1b3          	slt	gp,ra,sp
    578c:	00100793          	li	a5,1
    5790:	00f00713          	li	a4,15
    5794:	36f19263          	bne	gp,a5,5af8 <fail>

00005798 <test_16>:
    5798:	fff00093          	li	ra,-1
    579c:	fff00113          	li	sp,-1
    57a0:	0020a1b3          	slt	gp,ra,sp
    57a4:	00000793          	li	a5,0
    57a8:	01000713          	li	a4,16
    57ac:	34f19663          	bne	gp,a5,5af8 <fail>

000057b0 <test_17>:
    57b0:	00e00093          	li	ra,14
    57b4:	00d00113          	li	sp,13
    57b8:	0020a0b3          	slt	ra,ra,sp
    57bc:	00000793          	li	a5,0
    57c0:	01100713          	li	a4,17
    57c4:	32f09a63          	bne	ra,a5,5af8 <fail>

000057c8 <test_18>:
    57c8:	00b00093          	li	ra,11
    57cc:	00d00113          	li	sp,13
    57d0:	0020a133          	slt	sp,ra,sp
    57d4:	00100793          	li	a5,1
    57d8:	01200713          	li	a4,18
    57dc:	30f11e63          	bne	sp,a5,5af8 <fail>

000057e0 <test_19>:
    57e0:	00d00093          	li	ra,13
    57e4:	0010a0b3          	slt	ra,ra,ra
    57e8:	00000793          	li	a5,0
    57ec:	01300713          	li	a4,19
    57f0:	30f09463          	bne	ra,a5,5af8 <fail>

000057f4 <test_20>:
    57f4:	00000213          	li	tp,0
    57f8:	00b00093          	li	ra,11
    57fc:	00d00113          	li	sp,13
    5800:	0020a1b3          	slt	gp,ra,sp
    5804:	00018313          	mv	t1,gp
    5808:	00120213          	addi	tp,tp,1 # 1 <boot+0x1>
    580c:	00200293          	li	t0,2
    5810:	fe5214e3          	bne	tp,t0,57f8 <test_20+0x4>
    5814:	00100793          	li	a5,1
    5818:	01400713          	li	a4,20
    581c:	2cf31e63          	bne	t1,a5,5af8 <fail>

00005820 <test_21>:
    5820:	00000213          	li	tp,0
    5824:	00e00093          	li	ra,14
    5828:	00d00113          	li	sp,13
    582c:	0020a1b3          	slt	gp,ra,sp
    5830:	00000013          	nop
    5834:	00018313          	mv	t1,gp
    5838:	00120213          	addi	tp,tp,1 # 1 <boot+0x1>
    583c:	00200293          	li	t0,2
    5840:	fe5212e3          	bne	tp,t0,5824 <test_21+0x4>
    5844:	00000793          	li	a5,0
    5848:	01500713          	li	a4,21
    584c:	2af31663          	bne	t1,a5,5af8 <fail>

00005850 <test_22>:
    5850:	00000213          	li	tp,0
    5854:	00c00093          	li	ra,12
    5858:	00d00113          	li	sp,13
    585c:	0020a1b3          	slt	gp,ra,sp
    5860:	00000013          	nop
    5864:	00000013          	nop
    5868:	00018313          	mv	t1,gp
    586c:	00120213          	addi	tp,tp,1 # 1 <boot+0x1>
    5870:	00200293          	li	t0,2
    5874:	fe5210e3          	bne	tp,t0,5854 <test_22+0x4>
    5878:	00100793          	li	a5,1
    587c:	01600713          	li	a4,22
    5880:	26f31c63          	bne	t1,a5,5af8 <fail>

00005884 <test_23>:
    5884:	00000213          	li	tp,0
    5888:	00e00093          	li	ra,14
    588c:	00d00113          	li	sp,13
    5890:	0020a1b3          	slt	gp,ra,sp
    5894:	00120213          	addi	tp,tp,1 # 1 <boot+0x1>
    5898:	00200293          	li	t0,2
    589c:	fe5216e3          	bne	tp,t0,5888 <test_23+0x4>
    58a0:	00000793          	li	a5,0
    58a4:	01700713          	li	a4,23
    58a8:	24f19863          	bne	gp,a5,5af8 <fail>

000058ac <test_24>:
    58ac:	00000213          	li	tp,0
    58b0:	00b00093          	li	ra,11
    58b4:	00d00113          	li	sp,13
    58b8:	00000013          	nop
    58bc:	0020a1b3          	slt	gp,ra,sp
    58c0:	00120213          	addi	tp,tp,1 # 1 <boot+0x1>
    58c4:	00200293          	li	t0,2
    58c8:	fe5214e3          	bne	tp,t0,58b0 <test_24+0x4>
    58cc:	00100793          	li	a5,1
    58d0:	01800713          	li	a4,24
    58d4:	22f19263          	bne	gp,a5,5af8 <fail>

000058d8 <test_25>:
    58d8:	00000213          	li	tp,0
    58dc:	00f00093          	li	ra,15
    58e0:	00d00113          	li	sp,13
    58e4:	00000013          	nop
    58e8:	00000013          	nop
    58ec:	0020a1b3          	slt	gp,ra,sp
    58f0:	00120213          	addi	tp,tp,1 # 1 <boot+0x1>
    58f4:	00200293          	li	t0,2
    58f8:	fe5212e3          	bne	tp,t0,58dc <test_25+0x4>
    58fc:	00000793          	li	a5,0
    5900:	01900713          	li	a4,25
    5904:	1ef19a63          	bne	gp,a5,5af8 <fail>

00005908 <test_26>:
    5908:	00000213          	li	tp,0
    590c:	00a00093          	li	ra,10
    5910:	00000013          	nop
    5914:	00d00113          	li	sp,13
    5918:	0020a1b3          	slt	gp,ra,sp
    591c:	00120213          	addi	tp,tp,1 # 1 <boot+0x1>
    5920:	00200293          	li	t0,2
    5924:	fe5214e3          	bne	tp,t0,590c <test_26+0x4>
    5928:	00100793          	li	a5,1
    592c:	01a00713          	li	a4,26
    5930:	1cf19463          	bne	gp,a5,5af8 <fail>

00005934 <test_27>:
    5934:	00000213          	li	tp,0
    5938:	01000093          	li	ra,16
    593c:	00000013          	nop
    5940:	00d00113          	li	sp,13
    5944:	00000013          	nop
    5948:	0020a1b3          	slt	gp,ra,sp
    594c:	00120213          	addi	tp,tp,1 # 1 <boot+0x1>
    5950:	00200293          	li	t0,2
    5954:	fe5212e3          	bne	tp,t0,5938 <test_27+0x4>
    5958:	00000793          	li	a5,0
    595c:	01b00713          	li	a4,27
    5960:	18f19c63          	bne	gp,a5,5af8 <fail>

00005964 <test_28>:
    5964:	00000213          	li	tp,0
    5968:	00900093          	li	ra,9
    596c:	00000013          	nop
    5970:	00000013          	nop
    5974:	00d00113          	li	sp,13
    5978:	0020a1b3          	slt	gp,ra,sp
    597c:	00120213          	addi	tp,tp,1 # 1 <boot+0x1>
    5980:	00200293          	li	t0,2
    5984:	fe5212e3          	bne	tp,t0,5968 <test_28+0x4>
    5988:	00100793          	li	a5,1
    598c:	01c00713          	li	a4,28
    5990:	16f19463          	bne	gp,a5,5af8 <fail>

00005994 <test_29>:
    5994:	00000213          	li	tp,0
    5998:	00d00113          	li	sp,13
    599c:	01100093          	li	ra,17
    59a0:	0020a1b3          	slt	gp,ra,sp
    59a4:	00120213          	addi	tp,tp,1 # 1 <boot+0x1>
    59a8:	00200293          	li	t0,2
    59ac:	fe5216e3          	bne	tp,t0,5998 <test_29+0x4>
    59b0:	00000793          	li	a5,0
    59b4:	01d00713          	li	a4,29
    59b8:	14f19063          	bne	gp,a5,5af8 <fail>

000059bc <test_30>:
    59bc:	00000213          	li	tp,0
    59c0:	00d00113          	li	sp,13
    59c4:	00800093          	li	ra,8
    59c8:	00000013          	nop
    59cc:	0020a1b3          	slt	gp,ra,sp
    59d0:	00120213          	addi	tp,tp,1 # 1 <boot+0x1>
    59d4:	00200293          	li	t0,2
    59d8:	fe5214e3          	bne	tp,t0,59c0 <test_30+0x4>
    59dc:	00100793          	li	a5,1
    59e0:	01e00713          	li	a4,30
    59e4:	10f19a63          	bne	gp,a5,5af8 <fail>

000059e8 <test_31>:
    59e8:	00000213          	li	tp,0
    59ec:	00d00113          	li	sp,13
    59f0:	01200093          	li	ra,18
    59f4:	00000013          	nop
    59f8:	00000013          	nop
    59fc:	0020a1b3          	slt	gp,ra,sp
    5a00:	00120213          	addi	tp,tp,1 # 1 <boot+0x1>
    5a04:	00200293          	li	t0,2
    5a08:	fe5212e3          	bne	tp,t0,59ec <test_31+0x4>
    5a0c:	00000793          	li	a5,0
    5a10:	01f00713          	li	a4,31
    5a14:	0ef19263          	bne	gp,a5,5af8 <fail>

00005a18 <test_32>:
    5a18:	00000213          	li	tp,0
    5a1c:	00d00113          	li	sp,13
    5a20:	00000013          	nop
    5a24:	00700093          	li	ra,7
    5a28:	0020a1b3          	slt	gp,ra,sp
    5a2c:	00120213          	addi	tp,tp,1 # 1 <boot+0x1>
    5a30:	00200293          	li	t0,2
    5a34:	fe5214e3          	bne	tp,t0,5a1c <test_32+0x4>
    5a38:	00100793          	li	a5,1
    5a3c:	02000713          	li	a4,32
    5a40:	0af19c63          	bne	gp,a5,5af8 <fail>

00005a44 <test_33>:
    5a44:	00000213          	li	tp,0
    5a48:	00d00113          	li	sp,13
    5a4c:	00000013          	nop
    5a50:	01300093          	li	ra,19
    5a54:	00000013          	nop
    5a58:	0020a1b3          	slt	gp,ra,sp
    5a5c:	00120213          	addi	tp,tp,1 # 1 <boot+0x1>
    5a60:	00200293          	li	t0,2
    5a64:	fe5212e3          	bne	tp,t0,5a48 <test_33+0x4>
    5a68:	00000793          	li	a5,0
    5a6c:	02100713          	li	a4,33
    5a70:	08f19463          	bne	gp,a5,5af8 <fail>

00005a74 <test_34>:
    5a74:	00000213          	li	tp,0
    5a78:	00d00113          	li	sp,13
    5a7c:	00000013          	nop
    5a80:	00000013          	nop
    5a84:	00600093          	li	ra,6
    5a88:	0020a1b3          	slt	gp,ra,sp
    5a8c:	00120213          	addi	tp,tp,1 # 1 <boot+0x1>
    5a90:	00200293          	li	t0,2
    5a94:	fe5212e3          	bne	tp,t0,5a78 <test_34+0x4>
    5a98:	00100793          	li	a5,1
    5a9c:	02200713          	li	a4,34
    5aa0:	04f19c63          	bne	gp,a5,5af8 <fail>

00005aa4 <test_35>:
    5aa4:	fff00093          	li	ra,-1
    5aa8:	00102133          	sgtz	sp,ra
    5aac:	00000793          	li	a5,0
    5ab0:	02300713          	li	a4,35
    5ab4:	04f11263          	bne	sp,a5,5af8 <fail>

00005ab8 <test_36>:
    5ab8:	fff00093          	li	ra,-1
    5abc:	0000a133          	sltz	sp,ra
    5ac0:	00100793          	li	a5,1
    5ac4:	02400713          	li	a4,36
    5ac8:	02f11863          	bne	sp,a5,5af8 <fail>

00005acc <test_37>:
    5acc:	000020b3          	sltz	ra,zero
    5ad0:	00000793          	li	a5,0
    5ad4:	02500713          	li	a4,37
    5ad8:	02f09063          	bne	ra,a5,5af8 <fail>

00005adc <test_38>:
    5adc:	01000093          	li	ra,16
    5ae0:	01e00113          	li	sp,30
    5ae4:	0020a033          	slt	zero,ra,sp
    5ae8:	00000793          	li	a5,0
    5aec:	02600713          	li	a4,38
    5af0:	00f01463          	bne	zero,a5,5af8 <fail>
    5af4:	00e01663          	bne	zero,a4,5b00 <pass>

00005af8 <fail>:
    5af8:	de1fa0ef          	jal	ra,8d8 <failure>
    5afc:	00100073          	ebreak

00005b00 <pass>:
    5b00:	00009137          	lui	sp,0x9
    5b04:	de1fa0ef          	jal	ra,8e4 <OK>
    5b08:	f21fa06f          	j	a28 <slt_ret>

00005b0c <lbu>:
    5b0c:	00006537          	lui	a0,0x6
    5b10:	b2c50513          	addi	a0,a0,-1236 # 5b2c <.test_name>

00005b14 <loop>:
    5b14:	f48fa0ef          	jal	ra,25c <putstr>

00005b18 <.prname_next>:
    5b18:	00050583          	lb	a1,0(a0)
    5b1c:	00058a63          	beqz	a1,5b30 <.prname_done>
    5b20:	00b62023          	sw	a1,0(a2)
    5b24:	00150513          	addi	a0,a0,1
    5b28:	ff1ff06f          	j	5b18 <.prname_next>

00005b2c <.test_name>:
    5b2c:	626c                	flw	fa1,68(a2)
    5b2e:	0075                	c.nop	29

00005b30 <.prname_done>:
    5b30:	02e00593          	li	a1,46
    5b34:	00b62023          	sw	a1,0(a2)
    5b38:	00b62023          	sw	a1,0(a2)

00005b3c <test_2>:
    5b3c:	00003097          	auipc	ra,0x3
    5b40:	9ac08093          	addi	ra,ra,-1620 # 84e8 <tdat>
    5b44:	0000c183          	lbu	gp,0(ra)
    5b48:	0ff00793          	li	a5,255
    5b4c:	00200713          	li	a4,2
    5b50:	22f19c63          	bne	gp,a5,5d88 <fail>

00005b54 <test_3>:
    5b54:	00003097          	auipc	ra,0x3
    5b58:	99408093          	addi	ra,ra,-1644 # 84e8 <tdat>
    5b5c:	0010c183          	lbu	gp,1(ra)
    5b60:	00000793          	li	a5,0
    5b64:	00300713          	li	a4,3
    5b68:	22f19063          	bne	gp,a5,5d88 <fail>

00005b6c <test_4>:
    5b6c:	00003097          	auipc	ra,0x3
    5b70:	97c08093          	addi	ra,ra,-1668 # 84e8 <tdat>
    5b74:	0020c183          	lbu	gp,2(ra)
    5b78:	0f000793          	li	a5,240
    5b7c:	00400713          	li	a4,4
    5b80:	20f19463          	bne	gp,a5,5d88 <fail>

00005b84 <test_5>:
    5b84:	00003097          	auipc	ra,0x3
    5b88:	96408093          	addi	ra,ra,-1692 # 84e8 <tdat>
    5b8c:	0030c183          	lbu	gp,3(ra)
    5b90:	00f00793          	li	a5,15
    5b94:	00500713          	li	a4,5
    5b98:	1ef19863          	bne	gp,a5,5d88 <fail>

00005b9c <test_6>:
    5b9c:	00003097          	auipc	ra,0x3
    5ba0:	94f08093          	addi	ra,ra,-1713 # 84eb <tdat4>
    5ba4:	ffd0c183          	lbu	gp,-3(ra)
    5ba8:	0ff00793          	li	a5,255
    5bac:	00600713          	li	a4,6
    5bb0:	1cf19c63          	bne	gp,a5,5d88 <fail>

00005bb4 <test_7>:
    5bb4:	00003097          	auipc	ra,0x3
    5bb8:	93708093          	addi	ra,ra,-1737 # 84eb <tdat4>
    5bbc:	ffe0c183          	lbu	gp,-2(ra)
    5bc0:	00000793          	li	a5,0
    5bc4:	00700713          	li	a4,7
    5bc8:	1cf19063          	bne	gp,a5,5d88 <fail>

00005bcc <test_8>:
    5bcc:	00003097          	auipc	ra,0x3
    5bd0:	91f08093          	addi	ra,ra,-1761 # 84eb <tdat4>
    5bd4:	fff0c183          	lbu	gp,-1(ra)
    5bd8:	0f000793          	li	a5,240
    5bdc:	00800713          	li	a4,8
    5be0:	1af19463          	bne	gp,a5,5d88 <fail>

00005be4 <test_9>:
    5be4:	00003097          	auipc	ra,0x3
    5be8:	90708093          	addi	ra,ra,-1785 # 84eb <tdat4>
    5bec:	0000c183          	lbu	gp,0(ra)
    5bf0:	00f00793          	li	a5,15
    5bf4:	00900713          	li	a4,9
    5bf8:	18f19863          	bne	gp,a5,5d88 <fail>

00005bfc <test_10>:
    5bfc:	00003097          	auipc	ra,0x3
    5c00:	8ec08093          	addi	ra,ra,-1812 # 84e8 <tdat>
    5c04:	fe008093          	addi	ra,ra,-32
    5c08:	0200c183          	lbu	gp,32(ra)
    5c0c:	0ff00793          	li	a5,255
    5c10:	00a00713          	li	a4,10
    5c14:	16f19a63          	bne	gp,a5,5d88 <fail>

00005c18 <test_11>:
    5c18:	00003097          	auipc	ra,0x3
    5c1c:	8d008093          	addi	ra,ra,-1840 # 84e8 <tdat>
    5c20:	ffa08093          	addi	ra,ra,-6
    5c24:	0070c183          	lbu	gp,7(ra)
    5c28:	00000793          	li	a5,0
    5c2c:	00b00713          	li	a4,11
    5c30:	14f19c63          	bne	gp,a5,5d88 <fail>

00005c34 <test_12>:
    5c34:	00c00713          	li	a4,12
    5c38:	00000213          	li	tp,0
    5c3c:	00003097          	auipc	ra,0x3
    5c40:	8ad08093          	addi	ra,ra,-1875 # 84e9 <tdat2>
    5c44:	0010c183          	lbu	gp,1(ra)
    5c48:	00018313          	mv	t1,gp
    5c4c:	0f000793          	li	a5,240
    5c50:	12f31c63          	bne	t1,a5,5d88 <fail>
    5c54:	00120213          	addi	tp,tp,1 # 1 <boot+0x1>
    5c58:	00200293          	li	t0,2
    5c5c:	fe5210e3          	bne	tp,t0,5c3c <test_12+0x8>

00005c60 <test_13>:
    5c60:	00d00713          	li	a4,13
    5c64:	00000213          	li	tp,0
    5c68:	00003097          	auipc	ra,0x3
    5c6c:	88208093          	addi	ra,ra,-1918 # 84ea <tdat3>
    5c70:	0010c183          	lbu	gp,1(ra)
    5c74:	00000013          	nop
    5c78:	00018313          	mv	t1,gp
    5c7c:	00f00793          	li	a5,15
    5c80:	10f31463          	bne	t1,a5,5d88 <fail>
    5c84:	00120213          	addi	tp,tp,1 # 1 <boot+0x1>
    5c88:	00200293          	li	t0,2
    5c8c:	fc521ee3          	bne	tp,t0,5c68 <test_13+0x8>

00005c90 <test_14>:
    5c90:	00e00713          	li	a4,14
    5c94:	00000213          	li	tp,0
    5c98:	00003097          	auipc	ra,0x3
    5c9c:	85008093          	addi	ra,ra,-1968 # 84e8 <tdat>
    5ca0:	0010c183          	lbu	gp,1(ra)
    5ca4:	00000013          	nop
    5ca8:	00000013          	nop
    5cac:	00018313          	mv	t1,gp
    5cb0:	00000793          	li	a5,0
    5cb4:	0cf31a63          	bne	t1,a5,5d88 <fail>
    5cb8:	00120213          	addi	tp,tp,1 # 1 <boot+0x1>
    5cbc:	00200293          	li	t0,2
    5cc0:	fc521ce3          	bne	tp,t0,5c98 <test_14+0x8>

00005cc4 <test_15>:
    5cc4:	00f00713          	li	a4,15
    5cc8:	00000213          	li	tp,0
    5ccc:	00003097          	auipc	ra,0x3
    5cd0:	81d08093          	addi	ra,ra,-2019 # 84e9 <tdat2>
    5cd4:	0010c183          	lbu	gp,1(ra)
    5cd8:	0f000793          	li	a5,240
    5cdc:	0af19663          	bne	gp,a5,5d88 <fail>
    5ce0:	00120213          	addi	tp,tp,1 # 1 <boot+0x1>
    5ce4:	00200293          	li	t0,2
    5ce8:	fe5212e3          	bne	tp,t0,5ccc <test_15+0x8>

00005cec <test_16>:
    5cec:	01000713          	li	a4,16
    5cf0:	00000213          	li	tp,0
    5cf4:	00002097          	auipc	ra,0x2
    5cf8:	7f608093          	addi	ra,ra,2038 # 84ea <tdat3>
    5cfc:	00000013          	nop
    5d00:	0010c183          	lbu	gp,1(ra)
    5d04:	00f00793          	li	a5,15
    5d08:	08f19063          	bne	gp,a5,5d88 <fail>
    5d0c:	00120213          	addi	tp,tp,1 # 1 <boot+0x1>
    5d10:	00200293          	li	t0,2
    5d14:	fe5210e3          	bne	tp,t0,5cf4 <test_16+0x8>

00005d18 <test_17>:
    5d18:	01100713          	li	a4,17
    5d1c:	00000213          	li	tp,0
    5d20:	00002097          	auipc	ra,0x2
    5d24:	7c808093          	addi	ra,ra,1992 # 84e8 <tdat>
    5d28:	00000013          	nop
    5d2c:	00000013          	nop
    5d30:	0010c183          	lbu	gp,1(ra)
    5d34:	00000793          	li	a5,0
    5d38:	04f19863          	bne	gp,a5,5d88 <fail>
    5d3c:	00120213          	addi	tp,tp,1 # 1 <boot+0x1>
    5d40:	00200293          	li	t0,2
    5d44:	fc521ee3          	bne	tp,t0,5d20 <test_17+0x8>

00005d48 <test_18>:
    5d48:	00002197          	auipc	gp,0x2
    5d4c:	7a018193          	addi	gp,gp,1952 # 84e8 <tdat>
    5d50:	0001c103          	lbu	sp,0(gp)
    5d54:	00200113          	li	sp,2
    5d58:	00200793          	li	a5,2
    5d5c:	01200713          	li	a4,18
    5d60:	02f11463          	bne	sp,a5,5d88 <fail>

00005d64 <test_19>:
    5d64:	00002197          	auipc	gp,0x2
    5d68:	78418193          	addi	gp,gp,1924 # 84e8 <tdat>
    5d6c:	0001c103          	lbu	sp,0(gp)
    5d70:	00000013          	nop
    5d74:	00200113          	li	sp,2
    5d78:	00200793          	li	a5,2
    5d7c:	01300713          	li	a4,19
    5d80:	00f11463          	bne	sp,a5,5d88 <fail>
    5d84:	00e01663          	bne	zero,a4,5d90 <pass>

00005d88 <fail>:
    5d88:	b51fa0ef          	jal	ra,8d8 <failure>
    5d8c:	00100073          	ebreak

00005d90 <pass>:
    5d90:	00009137          	lui	sp,0x9
    5d94:	b51fa0ef          	jal	ra,8e4 <OK>
    5d98:	c11fa06f          	j	9a8 <lbu_ret>

00005d9c <lhu>:
    5d9c:	00006537          	lui	a0,0x6
    5da0:	dbc50513          	addi	a0,a0,-580 # 5dbc <.test_name>

00005da4 <loop>:
    5da4:	cb8fa0ef          	jal	ra,25c <putstr>

00005da8 <.prname_next>:
    5da8:	00050583          	lb	a1,0(a0)
    5dac:	00058a63          	beqz	a1,5dc0 <.prname_done>
    5db0:	00b62023          	sw	a1,0(a2)
    5db4:	00150513          	addi	a0,a0,1
    5db8:	ff1ff06f          	j	5da8 <.prname_next>

00005dbc <.test_name>:
    5dbc:	686c                	flw	fa1,84(s0)
    5dbe:	0075                	c.nop	29

00005dc0 <.prname_done>:
    5dc0:	02e00593          	li	a1,46
    5dc4:	00b62023          	sw	a1,0(a2)
    5dc8:	00b62023          	sw	a1,0(a2)

00005dcc <test_2>:
    5dcc:	00002097          	auipc	ra,0x2
    5dd0:	72008093          	addi	ra,ra,1824 # 84ec <tdat>
    5dd4:	0000d183          	lhu	gp,0(ra)
    5dd8:	0ff00793          	li	a5,255
    5ddc:	00200713          	li	a4,2
    5de0:	26f19663          	bne	gp,a5,604c <fail>

00005de4 <test_3>:
    5de4:	00002097          	auipc	ra,0x2
    5de8:	70808093          	addi	ra,ra,1800 # 84ec <tdat>
    5dec:	0020d183          	lhu	gp,2(ra)
    5df0:	000107b7          	lui	a5,0x10
    5df4:	f0078793          	addi	a5,a5,-256 # ff00 <tdat10+0x7a03>
    5df8:	00300713          	li	a4,3
    5dfc:	24f19863          	bne	gp,a5,604c <fail>

00005e00 <test_4>:
    5e00:	00002097          	auipc	ra,0x2
    5e04:	6ec08093          	addi	ra,ra,1772 # 84ec <tdat>
    5e08:	0040d183          	lhu	gp,4(ra)
    5e0c:	000017b7          	lui	a5,0x1
    5e10:	ff078793          	addi	a5,a5,-16 # ff0 <test_4+0x4>
    5e14:	00400713          	li	a4,4
    5e18:	22f19a63          	bne	gp,a5,604c <fail>

00005e1c <test_5>:
    5e1c:	00002097          	auipc	ra,0x2
    5e20:	6d008093          	addi	ra,ra,1744 # 84ec <tdat>
    5e24:	0060d183          	lhu	gp,6(ra)
    5e28:	0000f7b7          	lui	a5,0xf
    5e2c:	00f78793          	addi	a5,a5,15 # f00f <tdat10+0x6b12>
    5e30:	00500713          	li	a4,5
    5e34:	20f19c63          	bne	gp,a5,604c <fail>

00005e38 <test_6>:
    5e38:	00002097          	auipc	ra,0x2
    5e3c:	6ba08093          	addi	ra,ra,1722 # 84f2 <tdat4>
    5e40:	ffa0d183          	lhu	gp,-6(ra)
    5e44:	0ff00793          	li	a5,255
    5e48:	00600713          	li	a4,6
    5e4c:	20f19063          	bne	gp,a5,604c <fail>

00005e50 <test_7>:
    5e50:	00002097          	auipc	ra,0x2
    5e54:	6a208093          	addi	ra,ra,1698 # 84f2 <tdat4>
    5e58:	ffc0d183          	lhu	gp,-4(ra)
    5e5c:	000107b7          	lui	a5,0x10
    5e60:	f0078793          	addi	a5,a5,-256 # ff00 <tdat10+0x7a03>
    5e64:	00700713          	li	a4,7
    5e68:	1ef19263          	bne	gp,a5,604c <fail>

00005e6c <test_8>:
    5e6c:	00002097          	auipc	ra,0x2
    5e70:	68608093          	addi	ra,ra,1670 # 84f2 <tdat4>
    5e74:	ffe0d183          	lhu	gp,-2(ra)
    5e78:	000017b7          	lui	a5,0x1
    5e7c:	ff078793          	addi	a5,a5,-16 # ff0 <test_4+0x4>
    5e80:	00800713          	li	a4,8
    5e84:	1cf19463          	bne	gp,a5,604c <fail>

00005e88 <test_9>:
    5e88:	00002097          	auipc	ra,0x2
    5e8c:	66a08093          	addi	ra,ra,1642 # 84f2 <tdat4>
    5e90:	0000d183          	lhu	gp,0(ra)
    5e94:	0000f7b7          	lui	a5,0xf
    5e98:	00f78793          	addi	a5,a5,15 # f00f <tdat10+0x6b12>
    5e9c:	00900713          	li	a4,9
    5ea0:	1af19663          	bne	gp,a5,604c <fail>

00005ea4 <test_10>:
    5ea4:	00002097          	auipc	ra,0x2
    5ea8:	64808093          	addi	ra,ra,1608 # 84ec <tdat>
    5eac:	fe008093          	addi	ra,ra,-32
    5eb0:	0200d183          	lhu	gp,32(ra)
    5eb4:	0ff00793          	li	a5,255
    5eb8:	00a00713          	li	a4,10
    5ebc:	18f19863          	bne	gp,a5,604c <fail>

00005ec0 <test_11>:
    5ec0:	00002097          	auipc	ra,0x2
    5ec4:	62c08093          	addi	ra,ra,1580 # 84ec <tdat>
    5ec8:	ffb08093          	addi	ra,ra,-5
    5ecc:	0070d183          	lhu	gp,7(ra)
    5ed0:	000107b7          	lui	a5,0x10
    5ed4:	f0078793          	addi	a5,a5,-256 # ff00 <tdat10+0x7a03>
    5ed8:	00b00713          	li	a4,11
    5edc:	16f19863          	bne	gp,a5,604c <fail>

00005ee0 <test_12>:
    5ee0:	00c00713          	li	a4,12
    5ee4:	00000213          	li	tp,0
    5ee8:	00002097          	auipc	ra,0x2
    5eec:	60608093          	addi	ra,ra,1542 # 84ee <tdat2>
    5ef0:	0020d183          	lhu	gp,2(ra)
    5ef4:	00018313          	mv	t1,gp
    5ef8:	000017b7          	lui	a5,0x1
    5efc:	ff078793          	addi	a5,a5,-16 # ff0 <test_4+0x4>
    5f00:	14f31663          	bne	t1,a5,604c <fail>
    5f04:	00120213          	addi	tp,tp,1 # 1 <boot+0x1>
    5f08:	00200293          	li	t0,2
    5f0c:	fc521ee3          	bne	tp,t0,5ee8 <test_12+0x8>

00005f10 <test_13>:
    5f10:	00d00713          	li	a4,13
    5f14:	00000213          	li	tp,0
    5f18:	00002097          	auipc	ra,0x2
    5f1c:	5d808093          	addi	ra,ra,1496 # 84f0 <tdat3>
    5f20:	0020d183          	lhu	gp,2(ra)
    5f24:	00000013          	nop
    5f28:	00018313          	mv	t1,gp
    5f2c:	0000f7b7          	lui	a5,0xf
    5f30:	00f78793          	addi	a5,a5,15 # f00f <tdat10+0x6b12>
    5f34:	10f31c63          	bne	t1,a5,604c <fail>
    5f38:	00120213          	addi	tp,tp,1 # 1 <boot+0x1>
    5f3c:	00200293          	li	t0,2
    5f40:	fc521ce3          	bne	tp,t0,5f18 <test_13+0x8>

00005f44 <test_14>:
    5f44:	00e00713          	li	a4,14
    5f48:	00000213          	li	tp,0
    5f4c:	00002097          	auipc	ra,0x2
    5f50:	5a008093          	addi	ra,ra,1440 # 84ec <tdat>
    5f54:	0020d183          	lhu	gp,2(ra)
    5f58:	00000013          	nop
    5f5c:	00000013          	nop
    5f60:	00018313          	mv	t1,gp
    5f64:	000107b7          	lui	a5,0x10
    5f68:	f0078793          	addi	a5,a5,-256 # ff00 <tdat10+0x7a03>
    5f6c:	0ef31063          	bne	t1,a5,604c <fail>
    5f70:	00120213          	addi	tp,tp,1 # 1 <boot+0x1>
    5f74:	00200293          	li	t0,2
    5f78:	fc521ae3          	bne	tp,t0,5f4c <test_14+0x8>

00005f7c <test_15>:
    5f7c:	00f00713          	li	a4,15
    5f80:	00000213          	li	tp,0
    5f84:	00002097          	auipc	ra,0x2
    5f88:	56a08093          	addi	ra,ra,1386 # 84ee <tdat2>
    5f8c:	0020d183          	lhu	gp,2(ra)
    5f90:	000017b7          	lui	a5,0x1
    5f94:	ff078793          	addi	a5,a5,-16 # ff0 <test_4+0x4>
    5f98:	0af19a63          	bne	gp,a5,604c <fail>
    5f9c:	00120213          	addi	tp,tp,1 # 1 <boot+0x1>
    5fa0:	00200293          	li	t0,2
    5fa4:	fe5210e3          	bne	tp,t0,5f84 <test_15+0x8>

00005fa8 <test_16>:
    5fa8:	01000713          	li	a4,16
    5fac:	00000213          	li	tp,0
    5fb0:	00002097          	auipc	ra,0x2
    5fb4:	54008093          	addi	ra,ra,1344 # 84f0 <tdat3>
    5fb8:	00000013          	nop
    5fbc:	0020d183          	lhu	gp,2(ra)
    5fc0:	0000f7b7          	lui	a5,0xf
    5fc4:	00f78793          	addi	a5,a5,15 # f00f <tdat10+0x6b12>
    5fc8:	08f19263          	bne	gp,a5,604c <fail>
    5fcc:	00120213          	addi	tp,tp,1 # 1 <boot+0x1>
    5fd0:	00200293          	li	t0,2
    5fd4:	fc521ee3          	bne	tp,t0,5fb0 <test_16+0x8>

00005fd8 <test_17>:
    5fd8:	01100713          	li	a4,17
    5fdc:	00000213          	li	tp,0
    5fe0:	00002097          	auipc	ra,0x2
    5fe4:	50c08093          	addi	ra,ra,1292 # 84ec <tdat>
    5fe8:	00000013          	nop
    5fec:	00000013          	nop
    5ff0:	0020d183          	lhu	gp,2(ra)
    5ff4:	000107b7          	lui	a5,0x10
    5ff8:	f0078793          	addi	a5,a5,-256 # ff00 <tdat10+0x7a03>
    5ffc:	04f19863          	bne	gp,a5,604c <fail>
    6000:	00120213          	addi	tp,tp,1 # 1 <boot+0x1>
    6004:	00200293          	li	t0,2
    6008:	fc521ce3          	bne	tp,t0,5fe0 <test_17+0x8>

0000600c <test_18>:
    600c:	00002197          	auipc	gp,0x2
    6010:	4e018193          	addi	gp,gp,1248 # 84ec <tdat>
    6014:	0001d103          	lhu	sp,0(gp)
    6018:	00200113          	li	sp,2
    601c:	00200793          	li	a5,2
    6020:	01200713          	li	a4,18
    6024:	02f11463          	bne	sp,a5,604c <fail>

00006028 <test_19>:
    6028:	00002197          	auipc	gp,0x2
    602c:	4c418193          	addi	gp,gp,1220 # 84ec <tdat>
    6030:	0001d103          	lhu	sp,0(gp)
    6034:	00000013          	nop
    6038:	00200113          	li	sp,2
    603c:	00200793          	li	a5,2
    6040:	01300713          	li	a4,19
    6044:	00f11463          	bne	sp,a5,604c <fail>
    6048:	00e01663          	bne	zero,a4,6054 <pass>

0000604c <fail>:
    604c:	88dfa0ef          	jal	ra,8d8 <failure>
    6050:	00100073          	ebreak

00006054 <pass>:
    6054:	00009137          	lui	sp,0x9
    6058:	88dfa0ef          	jal	ra,8e4 <OK>
    605c:	955fa06f          	j	9b0 <lhu_ret>

00006060 <lui>:
    6060:	00006537          	lui	a0,0x6
    6064:	08050513          	addi	a0,a0,128 # 6080 <.test_name>

00006068 <loop>:
    6068:	9f4fa0ef          	jal	ra,25c <putstr>

0000606c <.prname_next>:
    606c:	00050583          	lb	a1,0(a0)
    6070:	00058a63          	beqz	a1,6084 <.prname_done>
    6074:	00b62023          	sw	a1,0(a2)
    6078:	00150513          	addi	a0,a0,1
    607c:	ff1ff06f          	j	606c <.prname_next>

00006080 <.test_name>:
    6080:	756c                	flw	fa1,108(a0)
    6082:	0069                	c.nop	26

00006084 <.prname_done>:
    6084:	02e00593          	li	a1,46
    6088:	00b62023          	sw	a1,0(a2)
    608c:	00b62023          	sw	a1,0(a2)

00006090 <test_2>:
    6090:	000000b7          	lui	ra,0x0
    6094:	00000793          	li	a5,0
    6098:	00200713          	li	a4,2
    609c:	04f09a63          	bne	ra,a5,60f0 <fail>

000060a0 <test_3>:
    60a0:	fffff0b7          	lui	ra,0xfffff
    60a4:	4010d093          	srai	ra,ra,0x1
    60a8:	80000793          	li	a5,-2048
    60ac:	00300713          	li	a4,3
    60b0:	04f09063          	bne	ra,a5,60f0 <fail>

000060b4 <test_4>:
    60b4:	7ffff0b7          	lui	ra,0x7ffff
    60b8:	4140d093          	srai	ra,ra,0x14
    60bc:	7ff00793          	li	a5,2047
    60c0:	00400713          	li	a4,4
    60c4:	02f09663          	bne	ra,a5,60f0 <fail>

000060c8 <test_5>:
    60c8:	800000b7          	lui	ra,0x80000
    60cc:	4140d093          	srai	ra,ra,0x14
    60d0:	80000793          	li	a5,-2048
    60d4:	00500713          	li	a4,5
    60d8:	00f09c63          	bne	ra,a5,60f0 <fail>

000060dc <test_6>:
    60dc:	80000037          	lui	zero,0x80000
    60e0:	00000793          	li	a5,0
    60e4:	00600713          	li	a4,6
    60e8:	00f01463          	bne	zero,a5,60f0 <fail>
    60ec:	00e01663          	bne	zero,a4,60f8 <pass>

000060f0 <fail>:
    60f0:	fe8fa0ef          	jal	ra,8d8 <failure>
    60f4:	00100073          	ebreak

000060f8 <pass>:
    60f8:	00009137          	lui	sp,0x9
    60fc:	fe8fa0ef          	jal	ra,8e4 <OK>
    6100:	839fa06f          	j	938 <lui_ret>

00006104 <simple>:
    6104:	00006537          	lui	a0,0x6
    6108:	12450513          	addi	a0,a0,292 # 6124 <.test_name>

0000610c <loop>:
    610c:	950fa0ef          	jal	ra,25c <putstr>

00006110 <.prname_next>:
    6110:	00050583          	lb	a1,0(a0)
    6114:	00058c63          	beqz	a1,612c <.prname_done>
    6118:	00b62023          	sw	a1,0(a2)
    611c:	00150513          	addi	a0,a0,1
    6120:	ff1ff06f          	j	6110 <.prname_next>

00006124 <.test_name>:
    6124:	706d6973          	csrrsi	s2,0x706,26
    6128:	656c                	flw	fa1,76(a0)
	...

0000612c <.prname_done>:
    612c:	02e00593          	li	a1,46
    6130:	00b62023          	sw	a1,0(a2)
    6134:	00b62023          	sw	a1,0(a2)
    6138:	00009137          	lui	sp,0x9
    613c:	fa8fa0ef          	jal	ra,8e4 <OK>
    6140:	919fa06f          	j	a58 <simple_ret>

00006144 <sra>:
    6144:	00006537          	lui	a0,0x6
    6148:	16450513          	addi	a0,a0,356 # 6164 <.test_name>

0000614c <loop>:
    614c:	910fa0ef          	jal	ra,25c <putstr>

00006150 <.prname_next>:
    6150:	00050583          	lb	a1,0(a0)
    6154:	00058a63          	beqz	a1,6168 <.prname_done>
    6158:	00b62023          	sw	a1,0(a2)
    615c:	00150513          	addi	a0,a0,1
    6160:	ff1ff06f          	j	6150 <.prname_next>

00006164 <.test_name>:
    6164:	00617273          	csrrci	tp,0x6,2

00006168 <.prname_done>:
    6168:	02e00593          	li	a1,46
    616c:	00b62023          	sw	a1,0(a2)
    6170:	00b62023          	sw	a1,0(a2)

00006174 <test_2>:
    6174:	800000b7          	lui	ra,0x80000
    6178:	00000113          	li	sp,0
    617c:	4020d1b3          	sra	gp,ra,sp
    6180:	800007b7          	lui	a5,0x80000
    6184:	00200713          	li	a4,2
    6188:	58f19463          	bne	gp,a5,6710 <fail>

0000618c <test_3>:
    618c:	800000b7          	lui	ra,0x80000
    6190:	00100113          	li	sp,1
    6194:	4020d1b3          	sra	gp,ra,sp
    6198:	c00007b7          	lui	a5,0xc0000
    619c:	00300713          	li	a4,3
    61a0:	56f19863          	bne	gp,a5,6710 <fail>

000061a4 <test_4>:
    61a4:	800000b7          	lui	ra,0x80000
    61a8:	00700113          	li	sp,7
    61ac:	4020d1b3          	sra	gp,ra,sp
    61b0:	ff0007b7          	lui	a5,0xff000
    61b4:	00400713          	li	a4,4
    61b8:	54f19c63          	bne	gp,a5,6710 <fail>

000061bc <test_5>:
    61bc:	800000b7          	lui	ra,0x80000
    61c0:	00e00113          	li	sp,14
    61c4:	4020d1b3          	sra	gp,ra,sp
    61c8:	fffe07b7          	lui	a5,0xfffe0
    61cc:	00500713          	li	a4,5
    61d0:	54f19063          	bne	gp,a5,6710 <fail>

000061d4 <test_6>:
    61d4:	800000b7          	lui	ra,0x80000
    61d8:	00108093          	addi	ra,ra,1 # 80000001 <io+0x1>
    61dc:	01f00113          	li	sp,31
    61e0:	4020d1b3          	sra	gp,ra,sp
    61e4:	fff00793          	li	a5,-1
    61e8:	00600713          	li	a4,6
    61ec:	52f19263          	bne	gp,a5,6710 <fail>

000061f0 <test_7>:
    61f0:	800000b7          	lui	ra,0x80000
    61f4:	fff08093          	addi	ra,ra,-1 # 7fffffff <io+0xffffffff>
    61f8:	00000113          	li	sp,0
    61fc:	4020d1b3          	sra	gp,ra,sp
    6200:	800007b7          	lui	a5,0x80000
    6204:	fff78793          	addi	a5,a5,-1 # 7fffffff <io+0xffffffff>
    6208:	00700713          	li	a4,7
    620c:	50f19263          	bne	gp,a5,6710 <fail>

00006210 <test_8>:
    6210:	800000b7          	lui	ra,0x80000
    6214:	fff08093          	addi	ra,ra,-1 # 7fffffff <io+0xffffffff>
    6218:	00100113          	li	sp,1
    621c:	4020d1b3          	sra	gp,ra,sp
    6220:	400007b7          	lui	a5,0x40000
    6224:	fff78793          	addi	a5,a5,-1 # 3fffffff <tdat10+0x3fff7b02>
    6228:	00800713          	li	a4,8
    622c:	4ef19263          	bne	gp,a5,6710 <fail>

00006230 <test_9>:
    6230:	800000b7          	lui	ra,0x80000
    6234:	fff08093          	addi	ra,ra,-1 # 7fffffff <io+0xffffffff>
    6238:	00700113          	li	sp,7
    623c:	4020d1b3          	sra	gp,ra,sp
    6240:	010007b7          	lui	a5,0x1000
    6244:	fff78793          	addi	a5,a5,-1 # ffffff <tdat10+0xff7b02>
    6248:	00900713          	li	a4,9
    624c:	4cf19263          	bne	gp,a5,6710 <fail>

00006250 <test_10>:
    6250:	800000b7          	lui	ra,0x80000
    6254:	fff08093          	addi	ra,ra,-1 # 7fffffff <io+0xffffffff>
    6258:	00e00113          	li	sp,14
    625c:	4020d1b3          	sra	gp,ra,sp
    6260:	000207b7          	lui	a5,0x20
    6264:	fff78793          	addi	a5,a5,-1 # 1ffff <tdat10+0x17b02>
    6268:	00a00713          	li	a4,10
    626c:	4af19263          	bne	gp,a5,6710 <fail>

00006270 <test_11>:
    6270:	800000b7          	lui	ra,0x80000
    6274:	fff08093          	addi	ra,ra,-1 # 7fffffff <io+0xffffffff>
    6278:	01f00113          	li	sp,31
    627c:	4020d1b3          	sra	gp,ra,sp
    6280:	00000793          	li	a5,0
    6284:	00b00713          	li	a4,11
    6288:	48f19463          	bne	gp,a5,6710 <fail>

0000628c <test_12>:
    628c:	818180b7          	lui	ra,0x81818
    6290:	18108093          	addi	ra,ra,385 # 81818181 <io+0x1818181>
    6294:	00000113          	li	sp,0
    6298:	4020d1b3          	sra	gp,ra,sp
    629c:	818187b7          	lui	a5,0x81818
    62a0:	18178793          	addi	a5,a5,385 # 81818181 <io+0x1818181>
    62a4:	00c00713          	li	a4,12
    62a8:	46f19463          	bne	gp,a5,6710 <fail>

000062ac <test_13>:
    62ac:	818180b7          	lui	ra,0x81818
    62b0:	18108093          	addi	ra,ra,385 # 81818181 <io+0x1818181>
    62b4:	00100113          	li	sp,1
    62b8:	4020d1b3          	sra	gp,ra,sp
    62bc:	c0c0c7b7          	lui	a5,0xc0c0c
    62c0:	0c078793          	addi	a5,a5,192 # c0c0c0c0 <io+0x40c0c0c0>
    62c4:	00d00713          	li	a4,13
    62c8:	44f19463          	bne	gp,a5,6710 <fail>

000062cc <test_14>:
    62cc:	818180b7          	lui	ra,0x81818
    62d0:	18108093          	addi	ra,ra,385 # 81818181 <io+0x1818181>
    62d4:	00700113          	li	sp,7
    62d8:	4020d1b3          	sra	gp,ra,sp
    62dc:	ff0307b7          	lui	a5,0xff030
    62e0:	30378793          	addi	a5,a5,771 # ff030303 <io+0x7f030303>
    62e4:	00e00713          	li	a4,14
    62e8:	42f19463          	bne	gp,a5,6710 <fail>

000062ec <test_15>:
    62ec:	818180b7          	lui	ra,0x81818
    62f0:	18108093          	addi	ra,ra,385 # 81818181 <io+0x1818181>
    62f4:	00e00113          	li	sp,14
    62f8:	4020d1b3          	sra	gp,ra,sp
    62fc:	fffe07b7          	lui	a5,0xfffe0
    6300:	60678793          	addi	a5,a5,1542 # fffe0606 <io+0x7ffe0606>
    6304:	00f00713          	li	a4,15
    6308:	40f19463          	bne	gp,a5,6710 <fail>

0000630c <test_16>:
    630c:	818180b7          	lui	ra,0x81818
    6310:	18108093          	addi	ra,ra,385 # 81818181 <io+0x1818181>
    6314:	01f00113          	li	sp,31
    6318:	4020d1b3          	sra	gp,ra,sp
    631c:	fff00793          	li	a5,-1
    6320:	01000713          	li	a4,16
    6324:	3ef19663          	bne	gp,a5,6710 <fail>

00006328 <test_17>:
    6328:	818180b7          	lui	ra,0x81818
    632c:	18108093          	addi	ra,ra,385 # 81818181 <io+0x1818181>
    6330:	fc000113          	li	sp,-64
    6334:	4020d1b3          	sra	gp,ra,sp
    6338:	818187b7          	lui	a5,0x81818
    633c:	18178793          	addi	a5,a5,385 # 81818181 <io+0x1818181>
    6340:	01100713          	li	a4,17
    6344:	3cf19663          	bne	gp,a5,6710 <fail>

00006348 <test_18>:
    6348:	818180b7          	lui	ra,0x81818
    634c:	18108093          	addi	ra,ra,385 # 81818181 <io+0x1818181>
    6350:	fc100113          	li	sp,-63
    6354:	4020d1b3          	sra	gp,ra,sp
    6358:	c0c0c7b7          	lui	a5,0xc0c0c
    635c:	0c078793          	addi	a5,a5,192 # c0c0c0c0 <io+0x40c0c0c0>
    6360:	01200713          	li	a4,18
    6364:	3af19663          	bne	gp,a5,6710 <fail>

00006368 <test_19>:
    6368:	818180b7          	lui	ra,0x81818
    636c:	18108093          	addi	ra,ra,385 # 81818181 <io+0x1818181>
    6370:	fc700113          	li	sp,-57
    6374:	4020d1b3          	sra	gp,ra,sp
    6378:	ff0307b7          	lui	a5,0xff030
    637c:	30378793          	addi	a5,a5,771 # ff030303 <io+0x7f030303>
    6380:	01300713          	li	a4,19
    6384:	38f19663          	bne	gp,a5,6710 <fail>

00006388 <test_20>:
    6388:	818180b7          	lui	ra,0x81818
    638c:	18108093          	addi	ra,ra,385 # 81818181 <io+0x1818181>
    6390:	fce00113          	li	sp,-50
    6394:	4020d1b3          	sra	gp,ra,sp
    6398:	fffe07b7          	lui	a5,0xfffe0
    639c:	60678793          	addi	a5,a5,1542 # fffe0606 <io+0x7ffe0606>
    63a0:	01400713          	li	a4,20
    63a4:	36f19663          	bne	gp,a5,6710 <fail>

000063a8 <test_21>:
    63a8:	818180b7          	lui	ra,0x81818
    63ac:	18108093          	addi	ra,ra,385 # 81818181 <io+0x1818181>
    63b0:	fff00113          	li	sp,-1
    63b4:	4020d1b3          	sra	gp,ra,sp
    63b8:	fff00793          	li	a5,-1
    63bc:	01500713          	li	a4,21
    63c0:	34f19863          	bne	gp,a5,6710 <fail>

000063c4 <test_22>:
    63c4:	800000b7          	lui	ra,0x80000
    63c8:	00700113          	li	sp,7
    63cc:	4020d0b3          	sra	ra,ra,sp
    63d0:	ff0007b7          	lui	a5,0xff000
    63d4:	01600713          	li	a4,22
    63d8:	32f09c63          	bne	ra,a5,6710 <fail>

000063dc <test_23>:
    63dc:	800000b7          	lui	ra,0x80000
    63e0:	00e00113          	li	sp,14
    63e4:	4020d133          	sra	sp,ra,sp
    63e8:	fffe07b7          	lui	a5,0xfffe0
    63ec:	01700713          	li	a4,23
    63f0:	32f11063          	bne	sp,a5,6710 <fail>

000063f4 <test_24>:
    63f4:	00700093          	li	ra,7
    63f8:	4010d0b3          	sra	ra,ra,ra
    63fc:	00000793          	li	a5,0
    6400:	01800713          	li	a4,24
    6404:	30f09663          	bne	ra,a5,6710 <fail>

00006408 <test_25>:
    6408:	00000213          	li	tp,0
    640c:	800000b7          	lui	ra,0x80000
    6410:	00700113          	li	sp,7
    6414:	4020d1b3          	sra	gp,ra,sp
    6418:	00018313          	mv	t1,gp
    641c:	00120213          	addi	tp,tp,1 # 1 <boot+0x1>
    6420:	00200293          	li	t0,2
    6424:	fe5214e3          	bne	tp,t0,640c <test_25+0x4>
    6428:	ff0007b7          	lui	a5,0xff000
    642c:	01900713          	li	a4,25
    6430:	2ef31063          	bne	t1,a5,6710 <fail>

00006434 <test_26>:
    6434:	00000213          	li	tp,0
    6438:	800000b7          	lui	ra,0x80000
    643c:	00e00113          	li	sp,14
    6440:	4020d1b3          	sra	gp,ra,sp
    6444:	00000013          	nop
    6448:	00018313          	mv	t1,gp
    644c:	00120213          	addi	tp,tp,1 # 1 <boot+0x1>
    6450:	00200293          	li	t0,2
    6454:	fe5212e3          	bne	tp,t0,6438 <test_26+0x4>
    6458:	fffe07b7          	lui	a5,0xfffe0
    645c:	01a00713          	li	a4,26
    6460:	2af31863          	bne	t1,a5,6710 <fail>

00006464 <test_27>:
    6464:	00000213          	li	tp,0
    6468:	800000b7          	lui	ra,0x80000
    646c:	01f00113          	li	sp,31
    6470:	4020d1b3          	sra	gp,ra,sp
    6474:	00000013          	nop
    6478:	00000013          	nop
    647c:	00018313          	mv	t1,gp
    6480:	00120213          	addi	tp,tp,1 # 1 <boot+0x1>
    6484:	00200293          	li	t0,2
    6488:	fe5210e3          	bne	tp,t0,6468 <test_27+0x4>
    648c:	fff00793          	li	a5,-1
    6490:	01b00713          	li	a4,27
    6494:	26f31e63          	bne	t1,a5,6710 <fail>

00006498 <test_28>:
    6498:	00000213          	li	tp,0
    649c:	800000b7          	lui	ra,0x80000
    64a0:	00700113          	li	sp,7
    64a4:	4020d1b3          	sra	gp,ra,sp
    64a8:	00120213          	addi	tp,tp,1 # 1 <boot+0x1>
    64ac:	00200293          	li	t0,2
    64b0:	fe5216e3          	bne	tp,t0,649c <test_28+0x4>
    64b4:	ff0007b7          	lui	a5,0xff000
    64b8:	01c00713          	li	a4,28
    64bc:	24f19a63          	bne	gp,a5,6710 <fail>

000064c0 <test_29>:
    64c0:	00000213          	li	tp,0
    64c4:	800000b7          	lui	ra,0x80000
    64c8:	00e00113          	li	sp,14
    64cc:	00000013          	nop
    64d0:	4020d1b3          	sra	gp,ra,sp
    64d4:	00120213          	addi	tp,tp,1 # 1 <boot+0x1>
    64d8:	00200293          	li	t0,2
    64dc:	fe5214e3          	bne	tp,t0,64c4 <test_29+0x4>
    64e0:	fffe07b7          	lui	a5,0xfffe0
    64e4:	01d00713          	li	a4,29
    64e8:	22f19463          	bne	gp,a5,6710 <fail>

000064ec <test_30>:
    64ec:	00000213          	li	tp,0
    64f0:	800000b7          	lui	ra,0x80000
    64f4:	01f00113          	li	sp,31
    64f8:	00000013          	nop
    64fc:	00000013          	nop
    6500:	4020d1b3          	sra	gp,ra,sp
    6504:	00120213          	addi	tp,tp,1 # 1 <boot+0x1>
    6508:	00200293          	li	t0,2
    650c:	fe5212e3          	bne	tp,t0,64f0 <test_30+0x4>
    6510:	fff00793          	li	a5,-1
    6514:	01e00713          	li	a4,30
    6518:	1ef19c63          	bne	gp,a5,6710 <fail>

0000651c <test_31>:
    651c:	00000213          	li	tp,0
    6520:	800000b7          	lui	ra,0x80000
    6524:	00000013          	nop
    6528:	00700113          	li	sp,7
    652c:	4020d1b3          	sra	gp,ra,sp
    6530:	00120213          	addi	tp,tp,1 # 1 <boot+0x1>
    6534:	00200293          	li	t0,2
    6538:	fe5214e3          	bne	tp,t0,6520 <test_31+0x4>
    653c:	ff0007b7          	lui	a5,0xff000
    6540:	01f00713          	li	a4,31
    6544:	1cf19663          	bne	gp,a5,6710 <fail>

00006548 <test_32>:
    6548:	00000213          	li	tp,0
    654c:	800000b7          	lui	ra,0x80000
    6550:	00000013          	nop
    6554:	00e00113          	li	sp,14
    6558:	00000013          	nop
    655c:	4020d1b3          	sra	gp,ra,sp
    6560:	00120213          	addi	tp,tp,1 # 1 <boot+0x1>
    6564:	00200293          	li	t0,2
    6568:	fe5212e3          	bne	tp,t0,654c <test_32+0x4>
    656c:	fffe07b7          	lui	a5,0xfffe0
    6570:	02000713          	li	a4,32
    6574:	18f19e63          	bne	gp,a5,6710 <fail>

00006578 <test_33>:
    6578:	00000213          	li	tp,0
    657c:	800000b7          	lui	ra,0x80000
    6580:	00000013          	nop
    6584:	00000013          	nop
    6588:	01f00113          	li	sp,31
    658c:	4020d1b3          	sra	gp,ra,sp
    6590:	00120213          	addi	tp,tp,1 # 1 <boot+0x1>
    6594:	00200293          	li	t0,2
    6598:	fe5212e3          	bne	tp,t0,657c <test_33+0x4>
    659c:	fff00793          	li	a5,-1
    65a0:	02100713          	li	a4,33
    65a4:	16f19663          	bne	gp,a5,6710 <fail>

000065a8 <test_34>:
    65a8:	00000213          	li	tp,0
    65ac:	00700113          	li	sp,7
    65b0:	800000b7          	lui	ra,0x80000
    65b4:	4020d1b3          	sra	gp,ra,sp
    65b8:	00120213          	addi	tp,tp,1 # 1 <boot+0x1>
    65bc:	00200293          	li	t0,2
    65c0:	fe5216e3          	bne	tp,t0,65ac <test_34+0x4>
    65c4:	ff0007b7          	lui	a5,0xff000
    65c8:	02200713          	li	a4,34
    65cc:	14f19263          	bne	gp,a5,6710 <fail>

000065d0 <test_35>:
    65d0:	00000213          	li	tp,0
    65d4:	00e00113          	li	sp,14
    65d8:	800000b7          	lui	ra,0x80000
    65dc:	00000013          	nop
    65e0:	4020d1b3          	sra	gp,ra,sp
    65e4:	00120213          	addi	tp,tp,1 # 1 <boot+0x1>
    65e8:	00200293          	li	t0,2
    65ec:	fe5214e3          	bne	tp,t0,65d4 <test_35+0x4>
    65f0:	fffe07b7          	lui	a5,0xfffe0
    65f4:	02300713          	li	a4,35
    65f8:	10f19c63          	bne	gp,a5,6710 <fail>

000065fc <test_36>:
    65fc:	00000213          	li	tp,0
    6600:	01f00113          	li	sp,31
    6604:	800000b7          	lui	ra,0x80000
    6608:	00000013          	nop
    660c:	00000013          	nop
    6610:	4020d1b3          	sra	gp,ra,sp
    6614:	00120213          	addi	tp,tp,1 # 1 <boot+0x1>
    6618:	00200293          	li	t0,2
    661c:	fe5212e3          	bne	tp,t0,6600 <test_36+0x4>
    6620:	fff00793          	li	a5,-1
    6624:	02400713          	li	a4,36
    6628:	0ef19463          	bne	gp,a5,6710 <fail>

0000662c <test_37>:
    662c:	00000213          	li	tp,0
    6630:	00700113          	li	sp,7
    6634:	00000013          	nop
    6638:	800000b7          	lui	ra,0x80000
    663c:	4020d1b3          	sra	gp,ra,sp
    6640:	00120213          	addi	tp,tp,1 # 1 <boot+0x1>
    6644:	00200293          	li	t0,2
    6648:	fe5214e3          	bne	tp,t0,6630 <test_37+0x4>
    664c:	ff0007b7          	lui	a5,0xff000
    6650:	02500713          	li	a4,37
    6654:	0af19e63          	bne	gp,a5,6710 <fail>

00006658 <test_38>:
    6658:	00000213          	li	tp,0
    665c:	00e00113          	li	sp,14
    6660:	00000013          	nop
    6664:	800000b7          	lui	ra,0x80000
    6668:	00000013          	nop
    666c:	4020d1b3          	sra	gp,ra,sp
    6670:	00120213          	addi	tp,tp,1 # 1 <boot+0x1>
    6674:	00200293          	li	t0,2
    6678:	fe5212e3          	bne	tp,t0,665c <test_38+0x4>
    667c:	fffe07b7          	lui	a5,0xfffe0
    6680:	02600713          	li	a4,38
    6684:	08f19663          	bne	gp,a5,6710 <fail>

00006688 <test_39>:
    6688:	00000213          	li	tp,0
    668c:	01f00113          	li	sp,31
    6690:	00000013          	nop
    6694:	00000013          	nop
    6698:	800000b7          	lui	ra,0x80000
    669c:	4020d1b3          	sra	gp,ra,sp
    66a0:	00120213          	addi	tp,tp,1 # 1 <boot+0x1>
    66a4:	00200293          	li	t0,2
    66a8:	fe5212e3          	bne	tp,t0,668c <test_39+0x4>
    66ac:	fff00793          	li	a5,-1
    66b0:	02700713          	li	a4,39
    66b4:	04f19e63          	bne	gp,a5,6710 <fail>

000066b8 <test_40>:
    66b8:	00f00093          	li	ra,15
    66bc:	40105133          	sra	sp,zero,ra
    66c0:	00000793          	li	a5,0
    66c4:	02800713          	li	a4,40
    66c8:	04f11463          	bne	sp,a5,6710 <fail>

000066cc <test_41>:
    66cc:	02000093          	li	ra,32
    66d0:	4000d133          	sra	sp,ra,zero
    66d4:	02000793          	li	a5,32
    66d8:	02900713          	li	a4,41
    66dc:	02f11a63          	bne	sp,a5,6710 <fail>

000066e0 <test_42>:
    66e0:	400050b3          	sra	ra,zero,zero
    66e4:	00000793          	li	a5,0
    66e8:	02a00713          	li	a4,42
    66ec:	02f09263          	bne	ra,a5,6710 <fail>

000066f0 <test_43>:
    66f0:	40000093          	li	ra,1024
    66f4:	00001137          	lui	sp,0x1
    66f8:	80010113          	addi	sp,sp,-2048 # 800 <usleep+0x20>
    66fc:	4020d033          	sra	zero,ra,sp
    6700:	00000793          	li	a5,0
    6704:	02b00713          	li	a4,43
    6708:	00f01463          	bne	zero,a5,6710 <fail>
    670c:	00e01663          	bne	zero,a4,6718 <pass>

00006710 <fail>:
    6710:	9c8fa0ef          	jal	ra,8d8 <failure>
    6714:	00100073          	ebreak

00006718 <pass>:
    6718:	00009137          	lui	sp,0x9
    671c:	9c8fa0ef          	jal	ra,8e4 <OK>
    6720:	b20fa06f          	j	a40 <sra_ret>

00006724 <and>:
    6724:	00006537          	lui	a0,0x6
    6728:	74450513          	addi	a0,a0,1860 # 6744 <.test_name>

0000672c <loop>:
    672c:	b31f90ef          	jal	ra,25c <putstr>

00006730 <.prname_next>:
    6730:	00050583          	lb	a1,0(a0)
    6734:	00058a63          	beqz	a1,6748 <.prname_done>
    6738:	00b62023          	sw	a1,0(a2)
    673c:	00150513          	addi	a0,a0,1
    6740:	ff1ff06f          	j	6730 <.prname_next>

00006744 <.test_name>:
    6744:	6e61                	lui	t3,0x18
    6746:	0064                	addi	s1,sp,12

00006748 <.prname_done>:
    6748:	02e00593          	li	a1,46
    674c:	00b62023          	sw	a1,0(a2)
    6750:	00b62023          	sw	a1,0(a2)

00006754 <test_2>:
    6754:	ff0100b7          	lui	ra,0xff010
    6758:	f0008093          	addi	ra,ra,-256 # ff00ff00 <io+0x7f00ff00>
    675c:	0f0f1137          	lui	sp,0xf0f1
    6760:	f0f10113          	addi	sp,sp,-241 # f0f0f0f <tdat10+0xf0e8a12>
    6764:	0020f1b3          	and	gp,ra,sp
    6768:	0f0017b7          	lui	a5,0xf001
    676c:	f0078793          	addi	a5,a5,-256 # f000f00 <tdat10+0xeff8a03>
    6770:	00200713          	li	a4,2
    6774:	48f19c63          	bne	gp,a5,6c0c <fail>

00006778 <test_3>:
    6778:	0ff010b7          	lui	ra,0xff01
    677c:	ff008093          	addi	ra,ra,-16 # ff00ff0 <tdat10+0xfef8af3>
    6780:	f0f0f137          	lui	sp,0xf0f0f
    6784:	0f010113          	addi	sp,sp,240 # f0f0f0f0 <io+0x70f0f0f0>
    6788:	0020f1b3          	and	gp,ra,sp
    678c:	00f007b7          	lui	a5,0xf00
    6790:	0f078793          	addi	a5,a5,240 # f000f0 <tdat10+0xef7bf3>
    6794:	00300713          	li	a4,3
    6798:	46f19a63          	bne	gp,a5,6c0c <fail>

0000679c <test_4>:
    679c:	00ff00b7          	lui	ra,0xff0
    67a0:	0ff08093          	addi	ra,ra,255 # ff00ff <tdat10+0xfe7c02>
    67a4:	0f0f1137          	lui	sp,0xf0f1
    67a8:	f0f10113          	addi	sp,sp,-241 # f0f0f0f <tdat10+0xf0e8a12>
    67ac:	0020f1b3          	and	gp,ra,sp
    67b0:	000f07b7          	lui	a5,0xf0
    67b4:	00f78793          	addi	a5,a5,15 # f000f <tdat10+0xe7b12>
    67b8:	00400713          	li	a4,4
    67bc:	44f19863          	bne	gp,a5,6c0c <fail>

000067c0 <test_5>:
    67c0:	f00ff0b7          	lui	ra,0xf00ff
    67c4:	00f08093          	addi	ra,ra,15 # f00ff00f <io+0x700ff00f>
    67c8:	f0f0f137          	lui	sp,0xf0f0f
    67cc:	0f010113          	addi	sp,sp,240 # f0f0f0f0 <io+0x70f0f0f0>
    67d0:	0020f1b3          	and	gp,ra,sp
    67d4:	f000f7b7          	lui	a5,0xf000f
    67d8:	00500713          	li	a4,5
    67dc:	42f19863          	bne	gp,a5,6c0c <fail>

000067e0 <test_6>:
    67e0:	ff0100b7          	lui	ra,0xff010
    67e4:	f0008093          	addi	ra,ra,-256 # ff00ff00 <io+0x7f00ff00>
    67e8:	0f0f1137          	lui	sp,0xf0f1
    67ec:	f0f10113          	addi	sp,sp,-241 # f0f0f0f <tdat10+0xf0e8a12>
    67f0:	0020f0b3          	and	ra,ra,sp
    67f4:	0f0017b7          	lui	a5,0xf001
    67f8:	f0078793          	addi	a5,a5,-256 # f000f00 <tdat10+0xeff8a03>
    67fc:	00600713          	li	a4,6
    6800:	40f09663          	bne	ra,a5,6c0c <fail>

00006804 <test_7>:
    6804:	0ff010b7          	lui	ra,0xff01
    6808:	ff008093          	addi	ra,ra,-16 # ff00ff0 <tdat10+0xfef8af3>
    680c:	f0f0f137          	lui	sp,0xf0f0f
    6810:	0f010113          	addi	sp,sp,240 # f0f0f0f0 <io+0x70f0f0f0>
    6814:	0020f133          	and	sp,ra,sp
    6818:	00f007b7          	lui	a5,0xf00
    681c:	0f078793          	addi	a5,a5,240 # f000f0 <tdat10+0xef7bf3>
    6820:	00700713          	li	a4,7
    6824:	3ef11463          	bne	sp,a5,6c0c <fail>

00006828 <test_8>:
    6828:	ff0100b7          	lui	ra,0xff010
    682c:	f0008093          	addi	ra,ra,-256 # ff00ff00 <io+0x7f00ff00>
    6830:	0010f0b3          	and	ra,ra,ra
    6834:	ff0107b7          	lui	a5,0xff010
    6838:	f0078793          	addi	a5,a5,-256 # ff00ff00 <io+0x7f00ff00>
    683c:	00800713          	li	a4,8
    6840:	3cf09663          	bne	ra,a5,6c0c <fail>

00006844 <test_9>:
    6844:	00000213          	li	tp,0
    6848:	ff0100b7          	lui	ra,0xff010
    684c:	f0008093          	addi	ra,ra,-256 # ff00ff00 <io+0x7f00ff00>
    6850:	0f0f1137          	lui	sp,0xf0f1
    6854:	f0f10113          	addi	sp,sp,-241 # f0f0f0f <tdat10+0xf0e8a12>
    6858:	0020f1b3          	and	gp,ra,sp
    685c:	00018313          	mv	t1,gp
    6860:	00120213          	addi	tp,tp,1 # 1 <boot+0x1>
    6864:	00200293          	li	t0,2
    6868:	fe5210e3          	bne	tp,t0,6848 <test_9+0x4>
    686c:	0f0017b7          	lui	a5,0xf001
    6870:	f0078793          	addi	a5,a5,-256 # f000f00 <tdat10+0xeff8a03>
    6874:	00900713          	li	a4,9
    6878:	38f31a63          	bne	t1,a5,6c0c <fail>

0000687c <test_10>:
    687c:	00000213          	li	tp,0
    6880:	0ff010b7          	lui	ra,0xff01
    6884:	ff008093          	addi	ra,ra,-16 # ff00ff0 <tdat10+0xfef8af3>
    6888:	f0f0f137          	lui	sp,0xf0f0f
    688c:	0f010113          	addi	sp,sp,240 # f0f0f0f0 <io+0x70f0f0f0>
    6890:	0020f1b3          	and	gp,ra,sp
    6894:	00000013          	nop
    6898:	00018313          	mv	t1,gp
    689c:	00120213          	addi	tp,tp,1 # 1 <boot+0x1>
    68a0:	00200293          	li	t0,2
    68a4:	fc521ee3          	bne	tp,t0,6880 <test_10+0x4>
    68a8:	00f007b7          	lui	a5,0xf00
    68ac:	0f078793          	addi	a5,a5,240 # f000f0 <tdat10+0xef7bf3>
    68b0:	00a00713          	li	a4,10
    68b4:	34f31c63          	bne	t1,a5,6c0c <fail>

000068b8 <test_11>:
    68b8:	00000213          	li	tp,0
    68bc:	00ff00b7          	lui	ra,0xff0
    68c0:	0ff08093          	addi	ra,ra,255 # ff00ff <tdat10+0xfe7c02>
    68c4:	0f0f1137          	lui	sp,0xf0f1
    68c8:	f0f10113          	addi	sp,sp,-241 # f0f0f0f <tdat10+0xf0e8a12>
    68cc:	0020f1b3          	and	gp,ra,sp
    68d0:	00000013          	nop
    68d4:	00000013          	nop
    68d8:	00018313          	mv	t1,gp
    68dc:	00120213          	addi	tp,tp,1 # 1 <boot+0x1>
    68e0:	00200293          	li	t0,2
    68e4:	fc521ce3          	bne	tp,t0,68bc <test_11+0x4>
    68e8:	000f07b7          	lui	a5,0xf0
    68ec:	00f78793          	addi	a5,a5,15 # f000f <tdat10+0xe7b12>
    68f0:	00b00713          	li	a4,11
    68f4:	30f31c63          	bne	t1,a5,6c0c <fail>

000068f8 <test_12>:
    68f8:	00000213          	li	tp,0
    68fc:	ff0100b7          	lui	ra,0xff010
    6900:	f0008093          	addi	ra,ra,-256 # ff00ff00 <io+0x7f00ff00>
    6904:	0f0f1137          	lui	sp,0xf0f1
    6908:	f0f10113          	addi	sp,sp,-241 # f0f0f0f <tdat10+0xf0e8a12>
    690c:	0020f1b3          	and	gp,ra,sp
    6910:	00120213          	addi	tp,tp,1 # 1 <boot+0x1>
    6914:	00200293          	li	t0,2
    6918:	fe5212e3          	bne	tp,t0,68fc <test_12+0x4>
    691c:	0f0017b7          	lui	a5,0xf001
    6920:	f0078793          	addi	a5,a5,-256 # f000f00 <tdat10+0xeff8a03>
    6924:	00c00713          	li	a4,12
    6928:	2ef19263          	bne	gp,a5,6c0c <fail>

0000692c <test_13>:
    692c:	00000213          	li	tp,0
    6930:	0ff010b7          	lui	ra,0xff01
    6934:	ff008093          	addi	ra,ra,-16 # ff00ff0 <tdat10+0xfef8af3>
    6938:	f0f0f137          	lui	sp,0xf0f0f
    693c:	0f010113          	addi	sp,sp,240 # f0f0f0f0 <io+0x70f0f0f0>
    6940:	00000013          	nop
    6944:	0020f1b3          	and	gp,ra,sp
    6948:	00120213          	addi	tp,tp,1 # 1 <boot+0x1>
    694c:	00200293          	li	t0,2
    6950:	fe5210e3          	bne	tp,t0,6930 <test_13+0x4>
    6954:	00f007b7          	lui	a5,0xf00
    6958:	0f078793          	addi	a5,a5,240 # f000f0 <tdat10+0xef7bf3>
    695c:	00d00713          	li	a4,13
    6960:	2af19663          	bne	gp,a5,6c0c <fail>

00006964 <test_14>:
    6964:	00000213          	li	tp,0
    6968:	00ff00b7          	lui	ra,0xff0
    696c:	0ff08093          	addi	ra,ra,255 # ff00ff <tdat10+0xfe7c02>
    6970:	0f0f1137          	lui	sp,0xf0f1
    6974:	f0f10113          	addi	sp,sp,-241 # f0f0f0f <tdat10+0xf0e8a12>
    6978:	00000013          	nop
    697c:	00000013          	nop
    6980:	0020f1b3          	and	gp,ra,sp
    6984:	00120213          	addi	tp,tp,1 # 1 <boot+0x1>
    6988:	00200293          	li	t0,2
    698c:	fc521ee3          	bne	tp,t0,6968 <test_14+0x4>
    6990:	000f07b7          	lui	a5,0xf0
    6994:	00f78793          	addi	a5,a5,15 # f000f <tdat10+0xe7b12>
    6998:	00e00713          	li	a4,14
    699c:	26f19863          	bne	gp,a5,6c0c <fail>

000069a0 <test_15>:
    69a0:	00000213          	li	tp,0
    69a4:	ff0100b7          	lui	ra,0xff010
    69a8:	f0008093          	addi	ra,ra,-256 # ff00ff00 <io+0x7f00ff00>
    69ac:	00000013          	nop
    69b0:	0f0f1137          	lui	sp,0xf0f1
    69b4:	f0f10113          	addi	sp,sp,-241 # f0f0f0f <tdat10+0xf0e8a12>
    69b8:	0020f1b3          	and	gp,ra,sp
    69bc:	00120213          	addi	tp,tp,1 # 1 <boot+0x1>
    69c0:	00200293          	li	t0,2
    69c4:	fe5210e3          	bne	tp,t0,69a4 <test_15+0x4>
    69c8:	0f0017b7          	lui	a5,0xf001
    69cc:	f0078793          	addi	a5,a5,-256 # f000f00 <tdat10+0xeff8a03>
    69d0:	00f00713          	li	a4,15
    69d4:	22f19c63          	bne	gp,a5,6c0c <fail>

000069d8 <test_16>:
    69d8:	00000213          	li	tp,0
    69dc:	0ff010b7          	lui	ra,0xff01
    69e0:	ff008093          	addi	ra,ra,-16 # ff00ff0 <tdat10+0xfef8af3>
    69e4:	00000013          	nop
    69e8:	f0f0f137          	lui	sp,0xf0f0f
    69ec:	0f010113          	addi	sp,sp,240 # f0f0f0f0 <io+0x70f0f0f0>
    69f0:	00000013          	nop
    69f4:	0020f1b3          	and	gp,ra,sp
    69f8:	00120213          	addi	tp,tp,1 # 1 <boot+0x1>
    69fc:	00200293          	li	t0,2
    6a00:	fc521ee3          	bne	tp,t0,69dc <test_16+0x4>
    6a04:	00f007b7          	lui	a5,0xf00
    6a08:	0f078793          	addi	a5,a5,240 # f000f0 <tdat10+0xef7bf3>
    6a0c:	01000713          	li	a4,16
    6a10:	1ef19e63          	bne	gp,a5,6c0c <fail>

00006a14 <test_17>:
    6a14:	00000213          	li	tp,0
    6a18:	00ff00b7          	lui	ra,0xff0
    6a1c:	0ff08093          	addi	ra,ra,255 # ff00ff <tdat10+0xfe7c02>
    6a20:	00000013          	nop
    6a24:	00000013          	nop
    6a28:	0f0f1137          	lui	sp,0xf0f1
    6a2c:	f0f10113          	addi	sp,sp,-241 # f0f0f0f <tdat10+0xf0e8a12>
    6a30:	0020f1b3          	and	gp,ra,sp
    6a34:	00120213          	addi	tp,tp,1 # 1 <boot+0x1>
    6a38:	00200293          	li	t0,2
    6a3c:	fc521ee3          	bne	tp,t0,6a18 <test_17+0x4>
    6a40:	000f07b7          	lui	a5,0xf0
    6a44:	00f78793          	addi	a5,a5,15 # f000f <tdat10+0xe7b12>
    6a48:	01100713          	li	a4,17
    6a4c:	1cf19063          	bne	gp,a5,6c0c <fail>

00006a50 <test_18>:
    6a50:	00000213          	li	tp,0
    6a54:	0f0f1137          	lui	sp,0xf0f1
    6a58:	f0f10113          	addi	sp,sp,-241 # f0f0f0f <tdat10+0xf0e8a12>
    6a5c:	ff0100b7          	lui	ra,0xff010
    6a60:	f0008093          	addi	ra,ra,-256 # ff00ff00 <io+0x7f00ff00>
    6a64:	0020f1b3          	and	gp,ra,sp
    6a68:	00120213          	addi	tp,tp,1 # 1 <boot+0x1>
    6a6c:	00200293          	li	t0,2
    6a70:	fe5212e3          	bne	tp,t0,6a54 <test_18+0x4>
    6a74:	0f0017b7          	lui	a5,0xf001
    6a78:	f0078793          	addi	a5,a5,-256 # f000f00 <tdat10+0xeff8a03>
    6a7c:	01200713          	li	a4,18
    6a80:	18f19663          	bne	gp,a5,6c0c <fail>

00006a84 <test_19>:
    6a84:	00000213          	li	tp,0
    6a88:	f0f0f137          	lui	sp,0xf0f0f
    6a8c:	0f010113          	addi	sp,sp,240 # f0f0f0f0 <io+0x70f0f0f0>
    6a90:	0ff010b7          	lui	ra,0xff01
    6a94:	ff008093          	addi	ra,ra,-16 # ff00ff0 <tdat10+0xfef8af3>
    6a98:	00000013          	nop
    6a9c:	0020f1b3          	and	gp,ra,sp
    6aa0:	00120213          	addi	tp,tp,1 # 1 <boot+0x1>
    6aa4:	00200293          	li	t0,2
    6aa8:	fe5210e3          	bne	tp,t0,6a88 <test_19+0x4>
    6aac:	00f007b7          	lui	a5,0xf00
    6ab0:	0f078793          	addi	a5,a5,240 # f000f0 <tdat10+0xef7bf3>
    6ab4:	01300713          	li	a4,19
    6ab8:	14f19a63          	bne	gp,a5,6c0c <fail>

00006abc <test_20>:
    6abc:	00000213          	li	tp,0
    6ac0:	0f0f1137          	lui	sp,0xf0f1
    6ac4:	f0f10113          	addi	sp,sp,-241 # f0f0f0f <tdat10+0xf0e8a12>
    6ac8:	00ff00b7          	lui	ra,0xff0
    6acc:	0ff08093          	addi	ra,ra,255 # ff00ff <tdat10+0xfe7c02>
    6ad0:	00000013          	nop
    6ad4:	00000013          	nop
    6ad8:	0020f1b3          	and	gp,ra,sp
    6adc:	00120213          	addi	tp,tp,1 # 1 <boot+0x1>
    6ae0:	00200293          	li	t0,2
    6ae4:	fc521ee3          	bne	tp,t0,6ac0 <test_20+0x4>
    6ae8:	000f07b7          	lui	a5,0xf0
    6aec:	00f78793          	addi	a5,a5,15 # f000f <tdat10+0xe7b12>
    6af0:	01400713          	li	a4,20
    6af4:	10f19c63          	bne	gp,a5,6c0c <fail>

00006af8 <test_21>:
    6af8:	00000213          	li	tp,0
    6afc:	0f0f1137          	lui	sp,0xf0f1
    6b00:	f0f10113          	addi	sp,sp,-241 # f0f0f0f <tdat10+0xf0e8a12>
    6b04:	00000013          	nop
    6b08:	ff0100b7          	lui	ra,0xff010
    6b0c:	f0008093          	addi	ra,ra,-256 # ff00ff00 <io+0x7f00ff00>
    6b10:	0020f1b3          	and	gp,ra,sp
    6b14:	00120213          	addi	tp,tp,1 # 1 <boot+0x1>
    6b18:	00200293          	li	t0,2
    6b1c:	fe5210e3          	bne	tp,t0,6afc <test_21+0x4>
    6b20:	0f0017b7          	lui	a5,0xf001
    6b24:	f0078793          	addi	a5,a5,-256 # f000f00 <tdat10+0xeff8a03>
    6b28:	01500713          	li	a4,21
    6b2c:	0ef19063          	bne	gp,a5,6c0c <fail>

00006b30 <test_22>:
    6b30:	00000213          	li	tp,0
    6b34:	f0f0f137          	lui	sp,0xf0f0f
    6b38:	0f010113          	addi	sp,sp,240 # f0f0f0f0 <io+0x70f0f0f0>
    6b3c:	00000013          	nop
    6b40:	0ff010b7          	lui	ra,0xff01
    6b44:	ff008093          	addi	ra,ra,-16 # ff00ff0 <tdat10+0xfef8af3>
    6b48:	00000013          	nop
    6b4c:	0020f1b3          	and	gp,ra,sp
    6b50:	00120213          	addi	tp,tp,1 # 1 <boot+0x1>
    6b54:	00200293          	li	t0,2
    6b58:	fc521ee3          	bne	tp,t0,6b34 <test_22+0x4>
    6b5c:	00f007b7          	lui	a5,0xf00
    6b60:	0f078793          	addi	a5,a5,240 # f000f0 <tdat10+0xef7bf3>
    6b64:	01600713          	li	a4,22
    6b68:	0af19263          	bne	gp,a5,6c0c <fail>

00006b6c <test_23>:
    6b6c:	00000213          	li	tp,0
    6b70:	0f0f1137          	lui	sp,0xf0f1
    6b74:	f0f10113          	addi	sp,sp,-241 # f0f0f0f <tdat10+0xf0e8a12>
    6b78:	00000013          	nop
    6b7c:	00000013          	nop
    6b80:	00ff00b7          	lui	ra,0xff0
    6b84:	0ff08093          	addi	ra,ra,255 # ff00ff <tdat10+0xfe7c02>
    6b88:	0020f1b3          	and	gp,ra,sp
    6b8c:	00120213          	addi	tp,tp,1 # 1 <boot+0x1>
    6b90:	00200293          	li	t0,2
    6b94:	fc521ee3          	bne	tp,t0,6b70 <test_23+0x4>
    6b98:	000f07b7          	lui	a5,0xf0
    6b9c:	00f78793          	addi	a5,a5,15 # f000f <tdat10+0xe7b12>
    6ba0:	01700713          	li	a4,23
    6ba4:	06f19463          	bne	gp,a5,6c0c <fail>

00006ba8 <test_24>:
    6ba8:	ff0100b7          	lui	ra,0xff010
    6bac:	f0008093          	addi	ra,ra,-256 # ff00ff00 <io+0x7f00ff00>
    6bb0:	00107133          	and	sp,zero,ra
    6bb4:	00000793          	li	a5,0
    6bb8:	01800713          	li	a4,24
    6bbc:	04f11863          	bne	sp,a5,6c0c <fail>

00006bc0 <test_25>:
    6bc0:	00ff00b7          	lui	ra,0xff0
    6bc4:	0ff08093          	addi	ra,ra,255 # ff00ff <tdat10+0xfe7c02>
    6bc8:	0000f133          	and	sp,ra,zero
    6bcc:	00000793          	li	a5,0
    6bd0:	01900713          	li	a4,25
    6bd4:	02f11c63          	bne	sp,a5,6c0c <fail>

00006bd8 <test_26>:
    6bd8:	000070b3          	and	ra,zero,zero
    6bdc:	00000793          	li	a5,0
    6be0:	01a00713          	li	a4,26
    6be4:	02f09463          	bne	ra,a5,6c0c <fail>

00006be8 <test_27>:
    6be8:	111110b7          	lui	ra,0x11111
    6bec:	11108093          	addi	ra,ra,273 # 11111111 <tdat10+0x11108c14>
    6bf0:	22222137          	lui	sp,0x22222
    6bf4:	22210113          	addi	sp,sp,546 # 22222222 <tdat10+0x22219d25>
    6bf8:	0020f033          	and	zero,ra,sp
    6bfc:	00000793          	li	a5,0
    6c00:	01b00713          	li	a4,27
    6c04:	00f01463          	bne	zero,a5,6c0c <fail>
    6c08:	00e01663          	bne	zero,a4,6c14 <pass>

00006c0c <fail>:
    6c0c:	ccdf90ef          	jal	ra,8d8 <failure>
    6c10:	00100073          	ebreak

00006c14 <pass>:
    6c14:	00009137          	lui	sp,0x9
    6c18:	ccdf90ef          	jal	ra,8e4 <OK>
    6c1c:	e35f906f          	j	a50 <and_ret>

00006c20 <ori>:
    6c20:	00007537          	lui	a0,0x7
    6c24:	c4050513          	addi	a0,a0,-960 # 6c40 <.test_name>

00006c28 <loop>:
    6c28:	e34f90ef          	jal	ra,25c <putstr>

00006c2c <.prname_next>:
    6c2c:	00050583          	lb	a1,0(a0)
    6c30:	00058a63          	beqz	a1,6c44 <.prname_done>
    6c34:	00b62023          	sw	a1,0(a2)
    6c38:	00150513          	addi	a0,a0,1
    6c3c:	ff1ff06f          	j	6c2c <.prname_next>

00006c40 <.test_name>:
    6c40:	0069726f          	jal	tp,9dc46 <tdat10+0x95749>

00006c44 <.prname_done>:
    6c44:	02e00593          	li	a1,46
    6c48:	00b62023          	sw	a1,0(a2)
    6c4c:	00b62023          	sw	a1,0(a2)

00006c50 <test_2>:
    6c50:	ff0100b7          	lui	ra,0xff010
    6c54:	f0008093          	addi	ra,ra,-256 # ff00ff00 <io+0x7f00ff00>
    6c58:	f0f0e193          	ori	gp,ra,-241
    6c5c:	f0f00793          	li	a5,-241
    6c60:	00200713          	li	a4,2
    6c64:	1cf19463          	bne	gp,a5,6e2c <fail>

00006c68 <test_3>:
    6c68:	0ff010b7          	lui	ra,0xff01
    6c6c:	ff008093          	addi	ra,ra,-16 # ff00ff0 <tdat10+0xfef8af3>
    6c70:	0f00e193          	ori	gp,ra,240
    6c74:	0ff017b7          	lui	a5,0xff01
    6c78:	ff078793          	addi	a5,a5,-16 # ff00ff0 <tdat10+0xfef8af3>
    6c7c:	00300713          	li	a4,3
    6c80:	1af19663          	bne	gp,a5,6e2c <fail>

00006c84 <test_4>:
    6c84:	00ff00b7          	lui	ra,0xff0
    6c88:	0ff08093          	addi	ra,ra,255 # ff00ff <tdat10+0xfe7c02>
    6c8c:	70f0e193          	ori	gp,ra,1807
    6c90:	00ff07b7          	lui	a5,0xff0
    6c94:	7ff78793          	addi	a5,a5,2047 # ff07ff <tdat10+0xfe8302>
    6c98:	00400713          	li	a4,4
    6c9c:	18f19863          	bne	gp,a5,6e2c <fail>

00006ca0 <test_5>:
    6ca0:	f00ff0b7          	lui	ra,0xf00ff
    6ca4:	00f08093          	addi	ra,ra,15 # f00ff00f <io+0x700ff00f>
    6ca8:	0f00e193          	ori	gp,ra,240
    6cac:	f00ff7b7          	lui	a5,0xf00ff
    6cb0:	0ff78793          	addi	a5,a5,255 # f00ff0ff <io+0x700ff0ff>
    6cb4:	00500713          	li	a4,5
    6cb8:	16f19a63          	bne	gp,a5,6e2c <fail>

00006cbc <test_6>:
    6cbc:	ff0100b7          	lui	ra,0xff010
    6cc0:	f0008093          	addi	ra,ra,-256 # ff00ff00 <io+0x7f00ff00>
    6cc4:	0f00e093          	ori	ra,ra,240
    6cc8:	ff0107b7          	lui	a5,0xff010
    6ccc:	ff078793          	addi	a5,a5,-16 # ff00fff0 <io+0x7f00fff0>
    6cd0:	00600713          	li	a4,6
    6cd4:	14f09c63          	bne	ra,a5,6e2c <fail>

00006cd8 <test_7>:
    6cd8:	00000213          	li	tp,0
    6cdc:	0ff010b7          	lui	ra,0xff01
    6ce0:	ff008093          	addi	ra,ra,-16 # ff00ff0 <tdat10+0xfef8af3>
    6ce4:	0f00e193          	ori	gp,ra,240
    6ce8:	00018313          	mv	t1,gp
    6cec:	00120213          	addi	tp,tp,1 # 1 <boot+0x1>
    6cf0:	00200293          	li	t0,2
    6cf4:	fe5214e3          	bne	tp,t0,6cdc <test_7+0x4>
    6cf8:	0ff017b7          	lui	a5,0xff01
    6cfc:	ff078793          	addi	a5,a5,-16 # ff00ff0 <tdat10+0xfef8af3>
    6d00:	00700713          	li	a4,7
    6d04:	12f31463          	bne	t1,a5,6e2c <fail>

00006d08 <test_8>:
    6d08:	00000213          	li	tp,0
    6d0c:	00ff00b7          	lui	ra,0xff0
    6d10:	0ff08093          	addi	ra,ra,255 # ff00ff <tdat10+0xfe7c02>
    6d14:	70f0e193          	ori	gp,ra,1807
    6d18:	00000013          	nop
    6d1c:	00018313          	mv	t1,gp
    6d20:	00120213          	addi	tp,tp,1 # 1 <boot+0x1>
    6d24:	00200293          	li	t0,2
    6d28:	fe5212e3          	bne	tp,t0,6d0c <test_8+0x4>
    6d2c:	00ff07b7          	lui	a5,0xff0
    6d30:	7ff78793          	addi	a5,a5,2047 # ff07ff <tdat10+0xfe8302>
    6d34:	00800713          	li	a4,8
    6d38:	0ef31a63          	bne	t1,a5,6e2c <fail>

00006d3c <test_9>:
    6d3c:	00000213          	li	tp,0
    6d40:	f00ff0b7          	lui	ra,0xf00ff
    6d44:	00f08093          	addi	ra,ra,15 # f00ff00f <io+0x700ff00f>
    6d48:	0f00e193          	ori	gp,ra,240
    6d4c:	00000013          	nop
    6d50:	00000013          	nop
    6d54:	00018313          	mv	t1,gp
    6d58:	00120213          	addi	tp,tp,1 # 1 <boot+0x1>
    6d5c:	00200293          	li	t0,2
    6d60:	fe5210e3          	bne	tp,t0,6d40 <test_9+0x4>
    6d64:	f00ff7b7          	lui	a5,0xf00ff
    6d68:	0ff78793          	addi	a5,a5,255 # f00ff0ff <io+0x700ff0ff>
    6d6c:	00900713          	li	a4,9
    6d70:	0af31e63          	bne	t1,a5,6e2c <fail>

00006d74 <test_10>:
    6d74:	00000213          	li	tp,0
    6d78:	0ff010b7          	lui	ra,0xff01
    6d7c:	ff008093          	addi	ra,ra,-16 # ff00ff0 <tdat10+0xfef8af3>
    6d80:	0f00e193          	ori	gp,ra,240
    6d84:	00120213          	addi	tp,tp,1 # 1 <boot+0x1>
    6d88:	00200293          	li	t0,2
    6d8c:	fe5216e3          	bne	tp,t0,6d78 <test_10+0x4>
    6d90:	0ff017b7          	lui	a5,0xff01
    6d94:	ff078793          	addi	a5,a5,-16 # ff00ff0 <tdat10+0xfef8af3>
    6d98:	00a00713          	li	a4,10
    6d9c:	08f19863          	bne	gp,a5,6e2c <fail>

00006da0 <test_11>:
    6da0:	00000213          	li	tp,0
    6da4:	00ff00b7          	lui	ra,0xff0
    6da8:	0ff08093          	addi	ra,ra,255 # ff00ff <tdat10+0xfe7c02>
    6dac:	00000013          	nop
    6db0:	f0f0e193          	ori	gp,ra,-241
    6db4:	00120213          	addi	tp,tp,1 # 1 <boot+0x1>
    6db8:	00200293          	li	t0,2
    6dbc:	fe5214e3          	bne	tp,t0,6da4 <test_11+0x4>
    6dc0:	fff00793          	li	a5,-1
    6dc4:	00b00713          	li	a4,11
    6dc8:	06f19263          	bne	gp,a5,6e2c <fail>

00006dcc <test_12>:
    6dcc:	00000213          	li	tp,0
    6dd0:	f00ff0b7          	lui	ra,0xf00ff
    6dd4:	00f08093          	addi	ra,ra,15 # f00ff00f <io+0x700ff00f>
    6dd8:	00000013          	nop
    6ddc:	00000013          	nop
    6de0:	0f00e193          	ori	gp,ra,240
    6de4:	00120213          	addi	tp,tp,1 # 1 <boot+0x1>
    6de8:	00200293          	li	t0,2
    6dec:	fe5212e3          	bne	tp,t0,6dd0 <test_12+0x4>
    6df0:	f00ff7b7          	lui	a5,0xf00ff
    6df4:	0ff78793          	addi	a5,a5,255 # f00ff0ff <io+0x700ff0ff>
    6df8:	00c00713          	li	a4,12
    6dfc:	02f19863          	bne	gp,a5,6e2c <fail>

00006e00 <test_13>:
    6e00:	0f006093          	ori	ra,zero,240
    6e04:	0f000793          	li	a5,240
    6e08:	00d00713          	li	a4,13
    6e0c:	02f09063          	bne	ra,a5,6e2c <fail>

00006e10 <test_14>:
    6e10:	00ff00b7          	lui	ra,0xff0
    6e14:	0ff08093          	addi	ra,ra,255 # ff00ff <tdat10+0xfe7c02>
    6e18:	70f0e013          	ori	zero,ra,1807
    6e1c:	00000793          	li	a5,0
    6e20:	00e00713          	li	a4,14
    6e24:	00f01463          	bne	zero,a5,6e2c <fail>
    6e28:	00e01663          	bne	zero,a4,6e34 <pass>

00006e2c <fail>:
    6e2c:	aadf90ef          	jal	ra,8d8 <failure>
    6e30:	00100073          	ebreak

00006e34 <pass>:
    6e34:	00009137          	lui	sp,0x9
    6e38:	aadf90ef          	jal	ra,8e4 <OK>
    6e3c:	badf906f          	j	9e8 <ori_ret>

00006e40 <jal>:
    6e40:	00007537          	lui	a0,0x7
    6e44:	e6050513          	addi	a0,a0,-416 # 6e60 <.test_name>

00006e48 <loop>:
    6e48:	c14f90ef          	jal	ra,25c <putstr>

00006e4c <.prname_next>:
    6e4c:	00050583          	lb	a1,0(a0)
    6e50:	00058a63          	beqz	a1,6e64 <.prname_done>
    6e54:	00b62023          	sw	a1,0(a2)
    6e58:	00150513          	addi	a0,a0,1
    6e5c:	ff1ff06f          	j	6e4c <.prname_next>

00006e60 <.test_name>:
    6e60:	616a                	flw	ft2,152(sp)
    6e62:	006c                	addi	a1,sp,12

00006e64 <.prname_done>:
    6e64:	02e00593          	li	a1,46
    6e68:	00b62023          	sw	a1,0(a2)
    6e6c:	00b62023          	sw	a1,0(a2)

00006e70 <test_2>:
    6e70:	00200713          	li	a4,2
    6e74:	00000093          	li	ra,0

00006e78 <linkaddr_2>:
    6e78:	010000ef          	jal	ra,6e88 <target_2>
    6e7c:	00000013          	nop
    6e80:	00000013          	nop
    6e84:	0440006f          	j	6ec8 <fail>

00006e88 <target_2>:
    6e88:	00000117          	auipc	sp,0x0
    6e8c:	ff010113          	addi	sp,sp,-16 # 6e78 <linkaddr_2>
    6e90:	00410113          	addi	sp,sp,4
    6e94:	02111a63          	bne	sp,ra,6ec8 <fail>

00006e98 <test_3>:
    6e98:	00100113          	li	sp,1
    6e9c:	014000ef          	jal	ra,6eb0 <test_3+0x18>
    6ea0:	00110113          	addi	sp,sp,1
    6ea4:	00110113          	addi	sp,sp,1
    6ea8:	00110113          	addi	sp,sp,1
    6eac:	00110113          	addi	sp,sp,1
    6eb0:	00110113          	addi	sp,sp,1
    6eb4:	00110113          	addi	sp,sp,1
    6eb8:	00300793          	li	a5,3
    6ebc:	00300713          	li	a4,3
    6ec0:	00f11463          	bne	sp,a5,6ec8 <fail>
    6ec4:	00e01663          	bne	zero,a4,6ed0 <pass>

00006ec8 <fail>:
    6ec8:	a11f90ef          	jal	ra,8d8 <failure>
    6ecc:	00100073          	ebreak

00006ed0 <pass>:
    6ed0:	00009137          	lui	sp,0x9
    6ed4:	a11f90ef          	jal	ra,8e4 <OK>
    6ed8:	a79f906f          	j	950 <jal_ret>

00006edc <add>:
    6edc:	00007537          	lui	a0,0x7
    6ee0:	efc50513          	addi	a0,a0,-260 # 6efc <.test_name>

00006ee4 <loop>:
    6ee4:	b78f90ef          	jal	ra,25c <putstr>

00006ee8 <.prname_next>:
    6ee8:	00050583          	lb	a1,0(a0)
    6eec:	00058a63          	beqz	a1,6f00 <.prname_done>
    6ef0:	00b62023          	sw	a1,0(a2)
    6ef4:	00150513          	addi	a0,a0,1
    6ef8:	ff1ff06f          	j	6ee8 <.prname_next>

00006efc <.test_name>:
    6efc:	6461                	lui	s0,0x18
    6efe:	0064                	addi	s1,sp,12

00006f00 <.prname_done>:
    6f00:	02e00593          	li	a1,46
    6f04:	00b62023          	sw	a1,0(a2)
    6f08:	00b62023          	sw	a1,0(a2)

00006f0c <test_2>:
    6f0c:	00000093          	li	ra,0
    6f10:	00000113          	li	sp,0
    6f14:	002081b3          	add	gp,ra,sp
    6f18:	00000793          	li	a5,0
    6f1c:	00200713          	li	a4,2
    6f20:	4cf19663          	bne	gp,a5,73ec <fail>

00006f24 <test_3>:
    6f24:	00100093          	li	ra,1
    6f28:	00100113          	li	sp,1
    6f2c:	002081b3          	add	gp,ra,sp
    6f30:	00200793          	li	a5,2
    6f34:	00300713          	li	a4,3
    6f38:	4af19a63          	bne	gp,a5,73ec <fail>

00006f3c <test_4>:
    6f3c:	00300093          	li	ra,3
    6f40:	00700113          	li	sp,7
    6f44:	002081b3          	add	gp,ra,sp
    6f48:	00a00793          	li	a5,10
    6f4c:	00400713          	li	a4,4
    6f50:	48f19e63          	bne	gp,a5,73ec <fail>

00006f54 <test_5>:
    6f54:	00000093          	li	ra,0
    6f58:	ffff8137          	lui	sp,0xffff8
    6f5c:	002081b3          	add	gp,ra,sp
    6f60:	ffff87b7          	lui	a5,0xffff8
    6f64:	00500713          	li	a4,5
    6f68:	48f19263          	bne	gp,a5,73ec <fail>

00006f6c <test_6>:
    6f6c:	800000b7          	lui	ra,0x80000
    6f70:	00000113          	li	sp,0
    6f74:	002081b3          	add	gp,ra,sp
    6f78:	800007b7          	lui	a5,0x80000
    6f7c:	00600713          	li	a4,6
    6f80:	46f19663          	bne	gp,a5,73ec <fail>

00006f84 <test_7>:
    6f84:	800000b7          	lui	ra,0x80000
    6f88:	ffff8137          	lui	sp,0xffff8
    6f8c:	002081b3          	add	gp,ra,sp
    6f90:	7fff87b7          	lui	a5,0x7fff8
    6f94:	00700713          	li	a4,7
    6f98:	44f19a63          	bne	gp,a5,73ec <fail>

00006f9c <test_8>:
    6f9c:	00000093          	li	ra,0
    6fa0:	00008137          	lui	sp,0x8
    6fa4:	fff10113          	addi	sp,sp,-1 # 7fff <test_14+0x23>
    6fa8:	002081b3          	add	gp,ra,sp
    6fac:	000087b7          	lui	a5,0x8
    6fb0:	fff78793          	addi	a5,a5,-1 # 7fff <test_14+0x23>
    6fb4:	00800713          	li	a4,8
    6fb8:	42f19a63          	bne	gp,a5,73ec <fail>

00006fbc <test_9>:
    6fbc:	800000b7          	lui	ra,0x80000
    6fc0:	fff08093          	addi	ra,ra,-1 # 7fffffff <io+0xffffffff>
    6fc4:	00000113          	li	sp,0
    6fc8:	002081b3          	add	gp,ra,sp
    6fcc:	800007b7          	lui	a5,0x80000
    6fd0:	fff78793          	addi	a5,a5,-1 # 7fffffff <io+0xffffffff>
    6fd4:	00900713          	li	a4,9
    6fd8:	40f19a63          	bne	gp,a5,73ec <fail>

00006fdc <test_10>:
    6fdc:	800000b7          	lui	ra,0x80000
    6fe0:	fff08093          	addi	ra,ra,-1 # 7fffffff <io+0xffffffff>
    6fe4:	00008137          	lui	sp,0x8
    6fe8:	fff10113          	addi	sp,sp,-1 # 7fff <test_14+0x23>
    6fec:	002081b3          	add	gp,ra,sp
    6ff0:	800087b7          	lui	a5,0x80008
    6ff4:	ffe78793          	addi	a5,a5,-2 # 80007ffe <io+0x7ffe>
    6ff8:	00a00713          	li	a4,10
    6ffc:	3ef19863          	bne	gp,a5,73ec <fail>

00007000 <test_11>:
    7000:	800000b7          	lui	ra,0x80000
    7004:	00008137          	lui	sp,0x8
    7008:	fff10113          	addi	sp,sp,-1 # 7fff <test_14+0x23>
    700c:	002081b3          	add	gp,ra,sp
    7010:	800087b7          	lui	a5,0x80008
    7014:	fff78793          	addi	a5,a5,-1 # 80007fff <io+0x7fff>
    7018:	00b00713          	li	a4,11
    701c:	3cf19863          	bne	gp,a5,73ec <fail>

00007020 <test_12>:
    7020:	800000b7          	lui	ra,0x80000
    7024:	fff08093          	addi	ra,ra,-1 # 7fffffff <io+0xffffffff>
    7028:	ffff8137          	lui	sp,0xffff8
    702c:	002081b3          	add	gp,ra,sp
    7030:	7fff87b7          	lui	a5,0x7fff8
    7034:	fff78793          	addi	a5,a5,-1 # 7fff7fff <tdat10+0x7ffefb02>
    7038:	00c00713          	li	a4,12
    703c:	3af19863          	bne	gp,a5,73ec <fail>

00007040 <test_13>:
    7040:	00000093          	li	ra,0
    7044:	fff00113          	li	sp,-1
    7048:	002081b3          	add	gp,ra,sp
    704c:	fff00793          	li	a5,-1
    7050:	00d00713          	li	a4,13
    7054:	38f19c63          	bne	gp,a5,73ec <fail>

00007058 <test_14>:
    7058:	fff00093          	li	ra,-1
    705c:	00100113          	li	sp,1
    7060:	002081b3          	add	gp,ra,sp
    7064:	00000793          	li	a5,0
    7068:	00e00713          	li	a4,14
    706c:	38f19063          	bne	gp,a5,73ec <fail>

00007070 <test_15>:
    7070:	fff00093          	li	ra,-1
    7074:	fff00113          	li	sp,-1
    7078:	002081b3          	add	gp,ra,sp
    707c:	ffe00793          	li	a5,-2
    7080:	00f00713          	li	a4,15
    7084:	36f19463          	bne	gp,a5,73ec <fail>

00007088 <test_16>:
    7088:	00100093          	li	ra,1
    708c:	80000137          	lui	sp,0x80000
    7090:	fff10113          	addi	sp,sp,-1 # 7fffffff <io+0xffffffff>
    7094:	002081b3          	add	gp,ra,sp
    7098:	800007b7          	lui	a5,0x80000
    709c:	01000713          	li	a4,16
    70a0:	34f19663          	bne	gp,a5,73ec <fail>

000070a4 <test_17>:
    70a4:	00d00093          	li	ra,13
    70a8:	00b00113          	li	sp,11
    70ac:	002080b3          	add	ra,ra,sp
    70b0:	01800793          	li	a5,24
    70b4:	01100713          	li	a4,17
    70b8:	32f09a63          	bne	ra,a5,73ec <fail>

000070bc <test_18>:
    70bc:	00e00093          	li	ra,14
    70c0:	00b00113          	li	sp,11
    70c4:	00208133          	add	sp,ra,sp
    70c8:	01900793          	li	a5,25
    70cc:	01200713          	li	a4,18
    70d0:	30f11e63          	bne	sp,a5,73ec <fail>

000070d4 <test_19>:
    70d4:	00d00093          	li	ra,13
    70d8:	001080b3          	add	ra,ra,ra
    70dc:	01a00793          	li	a5,26
    70e0:	01300713          	li	a4,19
    70e4:	30f09463          	bne	ra,a5,73ec <fail>

000070e8 <test_20>:
    70e8:	00000213          	li	tp,0
    70ec:	00d00093          	li	ra,13
    70f0:	00b00113          	li	sp,11
    70f4:	002081b3          	add	gp,ra,sp
    70f8:	00018313          	mv	t1,gp
    70fc:	00120213          	addi	tp,tp,1 # 1 <boot+0x1>
    7100:	00200293          	li	t0,2
    7104:	fe5214e3          	bne	tp,t0,70ec <test_20+0x4>
    7108:	01800793          	li	a5,24
    710c:	01400713          	li	a4,20
    7110:	2cf31e63          	bne	t1,a5,73ec <fail>

00007114 <test_21>:
    7114:	00000213          	li	tp,0
    7118:	00e00093          	li	ra,14
    711c:	00b00113          	li	sp,11
    7120:	002081b3          	add	gp,ra,sp
    7124:	00000013          	nop
    7128:	00018313          	mv	t1,gp
    712c:	00120213          	addi	tp,tp,1 # 1 <boot+0x1>
    7130:	00200293          	li	t0,2
    7134:	fe5212e3          	bne	tp,t0,7118 <test_21+0x4>
    7138:	01900793          	li	a5,25
    713c:	01500713          	li	a4,21
    7140:	2af31663          	bne	t1,a5,73ec <fail>

00007144 <test_22>:
    7144:	00000213          	li	tp,0
    7148:	00f00093          	li	ra,15
    714c:	00b00113          	li	sp,11
    7150:	002081b3          	add	gp,ra,sp
    7154:	00000013          	nop
    7158:	00000013          	nop
    715c:	00018313          	mv	t1,gp
    7160:	00120213          	addi	tp,tp,1 # 1 <boot+0x1>
    7164:	00200293          	li	t0,2
    7168:	fe5210e3          	bne	tp,t0,7148 <test_22+0x4>
    716c:	01a00793          	li	a5,26
    7170:	01600713          	li	a4,22
    7174:	26f31c63          	bne	t1,a5,73ec <fail>

00007178 <test_23>:
    7178:	00000213          	li	tp,0
    717c:	00d00093          	li	ra,13
    7180:	00b00113          	li	sp,11
    7184:	002081b3          	add	gp,ra,sp
    7188:	00120213          	addi	tp,tp,1 # 1 <boot+0x1>
    718c:	00200293          	li	t0,2
    7190:	fe5216e3          	bne	tp,t0,717c <test_23+0x4>
    7194:	01800793          	li	a5,24
    7198:	01700713          	li	a4,23
    719c:	24f19863          	bne	gp,a5,73ec <fail>

000071a0 <test_24>:
    71a0:	00000213          	li	tp,0
    71a4:	00e00093          	li	ra,14
    71a8:	00b00113          	li	sp,11
    71ac:	00000013          	nop
    71b0:	002081b3          	add	gp,ra,sp
    71b4:	00120213          	addi	tp,tp,1 # 1 <boot+0x1>
    71b8:	00200293          	li	t0,2
    71bc:	fe5214e3          	bne	tp,t0,71a4 <test_24+0x4>
    71c0:	01900793          	li	a5,25
    71c4:	01800713          	li	a4,24
    71c8:	22f19263          	bne	gp,a5,73ec <fail>

000071cc <test_25>:
    71cc:	00000213          	li	tp,0
    71d0:	00f00093          	li	ra,15
    71d4:	00b00113          	li	sp,11
    71d8:	00000013          	nop
    71dc:	00000013          	nop
    71e0:	002081b3          	add	gp,ra,sp
    71e4:	00120213          	addi	tp,tp,1 # 1 <boot+0x1>
    71e8:	00200293          	li	t0,2
    71ec:	fe5212e3          	bne	tp,t0,71d0 <test_25+0x4>
    71f0:	01a00793          	li	a5,26
    71f4:	01900713          	li	a4,25
    71f8:	1ef19a63          	bne	gp,a5,73ec <fail>

000071fc <test_26>:
    71fc:	00000213          	li	tp,0
    7200:	00d00093          	li	ra,13
    7204:	00000013          	nop
    7208:	00b00113          	li	sp,11
    720c:	002081b3          	add	gp,ra,sp
    7210:	00120213          	addi	tp,tp,1 # 1 <boot+0x1>
    7214:	00200293          	li	t0,2
    7218:	fe5214e3          	bne	tp,t0,7200 <test_26+0x4>
    721c:	01800793          	li	a5,24
    7220:	01a00713          	li	a4,26
    7224:	1cf19463          	bne	gp,a5,73ec <fail>

00007228 <test_27>:
    7228:	00000213          	li	tp,0
    722c:	00e00093          	li	ra,14
    7230:	00000013          	nop
    7234:	00b00113          	li	sp,11
    7238:	00000013          	nop
    723c:	002081b3          	add	gp,ra,sp
    7240:	00120213          	addi	tp,tp,1 # 1 <boot+0x1>
    7244:	00200293          	li	t0,2
    7248:	fe5212e3          	bne	tp,t0,722c <test_27+0x4>
    724c:	01900793          	li	a5,25
    7250:	01b00713          	li	a4,27
    7254:	18f19c63          	bne	gp,a5,73ec <fail>

00007258 <test_28>:
    7258:	00000213          	li	tp,0
    725c:	00f00093          	li	ra,15
    7260:	00000013          	nop
    7264:	00000013          	nop
    7268:	00b00113          	li	sp,11
    726c:	002081b3          	add	gp,ra,sp
    7270:	00120213          	addi	tp,tp,1 # 1 <boot+0x1>
    7274:	00200293          	li	t0,2
    7278:	fe5212e3          	bne	tp,t0,725c <test_28+0x4>
    727c:	01a00793          	li	a5,26
    7280:	01c00713          	li	a4,28
    7284:	16f19463          	bne	gp,a5,73ec <fail>

00007288 <test_29>:
    7288:	00000213          	li	tp,0
    728c:	00b00113          	li	sp,11
    7290:	00d00093          	li	ra,13
    7294:	002081b3          	add	gp,ra,sp
    7298:	00120213          	addi	tp,tp,1 # 1 <boot+0x1>
    729c:	00200293          	li	t0,2
    72a0:	fe5216e3          	bne	tp,t0,728c <test_29+0x4>
    72a4:	01800793          	li	a5,24
    72a8:	01d00713          	li	a4,29
    72ac:	14f19063          	bne	gp,a5,73ec <fail>

000072b0 <test_30>:
    72b0:	00000213          	li	tp,0
    72b4:	00b00113          	li	sp,11
    72b8:	00e00093          	li	ra,14
    72bc:	00000013          	nop
    72c0:	002081b3          	add	gp,ra,sp
    72c4:	00120213          	addi	tp,tp,1 # 1 <boot+0x1>
    72c8:	00200293          	li	t0,2
    72cc:	fe5214e3          	bne	tp,t0,72b4 <test_30+0x4>
    72d0:	01900793          	li	a5,25
    72d4:	01e00713          	li	a4,30
    72d8:	10f19a63          	bne	gp,a5,73ec <fail>

000072dc <test_31>:
    72dc:	00000213          	li	tp,0
    72e0:	00b00113          	li	sp,11
    72e4:	00f00093          	li	ra,15
    72e8:	00000013          	nop
    72ec:	00000013          	nop
    72f0:	002081b3          	add	gp,ra,sp
    72f4:	00120213          	addi	tp,tp,1 # 1 <boot+0x1>
    72f8:	00200293          	li	t0,2
    72fc:	fe5212e3          	bne	tp,t0,72e0 <test_31+0x4>
    7300:	01a00793          	li	a5,26
    7304:	01f00713          	li	a4,31
    7308:	0ef19263          	bne	gp,a5,73ec <fail>

0000730c <test_32>:
    730c:	00000213          	li	tp,0
    7310:	00b00113          	li	sp,11
    7314:	00000013          	nop
    7318:	00d00093          	li	ra,13
    731c:	002081b3          	add	gp,ra,sp
    7320:	00120213          	addi	tp,tp,1 # 1 <boot+0x1>
    7324:	00200293          	li	t0,2
    7328:	fe5214e3          	bne	tp,t0,7310 <test_32+0x4>
    732c:	01800793          	li	a5,24
    7330:	02000713          	li	a4,32
    7334:	0af19c63          	bne	gp,a5,73ec <fail>

00007338 <test_33>:
    7338:	00000213          	li	tp,0
    733c:	00b00113          	li	sp,11
    7340:	00000013          	nop
    7344:	00e00093          	li	ra,14
    7348:	00000013          	nop
    734c:	002081b3          	add	gp,ra,sp
    7350:	00120213          	addi	tp,tp,1 # 1 <boot+0x1>
    7354:	00200293          	li	t0,2
    7358:	fe5212e3          	bne	tp,t0,733c <test_33+0x4>
    735c:	01900793          	li	a5,25
    7360:	02100713          	li	a4,33
    7364:	08f19463          	bne	gp,a5,73ec <fail>

00007368 <test_34>:
    7368:	00000213          	li	tp,0
    736c:	00b00113          	li	sp,11
    7370:	00000013          	nop
    7374:	00000013          	nop
    7378:	00f00093          	li	ra,15
    737c:	002081b3          	add	gp,ra,sp
    7380:	00120213          	addi	tp,tp,1 # 1 <boot+0x1>
    7384:	00200293          	li	t0,2
    7388:	fe5212e3          	bne	tp,t0,736c <test_34+0x4>
    738c:	01a00793          	li	a5,26
    7390:	02200713          	li	a4,34
    7394:	04f19c63          	bne	gp,a5,73ec <fail>

00007398 <test_35>:
    7398:	00f00093          	li	ra,15
    739c:	00100133          	add	sp,zero,ra
    73a0:	00f00793          	li	a5,15
    73a4:	02300713          	li	a4,35
    73a8:	04f11263          	bne	sp,a5,73ec <fail>

000073ac <test_36>:
    73ac:	02000093          	li	ra,32
    73b0:	00008133          	add	sp,ra,zero
    73b4:	02000793          	li	a5,32
    73b8:	02400713          	li	a4,36
    73bc:	02f11863          	bne	sp,a5,73ec <fail>

000073c0 <test_37>:
    73c0:	000000b3          	add	ra,zero,zero
    73c4:	00000793          	li	a5,0
    73c8:	02500713          	li	a4,37
    73cc:	02f09063          	bne	ra,a5,73ec <fail>

000073d0 <test_38>:
    73d0:	01000093          	li	ra,16
    73d4:	01e00113          	li	sp,30
    73d8:	00208033          	add	zero,ra,sp
    73dc:	00000793          	li	a5,0
    73e0:	02600713          	li	a4,38
    73e4:	00f01463          	bne	zero,a5,73ec <fail>
    73e8:	00e01663          	bne	zero,a4,73f4 <pass>

000073ec <fail>:
    73ec:	cecf90ef          	jal	ra,8d8 <failure>
    73f0:	00100073          	ebreak

000073f4 <pass>:
    73f4:	00009137          	lui	sp,0x9
    73f8:	cecf90ef          	jal	ra,8e4 <OK>
    73fc:	e14f906f          	j	a10 <add_ret>

00007400 <sb>:
    7400:	00007537          	lui	a0,0x7
    7404:	42050513          	addi	a0,a0,1056 # 7420 <.test_name>

00007408 <loop>:
    7408:	e55f80ef          	jal	ra,25c <putstr>

0000740c <.prname_next>:
    740c:	00050583          	lb	a1,0(a0)
    7410:	00058a63          	beqz	a1,7424 <.prname_done>
    7414:	00b62023          	sw	a1,0(a2)
    7418:	00150513          	addi	a0,a0,1
    741c:	ff1ff06f          	j	740c <.prname_next>

00007420 <.test_name>:
    7420:	00006273          	csrrsi	tp,ustatus,0

00007424 <.prname_done>:
    7424:	02e00593          	li	a1,46
    7428:	00b62023          	sw	a1,0(a2)
    742c:	00b62023          	sw	a1,0(a2)

00007430 <test_2>:
    7430:	00001097          	auipc	ra,0x1
    7434:	0c408093          	addi	ra,ra,196 # 84f4 <tdat>
    7438:	faa00113          	li	sp,-86
    743c:	00208023          	sb	sp,0(ra)
    7440:	00008183          	lb	gp,0(ra)
    7444:	faa00793          	li	a5,-86
    7448:	00200713          	li	a4,2
    744c:	3cf19c63          	bne	gp,a5,7824 <fail>

00007450 <test_3>:
    7450:	00001097          	auipc	ra,0x1
    7454:	0a408093          	addi	ra,ra,164 # 84f4 <tdat>
    7458:	00000113          	li	sp,0
    745c:	002080a3          	sb	sp,1(ra)
    7460:	00108183          	lb	gp,1(ra)
    7464:	00000793          	li	a5,0
    7468:	00300713          	li	a4,3
    746c:	3af19c63          	bne	gp,a5,7824 <fail>

00007470 <test_4>:
    7470:	00001097          	auipc	ra,0x1
    7474:	08408093          	addi	ra,ra,132 # 84f4 <tdat>
    7478:	fffff137          	lui	sp,0xfffff
    747c:	fa010113          	addi	sp,sp,-96 # ffffefa0 <io+0x7fffefa0>
    7480:	00208123          	sb	sp,2(ra)
    7484:	00209183          	lh	gp,2(ra)
    7488:	fffff7b7          	lui	a5,0xfffff
    748c:	fa078793          	addi	a5,a5,-96 # ffffefa0 <io+0x7fffefa0>
    7490:	00400713          	li	a4,4
    7494:	38f19863          	bne	gp,a5,7824 <fail>

00007498 <test_5>:
    7498:	00001097          	auipc	ra,0x1
    749c:	05c08093          	addi	ra,ra,92 # 84f4 <tdat>
    74a0:	00a00113          	li	sp,10
    74a4:	002081a3          	sb	sp,3(ra)
    74a8:	00308183          	lb	gp,3(ra)
    74ac:	00a00793          	li	a5,10
    74b0:	00500713          	li	a4,5
    74b4:	36f19863          	bne	gp,a5,7824 <fail>

000074b8 <test_6>:
    74b8:	00001097          	auipc	ra,0x1
    74bc:	04308093          	addi	ra,ra,67 # 84fb <tdat8>
    74c0:	faa00113          	li	sp,-86
    74c4:	fe208ea3          	sb	sp,-3(ra)
    74c8:	ffd08183          	lb	gp,-3(ra)
    74cc:	faa00793          	li	a5,-86
    74d0:	00600713          	li	a4,6
    74d4:	34f19863          	bne	gp,a5,7824 <fail>

000074d8 <test_7>:
    74d8:	00001097          	auipc	ra,0x1
    74dc:	02308093          	addi	ra,ra,35 # 84fb <tdat8>
    74e0:	00000113          	li	sp,0
    74e4:	fe208f23          	sb	sp,-2(ra)
    74e8:	ffe08183          	lb	gp,-2(ra)
    74ec:	00000793          	li	a5,0
    74f0:	00700713          	li	a4,7
    74f4:	32f19863          	bne	gp,a5,7824 <fail>

000074f8 <test_8>:
    74f8:	00001097          	auipc	ra,0x1
    74fc:	00308093          	addi	ra,ra,3 # 84fb <tdat8>
    7500:	fa000113          	li	sp,-96
    7504:	fe208fa3          	sb	sp,-1(ra)
    7508:	fff08183          	lb	gp,-1(ra)
    750c:	fa000793          	li	a5,-96
    7510:	00800713          	li	a4,8
    7514:	30f19863          	bne	gp,a5,7824 <fail>

00007518 <test_9>:
    7518:	00001097          	auipc	ra,0x1
    751c:	fe308093          	addi	ra,ra,-29 # 84fb <tdat8>
    7520:	00a00113          	li	sp,10
    7524:	00208023          	sb	sp,0(ra)
    7528:	00008183          	lb	gp,0(ra)
    752c:	00a00793          	li	a5,10
    7530:	00900713          	li	a4,9
    7534:	2ef19863          	bne	gp,a5,7824 <fail>

00007538 <test_10>:
    7538:	00001097          	auipc	ra,0x1
    753c:	fc408093          	addi	ra,ra,-60 # 84fc <tdat9>
    7540:	12345137          	lui	sp,0x12345
    7544:	67810113          	addi	sp,sp,1656 # 12345678 <tdat10+0x1233d17b>
    7548:	fe008213          	addi	tp,ra,-32
    754c:	02220023          	sb	sp,32(tp) # 20 <boot+0x20>
    7550:	00008183          	lb	gp,0(ra)
    7554:	07800793          	li	a5,120
    7558:	00a00713          	li	a4,10
    755c:	2cf19463          	bne	gp,a5,7824 <fail>

00007560 <test_11>:
    7560:	00001097          	auipc	ra,0x1
    7564:	f9c08093          	addi	ra,ra,-100 # 84fc <tdat9>
    7568:	00003137          	lui	sp,0x3
    756c:	09810113          	addi	sp,sp,152 # 3098 <test_14+0x4>
    7570:	ffa08093          	addi	ra,ra,-6
    7574:	002083a3          	sb	sp,7(ra)
    7578:	00001217          	auipc	tp,0x1
    757c:	f8520213          	addi	tp,tp,-123 # 84fd <tdat10>
    7580:	00020183          	lb	gp,0(tp) # 0 <boot>
    7584:	f9800793          	li	a5,-104
    7588:	00b00713          	li	a4,11
    758c:	28f19c63          	bne	gp,a5,7824 <fail>

00007590 <test_12>:
    7590:	00c00713          	li	a4,12
    7594:	00000213          	li	tp,0
    7598:	fdd00093          	li	ra,-35
    759c:	00001117          	auipc	sp,0x1
    75a0:	f5810113          	addi	sp,sp,-168 # 84f4 <tdat>
    75a4:	00110023          	sb	ra,0(sp)
    75a8:	00010183          	lb	gp,0(sp)
    75ac:	fdd00793          	li	a5,-35
    75b0:	26f19a63          	bne	gp,a5,7824 <fail>
    75b4:	00120213          	addi	tp,tp,1 # 1 <boot+0x1>
    75b8:	00200293          	li	t0,2
    75bc:	fc521ee3          	bne	tp,t0,7598 <test_12+0x8>

000075c0 <test_13>:
    75c0:	00d00713          	li	a4,13
    75c4:	00000213          	li	tp,0
    75c8:	fcd00093          	li	ra,-51
    75cc:	00001117          	auipc	sp,0x1
    75d0:	f2810113          	addi	sp,sp,-216 # 84f4 <tdat>
    75d4:	00000013          	nop
    75d8:	001100a3          	sb	ra,1(sp)
    75dc:	00110183          	lb	gp,1(sp)
    75e0:	fcd00793          	li	a5,-51
    75e4:	24f19063          	bne	gp,a5,7824 <fail>
    75e8:	00120213          	addi	tp,tp,1 # 1 <boot+0x1>
    75ec:	00200293          	li	t0,2
    75f0:	fc521ce3          	bne	tp,t0,75c8 <test_13+0x8>

000075f4 <test_14>:
    75f4:	00e00713          	li	a4,14
    75f8:	00000213          	li	tp,0
    75fc:	fcc00093          	li	ra,-52
    7600:	00001117          	auipc	sp,0x1
    7604:	ef410113          	addi	sp,sp,-268 # 84f4 <tdat>
    7608:	00000013          	nop
    760c:	00000013          	nop
    7610:	00110123          	sb	ra,2(sp)
    7614:	00210183          	lb	gp,2(sp)
    7618:	fcc00793          	li	a5,-52
    761c:	20f19463          	bne	gp,a5,7824 <fail>
    7620:	00120213          	addi	tp,tp,1 # 1 <boot+0x1>
    7624:	00200293          	li	t0,2
    7628:	fc521ae3          	bne	tp,t0,75fc <test_14+0x8>

0000762c <test_15>:
    762c:	00f00713          	li	a4,15
    7630:	00000213          	li	tp,0
    7634:	fbc00093          	li	ra,-68
    7638:	00000013          	nop
    763c:	00001117          	auipc	sp,0x1
    7640:	eb810113          	addi	sp,sp,-328 # 84f4 <tdat>
    7644:	001101a3          	sb	ra,3(sp)
    7648:	00310183          	lb	gp,3(sp)
    764c:	fbc00793          	li	a5,-68
    7650:	1cf19a63          	bne	gp,a5,7824 <fail>
    7654:	00120213          	addi	tp,tp,1 # 1 <boot+0x1>
    7658:	00200293          	li	t0,2
    765c:	fc521ce3          	bne	tp,t0,7634 <test_15+0x8>

00007660 <test_16>:
    7660:	01000713          	li	a4,16
    7664:	00000213          	li	tp,0
    7668:	fbb00093          	li	ra,-69
    766c:	00000013          	nop
    7670:	00001117          	auipc	sp,0x1
    7674:	e8410113          	addi	sp,sp,-380 # 84f4 <tdat>
    7678:	00000013          	nop
    767c:	00110223          	sb	ra,4(sp)
    7680:	00410183          	lb	gp,4(sp)
    7684:	fbb00793          	li	a5,-69
    7688:	18f19e63          	bne	gp,a5,7824 <fail>
    768c:	00120213          	addi	tp,tp,1 # 1 <boot+0x1>
    7690:	00200293          	li	t0,2
    7694:	fc521ae3          	bne	tp,t0,7668 <test_16+0x8>

00007698 <test_17>:
    7698:	01100713          	li	a4,17
    769c:	00000213          	li	tp,0
    76a0:	fab00093          	li	ra,-85
    76a4:	00000013          	nop
    76a8:	00000013          	nop
    76ac:	00001117          	auipc	sp,0x1
    76b0:	e4810113          	addi	sp,sp,-440 # 84f4 <tdat>
    76b4:	001102a3          	sb	ra,5(sp)
    76b8:	00510183          	lb	gp,5(sp)
    76bc:	fab00793          	li	a5,-85
    76c0:	16f19263          	bne	gp,a5,7824 <fail>
    76c4:	00120213          	addi	tp,tp,1 # 1 <boot+0x1>
    76c8:	00200293          	li	t0,2
    76cc:	fc521ae3          	bne	tp,t0,76a0 <test_17+0x8>

000076d0 <test_18>:
    76d0:	01200713          	li	a4,18
    76d4:	00000213          	li	tp,0
    76d8:	00001117          	auipc	sp,0x1
    76dc:	e1c10113          	addi	sp,sp,-484 # 84f4 <tdat>
    76e0:	03300093          	li	ra,51
    76e4:	00110023          	sb	ra,0(sp)
    76e8:	00010183          	lb	gp,0(sp)
    76ec:	03300793          	li	a5,51
    76f0:	12f19a63          	bne	gp,a5,7824 <fail>
    76f4:	00120213          	addi	tp,tp,1 # 1 <boot+0x1>
    76f8:	00200293          	li	t0,2
    76fc:	fc521ee3          	bne	tp,t0,76d8 <test_18+0x8>

00007700 <test_19>:
    7700:	01300713          	li	a4,19
    7704:	00000213          	li	tp,0
    7708:	00001117          	auipc	sp,0x1
    770c:	dec10113          	addi	sp,sp,-532 # 84f4 <tdat>
    7710:	02300093          	li	ra,35
    7714:	00000013          	nop
    7718:	001100a3          	sb	ra,1(sp)
    771c:	00110183          	lb	gp,1(sp)
    7720:	02300793          	li	a5,35
    7724:	10f19063          	bne	gp,a5,7824 <fail>
    7728:	00120213          	addi	tp,tp,1 # 1 <boot+0x1>
    772c:	00200293          	li	t0,2
    7730:	fc521ce3          	bne	tp,t0,7708 <test_19+0x8>

00007734 <test_20>:
    7734:	01400713          	li	a4,20
    7738:	00000213          	li	tp,0
    773c:	00001117          	auipc	sp,0x1
    7740:	db810113          	addi	sp,sp,-584 # 84f4 <tdat>
    7744:	02200093          	li	ra,34
    7748:	00000013          	nop
    774c:	00000013          	nop
    7750:	00110123          	sb	ra,2(sp)
    7754:	00210183          	lb	gp,2(sp)
    7758:	02200793          	li	a5,34
    775c:	0cf19463          	bne	gp,a5,7824 <fail>
    7760:	00120213          	addi	tp,tp,1 # 1 <boot+0x1>
    7764:	00200293          	li	t0,2
    7768:	fc521ae3          	bne	tp,t0,773c <test_20+0x8>

0000776c <test_21>:
    776c:	01500713          	li	a4,21
    7770:	00000213          	li	tp,0
    7774:	00001117          	auipc	sp,0x1
    7778:	d8010113          	addi	sp,sp,-640 # 84f4 <tdat>
    777c:	00000013          	nop
    7780:	01200093          	li	ra,18
    7784:	001101a3          	sb	ra,3(sp)
    7788:	00310183          	lb	gp,3(sp)
    778c:	01200793          	li	a5,18
    7790:	08f19a63          	bne	gp,a5,7824 <fail>
    7794:	00120213          	addi	tp,tp,1 # 1 <boot+0x1>
    7798:	00200293          	li	t0,2
    779c:	fc521ce3          	bne	tp,t0,7774 <test_21+0x8>

000077a0 <test_22>:
    77a0:	01600713          	li	a4,22
    77a4:	00000213          	li	tp,0
    77a8:	00001117          	auipc	sp,0x1
    77ac:	d4c10113          	addi	sp,sp,-692 # 84f4 <tdat>
    77b0:	00000013          	nop
    77b4:	01100093          	li	ra,17
    77b8:	00000013          	nop
    77bc:	00110223          	sb	ra,4(sp)
    77c0:	00410183          	lb	gp,4(sp)
    77c4:	01100793          	li	a5,17
    77c8:	04f19e63          	bne	gp,a5,7824 <fail>
    77cc:	00120213          	addi	tp,tp,1 # 1 <boot+0x1>
    77d0:	00200293          	li	t0,2
    77d4:	fc521ae3          	bne	tp,t0,77a8 <test_22+0x8>

000077d8 <test_23>:
    77d8:	01700713          	li	a4,23
    77dc:	00000213          	li	tp,0
    77e0:	00001117          	auipc	sp,0x1
    77e4:	d1410113          	addi	sp,sp,-748 # 84f4 <tdat>
    77e8:	00000013          	nop
    77ec:	00000013          	nop
    77f0:	00100093          	li	ra,1
    77f4:	001102a3          	sb	ra,5(sp)
    77f8:	00510183          	lb	gp,5(sp)
    77fc:	00100793          	li	a5,1
    7800:	02f19263          	bne	gp,a5,7824 <fail>
    7804:	00120213          	addi	tp,tp,1 # 1 <boot+0x1>
    7808:	00200293          	li	t0,2
    780c:	fc521ae3          	bne	tp,t0,77e0 <test_23+0x8>
    7810:	0ef00513          	li	a0,239
    7814:	00001597          	auipc	a1,0x1
    7818:	ce058593          	addi	a1,a1,-800 # 84f4 <tdat>
    781c:	00a581a3          	sb	a0,3(a1)
    7820:	00e01663          	bne	zero,a4,782c <pass>

00007824 <fail>:
    7824:	8b4f90ef          	jal	ra,8d8 <failure>
    7828:	00100073          	ebreak

0000782c <pass>:
    782c:	00009137          	lui	sp,0x9
    7830:	8b4f90ef          	jal	ra,8e4 <OK>
    7834:	984f906f          	j	9b8 <sb_ret>

00007838 <andi>:
    7838:	00008537          	lui	a0,0x8
    783c:	85850513          	addi	a0,a0,-1960 # 7858 <.test_name>

00007840 <loop>:
    7840:	a1df80ef          	jal	ra,25c <putstr>

00007844 <.prname_next>:
    7844:	00050583          	lb	a1,0(a0)
    7848:	00058c63          	beqz	a1,7860 <.prname_done>
    784c:	00b62023          	sw	a1,0(a2)
    7850:	00150513          	addi	a0,a0,1
    7854:	ff1ff06f          	j	7844 <.prname_next>

00007858 <.test_name>:
    7858:	6e61                	lui	t3,0x18
    785a:	6964                	flw	fs1,84(a0)
    785c:	0000                	unimp
	...

00007860 <.prname_done>:
    7860:	02e00593          	li	a1,46
    7864:	00b62023          	sw	a1,0(a2)
    7868:	00b62023          	sw	a1,0(a2)

0000786c <test_2>:
    786c:	ff0100b7          	lui	ra,0xff010
    7870:	f0008093          	addi	ra,ra,-256 # ff00ff00 <io+0x7f00ff00>
    7874:	f0f0f193          	andi	gp,ra,-241
    7878:	ff0107b7          	lui	a5,0xff010
    787c:	f0078793          	addi	a5,a5,-256 # ff00ff00 <io+0x7f00ff00>
    7880:	00200713          	li	a4,2
    7884:	1af19463          	bne	gp,a5,7a2c <fail>

00007888 <test_3>:
    7888:	0ff010b7          	lui	ra,0xff01
    788c:	ff008093          	addi	ra,ra,-16 # ff00ff0 <tdat10+0xfef8af3>
    7890:	0f00f193          	andi	gp,ra,240
    7894:	0f000793          	li	a5,240
    7898:	00300713          	li	a4,3
    789c:	18f19863          	bne	gp,a5,7a2c <fail>

000078a0 <test_4>:
    78a0:	00ff00b7          	lui	ra,0xff0
    78a4:	0ff08093          	addi	ra,ra,255 # ff00ff <tdat10+0xfe7c02>
    78a8:	70f0f193          	andi	gp,ra,1807
    78ac:	00f00793          	li	a5,15
    78b0:	00400713          	li	a4,4
    78b4:	16f19c63          	bne	gp,a5,7a2c <fail>

000078b8 <test_5>:
    78b8:	f00ff0b7          	lui	ra,0xf00ff
    78bc:	00f08093          	addi	ra,ra,15 # f00ff00f <io+0x700ff00f>
    78c0:	0f00f193          	andi	gp,ra,240
    78c4:	00000793          	li	a5,0
    78c8:	00500713          	li	a4,5
    78cc:	16f19063          	bne	gp,a5,7a2c <fail>

000078d0 <test_6>:
    78d0:	ff0100b7          	lui	ra,0xff010
    78d4:	f0008093          	addi	ra,ra,-256 # ff00ff00 <io+0x7f00ff00>
    78d8:	0f00f093          	andi	ra,ra,240
    78dc:	00000793          	li	a5,0
    78e0:	00600713          	li	a4,6
    78e4:	14f09463          	bne	ra,a5,7a2c <fail>

000078e8 <test_7>:
    78e8:	00000213          	li	tp,0
    78ec:	0ff010b7          	lui	ra,0xff01
    78f0:	ff008093          	addi	ra,ra,-16 # ff00ff0 <tdat10+0xfef8af3>
    78f4:	70f0f193          	andi	gp,ra,1807
    78f8:	00018313          	mv	t1,gp
    78fc:	00120213          	addi	tp,tp,1 # 1 <boot+0x1>
    7900:	00200293          	li	t0,2
    7904:	fe5214e3          	bne	tp,t0,78ec <test_7+0x4>
    7908:	70000793          	li	a5,1792
    790c:	00700713          	li	a4,7
    7910:	10f31e63          	bne	t1,a5,7a2c <fail>

00007914 <test_8>:
    7914:	00000213          	li	tp,0
    7918:	00ff00b7          	lui	ra,0xff0
    791c:	0ff08093          	addi	ra,ra,255 # ff00ff <tdat10+0xfe7c02>
    7920:	0f00f193          	andi	gp,ra,240
    7924:	00000013          	nop
    7928:	00018313          	mv	t1,gp
    792c:	00120213          	addi	tp,tp,1 # 1 <boot+0x1>
    7930:	00200293          	li	t0,2
    7934:	fe5212e3          	bne	tp,t0,7918 <test_8+0x4>
    7938:	0f000793          	li	a5,240
    793c:	00800713          	li	a4,8
    7940:	0ef31663          	bne	t1,a5,7a2c <fail>

00007944 <test_9>:
    7944:	00000213          	li	tp,0
    7948:	f00ff0b7          	lui	ra,0xf00ff
    794c:	00f08093          	addi	ra,ra,15 # f00ff00f <io+0x700ff00f>
    7950:	f0f0f193          	andi	gp,ra,-241
    7954:	00000013          	nop
    7958:	00000013          	nop
    795c:	00018313          	mv	t1,gp
    7960:	00120213          	addi	tp,tp,1 # 1 <boot+0x1>
    7964:	00200293          	li	t0,2
    7968:	fe5210e3          	bne	tp,t0,7948 <test_9+0x4>
    796c:	f00ff7b7          	lui	a5,0xf00ff
    7970:	00f78793          	addi	a5,a5,15 # f00ff00f <io+0x700ff00f>
    7974:	00900713          	li	a4,9
    7978:	0af31a63          	bne	t1,a5,7a2c <fail>

0000797c <test_10>:
    797c:	00000213          	li	tp,0
    7980:	0ff010b7          	lui	ra,0xff01
    7984:	ff008093          	addi	ra,ra,-16 # ff00ff0 <tdat10+0xfef8af3>
    7988:	70f0f193          	andi	gp,ra,1807
    798c:	00120213          	addi	tp,tp,1 # 1 <boot+0x1>
    7990:	00200293          	li	t0,2
    7994:	fe5216e3          	bne	tp,t0,7980 <test_10+0x4>
    7998:	70000793          	li	a5,1792
    799c:	00a00713          	li	a4,10
    79a0:	08f19663          	bne	gp,a5,7a2c <fail>

000079a4 <test_11>:
    79a4:	00000213          	li	tp,0
    79a8:	00ff00b7          	lui	ra,0xff0
    79ac:	0ff08093          	addi	ra,ra,255 # ff00ff <tdat10+0xfe7c02>
    79b0:	00000013          	nop
    79b4:	0f00f193          	andi	gp,ra,240
    79b8:	00120213          	addi	tp,tp,1 # 1 <boot+0x1>
    79bc:	00200293          	li	t0,2
    79c0:	fe5214e3          	bne	tp,t0,79a8 <test_11+0x4>
    79c4:	0f000793          	li	a5,240
    79c8:	00b00713          	li	a4,11
    79cc:	06f19063          	bne	gp,a5,7a2c <fail>

000079d0 <test_12>:
    79d0:	00000213          	li	tp,0
    79d4:	f00ff0b7          	lui	ra,0xf00ff
    79d8:	00f08093          	addi	ra,ra,15 # f00ff00f <io+0x700ff00f>
    79dc:	00000013          	nop
    79e0:	00000013          	nop
    79e4:	70f0f193          	andi	gp,ra,1807
    79e8:	00120213          	addi	tp,tp,1 # 1 <boot+0x1>
    79ec:	00200293          	li	t0,2
    79f0:	fe5212e3          	bne	tp,t0,79d4 <test_12+0x4>
    79f4:	00f00793          	li	a5,15
    79f8:	00c00713          	li	a4,12
    79fc:	02f19863          	bne	gp,a5,7a2c <fail>

00007a00 <test_13>:
    7a00:	0f007093          	andi	ra,zero,240
    7a04:	00000793          	li	a5,0
    7a08:	00d00713          	li	a4,13
    7a0c:	02f09063          	bne	ra,a5,7a2c <fail>

00007a10 <test_14>:
    7a10:	00ff00b7          	lui	ra,0xff0
    7a14:	0ff08093          	addi	ra,ra,255 # ff00ff <tdat10+0xfe7c02>
    7a18:	70f0f013          	andi	zero,ra,1807
    7a1c:	00000793          	li	a5,0
    7a20:	00e00713          	li	a4,14
    7a24:	00f01463          	bne	zero,a5,7a2c <fail>
    7a28:	00e01663          	bne	zero,a4,7a34 <pass>

00007a2c <fail>:
    7a2c:	eadf80ef          	jal	ra,8d8 <failure>
    7a30:	00100073          	ebreak

00007a34 <pass>:
    7a34:	00009137          	lui	sp,0x9
    7a38:	eadf80ef          	jal	ra,8e4 <OK>
    7a3c:	fb5f806f          	j	9f0 <andi_ret>

00007a40 <j>:
    7a40:	00008537          	lui	a0,0x8
    7a44:	a6050513          	addi	a0,a0,-1440 # 7a60 <.test_name>

00007a48 <loop>:
    7a48:	815f80ef          	jal	ra,25c <putstr>

00007a4c <.prname_next>:
    7a4c:	00050583          	lb	a1,0(a0)
    7a50:	00058a63          	beqz	a1,7a64 <.prname_done>
    7a54:	00b62023          	sw	a1,0(a2)
    7a58:	00150513          	addi	a0,a0,1
    7a5c:	ff1ff06f          	j	7a4c <.prname_next>

00007a60 <.test_name>:
    7a60:	006a                	c.slli	zero,0x1a
	...

00007a64 <.prname_done>:
    7a64:	02e00593          	li	a1,46
    7a68:	00b62023          	sw	a1,0(a2)
    7a6c:	00b62023          	sw	a1,0(a2)
    7a70:	00200713          	li	a4,2
    7a74:	0080006f          	j	7a7c <test_2>
    7a78:	0340006f          	j	7aac <fail>

00007a7c <test_2>:
    7a7c:	00100093          	li	ra,1
    7a80:	0140006f          	j	7a94 <test_2+0x18>
    7a84:	00108093          	addi	ra,ra,1
    7a88:	00108093          	addi	ra,ra,1
    7a8c:	00108093          	addi	ra,ra,1
    7a90:	00108093          	addi	ra,ra,1
    7a94:	00108093          	addi	ra,ra,1
    7a98:	00108093          	addi	ra,ra,1
    7a9c:	00300793          	li	a5,3
    7aa0:	00300713          	li	a4,3
    7aa4:	00f09463          	bne	ra,a5,7aac <fail>
    7aa8:	00e01663          	bne	zero,a4,7ab4 <pass>

00007aac <fail>:
    7aac:	e2df80ef          	jal	ra,8d8 <failure>
    7ab0:	00100073          	ebreak

00007ab4 <pass>:
    7ab4:	00009137          	lui	sp,0x9
    7ab8:	e2df80ef          	jal	ra,8e4 <OK>
    7abc:	e8df806f          	j	948 <j_ret>

00007ac0 <bge>:
    7ac0:	00008537          	lui	a0,0x8
    7ac4:	ae050513          	addi	a0,a0,-1312 # 7ae0 <.test_name>

00007ac8 <loop>:
    7ac8:	f94f80ef          	jal	ra,25c <putstr>

00007acc <.prname_next>:
    7acc:	00050583          	lb	a1,0(a0)
    7ad0:	00058a63          	beqz	a1,7ae4 <.prname_done>
    7ad4:	00b62023          	sw	a1,0(a2)
    7ad8:	00150513          	addi	a0,a0,1
    7adc:	ff1ff06f          	j	7acc <.prname_next>

00007ae0 <.test_name>:
    7ae0:	6762                	flw	fa4,24(sp)
    7ae2:	0065                	c.nop	25

00007ae4 <.prname_done>:
    7ae4:	02e00593          	li	a1,46
    7ae8:	00b62023          	sw	a1,0(a2)
    7aec:	00b62023          	sw	a1,0(a2)

00007af0 <test_2>:
    7af0:	00200713          	li	a4,2
    7af4:	00000093          	li	ra,0
    7af8:	00000113          	li	sp,0
    7afc:	0020d663          	bge	ra,sp,7b08 <test_2+0x18>
    7b00:	30e01863          	bne	zero,a4,7e10 <fail>
    7b04:	00e01663          	bne	zero,a4,7b10 <test_3>
    7b08:	fe20dee3          	bge	ra,sp,7b04 <test_2+0x14>
    7b0c:	30e01263          	bne	zero,a4,7e10 <fail>

00007b10 <test_3>:
    7b10:	00300713          	li	a4,3
    7b14:	00100093          	li	ra,1
    7b18:	00100113          	li	sp,1
    7b1c:	0020d663          	bge	ra,sp,7b28 <test_3+0x18>
    7b20:	2ee01863          	bne	zero,a4,7e10 <fail>
    7b24:	00e01663          	bne	zero,a4,7b30 <test_4>
    7b28:	fe20dee3          	bge	ra,sp,7b24 <test_3+0x14>
    7b2c:	2ee01263          	bne	zero,a4,7e10 <fail>

00007b30 <test_4>:
    7b30:	00400713          	li	a4,4
    7b34:	fff00093          	li	ra,-1
    7b38:	fff00113          	li	sp,-1
    7b3c:	0020d663          	bge	ra,sp,7b48 <test_4+0x18>
    7b40:	2ce01863          	bne	zero,a4,7e10 <fail>
    7b44:	00e01663          	bne	zero,a4,7b50 <test_5>
    7b48:	fe20dee3          	bge	ra,sp,7b44 <test_4+0x14>
    7b4c:	2ce01263          	bne	zero,a4,7e10 <fail>

00007b50 <test_5>:
    7b50:	00500713          	li	a4,5
    7b54:	00100093          	li	ra,1
    7b58:	00000113          	li	sp,0
    7b5c:	0020d663          	bge	ra,sp,7b68 <test_5+0x18>
    7b60:	2ae01863          	bne	zero,a4,7e10 <fail>
    7b64:	00e01663          	bne	zero,a4,7b70 <test_6>
    7b68:	fe20dee3          	bge	ra,sp,7b64 <test_5+0x14>
    7b6c:	2ae01263          	bne	zero,a4,7e10 <fail>

00007b70 <test_6>:
    7b70:	00600713          	li	a4,6
    7b74:	00100093          	li	ra,1
    7b78:	fff00113          	li	sp,-1
    7b7c:	0020d663          	bge	ra,sp,7b88 <test_6+0x18>
    7b80:	28e01863          	bne	zero,a4,7e10 <fail>
    7b84:	00e01663          	bne	zero,a4,7b90 <test_7>
    7b88:	fe20dee3          	bge	ra,sp,7b84 <test_6+0x14>
    7b8c:	28e01263          	bne	zero,a4,7e10 <fail>

00007b90 <test_7>:
    7b90:	00700713          	li	a4,7
    7b94:	fff00093          	li	ra,-1
    7b98:	ffe00113          	li	sp,-2
    7b9c:	0020d663          	bge	ra,sp,7ba8 <test_7+0x18>
    7ba0:	26e01863          	bne	zero,a4,7e10 <fail>
    7ba4:	00e01663          	bne	zero,a4,7bb0 <test_8>
    7ba8:	fe20dee3          	bge	ra,sp,7ba4 <test_7+0x14>
    7bac:	26e01263          	bne	zero,a4,7e10 <fail>

00007bb0 <test_8>:
    7bb0:	00800713          	li	a4,8
    7bb4:	00000093          	li	ra,0
    7bb8:	00100113          	li	sp,1
    7bbc:	0020d463          	bge	ra,sp,7bc4 <test_8+0x14>
    7bc0:	00e01463          	bne	zero,a4,7bc8 <test_8+0x18>
    7bc4:	24e01663          	bne	zero,a4,7e10 <fail>
    7bc8:	fe20dee3          	bge	ra,sp,7bc4 <test_8+0x14>

00007bcc <test_9>:
    7bcc:	00900713          	li	a4,9
    7bd0:	fff00093          	li	ra,-1
    7bd4:	00100113          	li	sp,1
    7bd8:	0020d463          	bge	ra,sp,7be0 <test_9+0x14>
    7bdc:	00e01463          	bne	zero,a4,7be4 <test_9+0x18>
    7be0:	22e01863          	bne	zero,a4,7e10 <fail>
    7be4:	fe20dee3          	bge	ra,sp,7be0 <test_9+0x14>

00007be8 <test_10>:
    7be8:	00a00713          	li	a4,10
    7bec:	ffe00093          	li	ra,-2
    7bf0:	fff00113          	li	sp,-1
    7bf4:	0020d463          	bge	ra,sp,7bfc <test_10+0x14>
    7bf8:	00e01463          	bne	zero,a4,7c00 <test_10+0x18>
    7bfc:	20e01a63          	bne	zero,a4,7e10 <fail>
    7c00:	fe20dee3          	bge	ra,sp,7bfc <test_10+0x14>

00007c04 <test_11>:
    7c04:	00b00713          	li	a4,11
    7c08:	ffe00093          	li	ra,-2
    7c0c:	00100113          	li	sp,1
    7c10:	0020d463          	bge	ra,sp,7c18 <test_11+0x14>
    7c14:	00e01463          	bne	zero,a4,7c1c <test_11+0x18>
    7c18:	1ee01c63          	bne	zero,a4,7e10 <fail>
    7c1c:	fe20dee3          	bge	ra,sp,7c18 <test_11+0x14>

00007c20 <test_12>:
    7c20:	00c00713          	li	a4,12
    7c24:	00000213          	li	tp,0
    7c28:	fff00093          	li	ra,-1
    7c2c:	00000113          	li	sp,0
    7c30:	1e20d063          	bge	ra,sp,7e10 <fail>
    7c34:	00120213          	addi	tp,tp,1 # 1 <boot+0x1>
    7c38:	00200293          	li	t0,2
    7c3c:	fe5216e3          	bne	tp,t0,7c28 <test_12+0x8>

00007c40 <test_13>:
    7c40:	00d00713          	li	a4,13
    7c44:	00000213          	li	tp,0
    7c48:	fff00093          	li	ra,-1
    7c4c:	00000113          	li	sp,0
    7c50:	00000013          	nop
    7c54:	1a20de63          	bge	ra,sp,7e10 <fail>
    7c58:	00120213          	addi	tp,tp,1 # 1 <boot+0x1>
    7c5c:	00200293          	li	t0,2
    7c60:	fe5214e3          	bne	tp,t0,7c48 <test_13+0x8>

00007c64 <test_14>:
    7c64:	00e00713          	li	a4,14
    7c68:	00000213          	li	tp,0
    7c6c:	fff00093          	li	ra,-1
    7c70:	00000113          	li	sp,0
    7c74:	00000013          	nop
    7c78:	00000013          	nop
    7c7c:	1820da63          	bge	ra,sp,7e10 <fail>
    7c80:	00120213          	addi	tp,tp,1 # 1 <boot+0x1>
    7c84:	00200293          	li	t0,2
    7c88:	fe5212e3          	bne	tp,t0,7c6c <test_14+0x8>

00007c8c <test_15>:
    7c8c:	00f00713          	li	a4,15
    7c90:	00000213          	li	tp,0
    7c94:	fff00093          	li	ra,-1
    7c98:	00000013          	nop
    7c9c:	00000113          	li	sp,0
    7ca0:	1620d863          	bge	ra,sp,7e10 <fail>
    7ca4:	00120213          	addi	tp,tp,1 # 1 <boot+0x1>
    7ca8:	00200293          	li	t0,2
    7cac:	fe5214e3          	bne	tp,t0,7c94 <test_15+0x8>

00007cb0 <test_16>:
    7cb0:	01000713          	li	a4,16
    7cb4:	00000213          	li	tp,0
    7cb8:	fff00093          	li	ra,-1
    7cbc:	00000013          	nop
    7cc0:	00000113          	li	sp,0
    7cc4:	00000013          	nop
    7cc8:	1420d463          	bge	ra,sp,7e10 <fail>
    7ccc:	00120213          	addi	tp,tp,1 # 1 <boot+0x1>
    7cd0:	00200293          	li	t0,2
    7cd4:	fe5212e3          	bne	tp,t0,7cb8 <test_16+0x8>

00007cd8 <test_17>:
    7cd8:	01100713          	li	a4,17
    7cdc:	00000213          	li	tp,0
    7ce0:	fff00093          	li	ra,-1
    7ce4:	00000013          	nop
    7ce8:	00000013          	nop
    7cec:	00000113          	li	sp,0
    7cf0:	1220d063          	bge	ra,sp,7e10 <fail>
    7cf4:	00120213          	addi	tp,tp,1 # 1 <boot+0x1>
    7cf8:	00200293          	li	t0,2
    7cfc:	fe5212e3          	bne	tp,t0,7ce0 <test_17+0x8>

00007d00 <test_18>:
    7d00:	01200713          	li	a4,18
    7d04:	00000213          	li	tp,0
    7d08:	fff00093          	li	ra,-1
    7d0c:	00000113          	li	sp,0
    7d10:	1020d063          	bge	ra,sp,7e10 <fail>
    7d14:	00120213          	addi	tp,tp,1 # 1 <boot+0x1>
    7d18:	00200293          	li	t0,2
    7d1c:	fe5216e3          	bne	tp,t0,7d08 <test_18+0x8>

00007d20 <test_19>:
    7d20:	01300713          	li	a4,19
    7d24:	00000213          	li	tp,0
    7d28:	fff00093          	li	ra,-1
    7d2c:	00000113          	li	sp,0
    7d30:	00000013          	nop
    7d34:	0c20de63          	bge	ra,sp,7e10 <fail>
    7d38:	00120213          	addi	tp,tp,1 # 1 <boot+0x1>
    7d3c:	00200293          	li	t0,2
    7d40:	fe5214e3          	bne	tp,t0,7d28 <test_19+0x8>

00007d44 <test_20>:
    7d44:	01400713          	li	a4,20
    7d48:	00000213          	li	tp,0
    7d4c:	fff00093          	li	ra,-1
    7d50:	00000113          	li	sp,0
    7d54:	00000013          	nop
    7d58:	00000013          	nop
    7d5c:	0a20da63          	bge	ra,sp,7e10 <fail>
    7d60:	00120213          	addi	tp,tp,1 # 1 <boot+0x1>
    7d64:	00200293          	li	t0,2
    7d68:	fe5212e3          	bne	tp,t0,7d4c <test_20+0x8>

00007d6c <test_21>:
    7d6c:	01500713          	li	a4,21
    7d70:	00000213          	li	tp,0
    7d74:	fff00093          	li	ra,-1
    7d78:	00000013          	nop
    7d7c:	00000113          	li	sp,0
    7d80:	0820d863          	bge	ra,sp,7e10 <fail>
    7d84:	00120213          	addi	tp,tp,1 # 1 <boot+0x1>
    7d88:	00200293          	li	t0,2
    7d8c:	fe5214e3          	bne	tp,t0,7d74 <test_21+0x8>

00007d90 <test_22>:
    7d90:	01600713          	li	a4,22
    7d94:	00000213          	li	tp,0
    7d98:	fff00093          	li	ra,-1
    7d9c:	00000013          	nop
    7da0:	00000113          	li	sp,0
    7da4:	00000013          	nop
    7da8:	0620d463          	bge	ra,sp,7e10 <fail>
    7dac:	00120213          	addi	tp,tp,1 # 1 <boot+0x1>
    7db0:	00200293          	li	t0,2
    7db4:	fe5212e3          	bne	tp,t0,7d98 <test_22+0x8>

00007db8 <test_23>:
    7db8:	01700713          	li	a4,23
    7dbc:	00000213          	li	tp,0
    7dc0:	fff00093          	li	ra,-1
    7dc4:	00000013          	nop
    7dc8:	00000013          	nop
    7dcc:	00000113          	li	sp,0
    7dd0:	0420d063          	bge	ra,sp,7e10 <fail>
    7dd4:	00120213          	addi	tp,tp,1 # 1 <boot+0x1>
    7dd8:	00200293          	li	t0,2
    7ddc:	fe5212e3          	bne	tp,t0,7dc0 <test_23+0x8>

00007de0 <test_24>:
    7de0:	00100093          	li	ra,1
    7de4:	0000da63          	bgez	ra,7df8 <test_24+0x18>
    7de8:	00108093          	addi	ra,ra,1
    7dec:	00108093          	addi	ra,ra,1
    7df0:	00108093          	addi	ra,ra,1
    7df4:	00108093          	addi	ra,ra,1
    7df8:	00108093          	addi	ra,ra,1
    7dfc:	00108093          	addi	ra,ra,1
    7e00:	00300793          	li	a5,3
    7e04:	01800713          	li	a4,24
    7e08:	00f09463          	bne	ra,a5,7e10 <fail>
    7e0c:	00e01663          	bne	zero,a4,7e18 <pass>

00007e10 <fail>:
    7e10:	ac9f80ef          	jal	ra,8d8 <failure>
    7e14:	00100073          	ebreak

00007e18 <pass>:
    7e18:	00009137          	lui	sp,0x9
    7e1c:	ac9f80ef          	jal	ra,8e4 <OK>
    7e20:	b59f806f          	j	978 <bge_ret>

00007e24 <blt>:
    7e24:	00008537          	lui	a0,0x8
    7e28:	e4450513          	addi	a0,a0,-444 # 7e44 <.test_name>

00007e2c <loop>:
    7e2c:	c30f80ef          	jal	ra,25c <putstr>

00007e30 <.prname_next>:
    7e30:	00050583          	lb	a1,0(a0)
    7e34:	00058a63          	beqz	a1,7e48 <.prname_done>
    7e38:	00b62023          	sw	a1,0(a2)
    7e3c:	00150513          	addi	a0,a0,1
    7e40:	ff1ff06f          	j	7e30 <.prname_next>

00007e44 <.test_name>:
    7e44:	6c62                	flw	fs8,24(sp)
    7e46:	0074                	addi	a3,sp,12

00007e48 <.prname_done>:
    7e48:	02e00593          	li	a1,46
    7e4c:	00b62023          	sw	a1,0(a2)
    7e50:	00b62023          	sw	a1,0(a2)

00007e54 <test_2>:
    7e54:	00200713          	li	a4,2
    7e58:	00000093          	li	ra,0
    7e5c:	00100113          	li	sp,1
    7e60:	0020c663          	blt	ra,sp,7e6c <test_2+0x18>
    7e64:	2ae01863          	bne	zero,a4,8114 <fail>
    7e68:	00e01663          	bne	zero,a4,7e74 <test_3>
    7e6c:	fe20cee3          	blt	ra,sp,7e68 <test_2+0x14>
    7e70:	2ae01263          	bne	zero,a4,8114 <fail>

00007e74 <test_3>:
    7e74:	00300713          	li	a4,3
    7e78:	fff00093          	li	ra,-1
    7e7c:	00100113          	li	sp,1
    7e80:	0020c663          	blt	ra,sp,7e8c <test_3+0x18>
    7e84:	28e01863          	bne	zero,a4,8114 <fail>
    7e88:	00e01663          	bne	zero,a4,7e94 <test_4>
    7e8c:	fe20cee3          	blt	ra,sp,7e88 <test_3+0x14>
    7e90:	28e01263          	bne	zero,a4,8114 <fail>

00007e94 <test_4>:
    7e94:	00400713          	li	a4,4
    7e98:	ffe00093          	li	ra,-2
    7e9c:	fff00113          	li	sp,-1
    7ea0:	0020c663          	blt	ra,sp,7eac <test_4+0x18>
    7ea4:	26e01863          	bne	zero,a4,8114 <fail>
    7ea8:	00e01663          	bne	zero,a4,7eb4 <test_5>
    7eac:	fe20cee3          	blt	ra,sp,7ea8 <test_4+0x14>
    7eb0:	26e01263          	bne	zero,a4,8114 <fail>

00007eb4 <test_5>:
    7eb4:	00500713          	li	a4,5
    7eb8:	00100093          	li	ra,1
    7ebc:	00000113          	li	sp,0
    7ec0:	0020c463          	blt	ra,sp,7ec8 <test_5+0x14>
    7ec4:	00e01463          	bne	zero,a4,7ecc <test_5+0x18>
    7ec8:	24e01663          	bne	zero,a4,8114 <fail>
    7ecc:	fe20cee3          	blt	ra,sp,7ec8 <test_5+0x14>

00007ed0 <test_6>:
    7ed0:	00600713          	li	a4,6
    7ed4:	00100093          	li	ra,1
    7ed8:	fff00113          	li	sp,-1
    7edc:	0020c463          	blt	ra,sp,7ee4 <test_6+0x14>
    7ee0:	00e01463          	bne	zero,a4,7ee8 <test_6+0x18>
    7ee4:	22e01863          	bne	zero,a4,8114 <fail>
    7ee8:	fe20cee3          	blt	ra,sp,7ee4 <test_6+0x14>

00007eec <test_7>:
    7eec:	00700713          	li	a4,7
    7ef0:	fff00093          	li	ra,-1
    7ef4:	ffe00113          	li	sp,-2
    7ef8:	0020c463          	blt	ra,sp,7f00 <test_7+0x14>
    7efc:	00e01463          	bne	zero,a4,7f04 <test_7+0x18>
    7f00:	20e01a63          	bne	zero,a4,8114 <fail>
    7f04:	fe20cee3          	blt	ra,sp,7f00 <test_7+0x14>

00007f08 <test_8>:
    7f08:	00800713          	li	a4,8
    7f0c:	00100093          	li	ra,1
    7f10:	ffe00113          	li	sp,-2
    7f14:	0020c463          	blt	ra,sp,7f1c <test_8+0x14>
    7f18:	00e01463          	bne	zero,a4,7f20 <test_8+0x18>
    7f1c:	1ee01c63          	bne	zero,a4,8114 <fail>
    7f20:	fe20cee3          	blt	ra,sp,7f1c <test_8+0x14>

00007f24 <test_9>:
    7f24:	00900713          	li	a4,9
    7f28:	00000213          	li	tp,0
    7f2c:	00000093          	li	ra,0
    7f30:	fff00113          	li	sp,-1
    7f34:	1e20c063          	blt	ra,sp,8114 <fail>
    7f38:	00120213          	addi	tp,tp,1 # 1 <boot+0x1>
    7f3c:	00200293          	li	t0,2
    7f40:	fe5216e3          	bne	tp,t0,7f2c <test_9+0x8>

00007f44 <test_10>:
    7f44:	00a00713          	li	a4,10
    7f48:	00000213          	li	tp,0
    7f4c:	00000093          	li	ra,0
    7f50:	fff00113          	li	sp,-1
    7f54:	00000013          	nop
    7f58:	1a20ce63          	blt	ra,sp,8114 <fail>
    7f5c:	00120213          	addi	tp,tp,1 # 1 <boot+0x1>
    7f60:	00200293          	li	t0,2
    7f64:	fe5214e3          	bne	tp,t0,7f4c <test_10+0x8>

00007f68 <test_11>:
    7f68:	00b00713          	li	a4,11
    7f6c:	00000213          	li	tp,0
    7f70:	00000093          	li	ra,0
    7f74:	fff00113          	li	sp,-1
    7f78:	00000013          	nop
    7f7c:	00000013          	nop
    7f80:	1820ca63          	blt	ra,sp,8114 <fail>
    7f84:	00120213          	addi	tp,tp,1 # 1 <boot+0x1>
    7f88:	00200293          	li	t0,2
    7f8c:	fe5212e3          	bne	tp,t0,7f70 <test_11+0x8>

00007f90 <test_12>:
    7f90:	00c00713          	li	a4,12
    7f94:	00000213          	li	tp,0
    7f98:	00000093          	li	ra,0
    7f9c:	00000013          	nop
    7fa0:	fff00113          	li	sp,-1
    7fa4:	1620c863          	blt	ra,sp,8114 <fail>
    7fa8:	00120213          	addi	tp,tp,1 # 1 <boot+0x1>
    7fac:	00200293          	li	t0,2
    7fb0:	fe5214e3          	bne	tp,t0,7f98 <test_12+0x8>

00007fb4 <test_13>:
    7fb4:	00d00713          	li	a4,13
    7fb8:	00000213          	li	tp,0
    7fbc:	00000093          	li	ra,0
    7fc0:	00000013          	nop
    7fc4:	fff00113          	li	sp,-1
    7fc8:	00000013          	nop
    7fcc:	1420c463          	blt	ra,sp,8114 <fail>
    7fd0:	00120213          	addi	tp,tp,1 # 1 <boot+0x1>
    7fd4:	00200293          	li	t0,2
    7fd8:	fe5212e3          	bne	tp,t0,7fbc <test_13+0x8>

00007fdc <test_14>:
    7fdc:	00e00713          	li	a4,14
    7fe0:	00000213          	li	tp,0
    7fe4:	00000093          	li	ra,0
    7fe8:	00000013          	nop
    7fec:	00000013          	nop
    7ff0:	fff00113          	li	sp,-1
    7ff4:	1220c063          	blt	ra,sp,8114 <fail>
    7ff8:	00120213          	addi	tp,tp,1 # 1 <boot+0x1>
    7ffc:	00200293          	li	t0,2
    8000:	fe5212e3          	bne	tp,t0,7fe4 <test_14+0x8>

00008004 <test_15>:
    8004:	00f00713          	li	a4,15
    8008:	00000213          	li	tp,0
    800c:	00000093          	li	ra,0
    8010:	fff00113          	li	sp,-1
    8014:	1020c063          	blt	ra,sp,8114 <fail>
    8018:	00120213          	addi	tp,tp,1 # 1 <boot+0x1>
    801c:	00200293          	li	t0,2
    8020:	fe5216e3          	bne	tp,t0,800c <test_15+0x8>

00008024 <test_16>:
    8024:	01000713          	li	a4,16
    8028:	00000213          	li	tp,0
    802c:	00000093          	li	ra,0
    8030:	fff00113          	li	sp,-1
    8034:	00000013          	nop
    8038:	0c20ce63          	blt	ra,sp,8114 <fail>
    803c:	00120213          	addi	tp,tp,1 # 1 <boot+0x1>
    8040:	00200293          	li	t0,2
    8044:	fe5214e3          	bne	tp,t0,802c <test_16+0x8>

00008048 <test_17>:
    8048:	01100713          	li	a4,17
    804c:	00000213          	li	tp,0
    8050:	00000093          	li	ra,0
    8054:	fff00113          	li	sp,-1
    8058:	00000013          	nop
    805c:	00000013          	nop
    8060:	0a20ca63          	blt	ra,sp,8114 <fail>
    8064:	00120213          	addi	tp,tp,1 # 1 <boot+0x1>
    8068:	00200293          	li	t0,2
    806c:	fe5212e3          	bne	tp,t0,8050 <test_17+0x8>

00008070 <test_18>:
    8070:	01200713          	li	a4,18
    8074:	00000213          	li	tp,0
    8078:	00000093          	li	ra,0
    807c:	00000013          	nop
    8080:	fff00113          	li	sp,-1
    8084:	0820c863          	blt	ra,sp,8114 <fail>
    8088:	00120213          	addi	tp,tp,1 # 1 <boot+0x1>
    808c:	00200293          	li	t0,2
    8090:	fe5214e3          	bne	tp,t0,8078 <test_18+0x8>

00008094 <test_19>:
    8094:	01300713          	li	a4,19
    8098:	00000213          	li	tp,0
    809c:	00000093          	li	ra,0
    80a0:	00000013          	nop
    80a4:	fff00113          	li	sp,-1
    80a8:	00000013          	nop
    80ac:	0620c463          	blt	ra,sp,8114 <fail>
    80b0:	00120213          	addi	tp,tp,1 # 1 <boot+0x1>
    80b4:	00200293          	li	t0,2
    80b8:	fe5212e3          	bne	tp,t0,809c <test_19+0x8>

000080bc <test_20>:
    80bc:	01400713          	li	a4,20
    80c0:	00000213          	li	tp,0
    80c4:	00000093          	li	ra,0
    80c8:	00000013          	nop
    80cc:	00000013          	nop
    80d0:	fff00113          	li	sp,-1
    80d4:	0420c063          	blt	ra,sp,8114 <fail>
    80d8:	00120213          	addi	tp,tp,1 # 1 <boot+0x1>
    80dc:	00200293          	li	t0,2
    80e0:	fe5212e3          	bne	tp,t0,80c4 <test_20+0x8>

000080e4 <test_21>:
    80e4:	00100093          	li	ra,1
    80e8:	00104a63          	bgtz	ra,80fc <test_21+0x18>
    80ec:	00108093          	addi	ra,ra,1
    80f0:	00108093          	addi	ra,ra,1
    80f4:	00108093          	addi	ra,ra,1
    80f8:	00108093          	addi	ra,ra,1
    80fc:	00108093          	addi	ra,ra,1
    8100:	00108093          	addi	ra,ra,1
    8104:	00300793          	li	a5,3
    8108:	01500713          	li	a4,21
    810c:	00f09463          	bne	ra,a5,8114 <fail>
    8110:	00e01663          	bne	zero,a4,811c <pass>

00008114 <fail>:
    8114:	fc4f80ef          	jal	ra,8d8 <failure>
    8118:	00100073          	ebreak

0000811c <pass>:
    811c:	00009137          	lui	sp,0x9
    8120:	fc4f80ef          	jal	ra,8e4 <OK>
    8124:	84df806f          	j	970 <blt_ret>

Disassembly of section .text.startup:

00008128 <main>:
    8128:	000085b7          	lui	a1,0x8
    812c:	00008537          	lui	a0,0x8
    8130:	ff410113          	addi	sp,sp,-12 # 8ff4 <tdat10+0xaf7>
    8134:	3f058593          	addi	a1,a1,1008 # 83f0 <nxt.0+0x250>
    8138:	41050513          	addi	a0,a0,1040 # 8410 <nxt.0+0x270>
    813c:	00112423          	sw	ra,8(sp)
    8140:	a7cf80ef          	jal	ra,3bc <printf>
    8144:	000087b7          	lui	a5,0x8
    8148:	00a00513          	li	a0,10
    814c:	1807ae23          	sw	zero,412(a5) # 819c <threads>
    8150:	814f80ef          	jal	ra,164 <putchar>
    8154:	00008537          	lui	a0,0x8
    8158:	42c50513          	addi	a0,a0,1068 # 842c <nxt.0+0x28c>
    815c:	940f80ef          	jal	ra,29c <puts>
    8160:	00a00513          	li	a0,10
    8164:	800f80ef          	jal	ra,164 <putchar>
    8168:	000085b7          	lui	a1,0x8
    816c:	00008537          	lui	a0,0x8
    8170:	44458593          	addi	a1,a1,1092 # 8444 <nxt.0+0x2a4>
    8174:	44c50513          	addi	a0,a0,1100 # 844c <nxt.0+0x2ac>
    8178:	a44f80ef          	jal	ra,3bc <printf>
    817c:	00a00513          	li	a0,10
    8180:	fe5f70ef          	jal	ra,164 <putchar>
    8184:	f70f806f          	j	8f4 <start>
    8188:	00812083          	lw	ra,8(sp)
    818c:	00000513          	li	a0,0
    8190:	00c10113          	addi	sp,sp,12
    8194:	00008067          	ret
