
darksocv.o:     file format elf32-littleriscv


Disassembly of section .text:

00000000 <boot>:
   0:	00001737          	lui	a4,0x1
   4:	e8872783          	lw	a5,-376(a4) # e88 <threads>
   8:	fe010113          	addi	sp,sp,-32
   c:	00812c23          	sw	s0,24(sp)
  10:	00178693          	addi	a3,a5,1
  14:	0017f793          	andi	a5,a5,1
  18:	00112e23          	sw	ra,28(sp)
  1c:	00912a23          	sw	s1,20(sp)
  20:	01212823          	sw	s2,16(sp)
  24:	e8d72423          	sw	a3,-376(a4)
  28:	00f12623          	sw	a5,12(sp)
  2c:	00001437          	lui	s0,0x1
  30:	04078463          	beqz	a5,78 <boot+0x78>
  34:	800007b7          	lui	a5,0x80000
  38:	000f46b7          	lui	a3,0xf4
  3c:	00078793          	mv	a5,a5
  40:	23f68693          	addi	a3,a3,575 # f423f <nxt.0+0xf33b3>
  44:	f8000613          	li	a2,-128
  48:	e8442703          	lw	a4,-380(s0) # e84 <utimers>
  4c:	fff70593          	addi	a1,a4,-1
  50:	e8b42223          	sw	a1,-380(s0)
  54:	00071e63          	bnez	a4,70 <boot+0x70>
  58:	0087d703          	lhu	a4,8(a5) # 80000008 <io+0x8>
  5c:	00170713          	addi	a4,a4,1
  60:	01071713          	slli	a4,a4,0x10
  64:	01075713          	srli	a4,a4,0x10
  68:	00e79423          	sh	a4,8(a5)
  6c:	e8d42223          	sw	a3,-380(s0)
  70:	00c781a3          	sb	a2,3(a5)
  74:	fd5ff06f          	j	48 <boot+0x48>
  78:	000014b7          	lui	s1,0x1
  7c:	01c10693          	addi	a3,sp,28
  80:	e8440613          	addi	a2,s0,-380
  84:	00000593          	li	a1,0
  88:	f7048513          	addi	a0,s1,-144 # f70 <nxt.0+0xe4>
  8c:	368000ef          	jal	ra,3f4 <printf>
  90:	459000ef          	jal	ra,ce8 <end>
  94:	fe9ff06f          	j	7c <boot+0x7c>

00000098 <board_name>:
  98:	04050c63          	beqz	a0,f0 <board_name+0x58>
  9c:	00100793          	li	a5,1
  a0:	04f50e63          	beq	a0,a5,fc <board_name+0x64>
  a4:	00200793          	li	a5,2
  a8:	06f50063          	beq	a0,a5,108 <board_name+0x70>
  ac:	00300793          	li	a5,3
  b0:	06f50263          	beq	a0,a5,114 <board_name+0x7c>
  b4:	00400793          	li	a5,4
  b8:	06f50463          	beq	a0,a5,120 <board_name+0x88>
  bc:	00500793          	li	a5,5
  c0:	06f50663          	beq	a0,a5,12c <board_name+0x94>
  c4:	00600793          	li	a5,6
  c8:	06f50863          	beq	a0,a5,138 <board_name+0xa0>
  cc:	00700793          	li	a5,7
  d0:	06f50a63          	beq	a0,a5,144 <board_name+0xac>
  d4:	00800793          	li	a5,8
  d8:	06f50c63          	beq	a0,a5,150 <board_name+0xb8>
  dc:	00900793          	li	a5,9
  e0:	06f50e63          	beq	a0,a5,15c <board_name+0xc4>
  e4:	00001537          	lui	a0,0x1
  e8:	f6850513          	addi	a0,a0,-152 # f68 <nxt.0+0xdc>
  ec:	00008067          	ret
  f0:	00001537          	lui	a0,0x1
  f4:	ebc50513          	addi	a0,a0,-324 # ebc <nxt.0+0x30>
  f8:	00008067          	ret
  fc:	00001537          	lui	a0,0x1
 100:	ecc50513          	addi	a0,a0,-308 # ecc <nxt.0+0x40>
 104:	00008067          	ret
 108:	00001537          	lui	a0,0x1
 10c:	ee450513          	addi	a0,a0,-284 # ee4 <nxt.0+0x58>
 110:	00008067          	ret
 114:	00001537          	lui	a0,0x1
 118:	ef850513          	addi	a0,a0,-264 # ef8 <nxt.0+0x6c>
 11c:	00008067          	ret
 120:	00001537          	lui	a0,0x1
 124:	f0c50513          	addi	a0,a0,-244 # f0c <nxt.0+0x80>
 128:	00008067          	ret
 12c:	00001537          	lui	a0,0x1
 130:	f2050513          	addi	a0,a0,-224 # f20 <nxt.0+0x94>
 134:	00008067          	ret
 138:	00001537          	lui	a0,0x1
 13c:	f3850513          	addi	a0,a0,-200 # f38 <nxt.0+0xac>
 140:	00008067          	ret
 144:	00001537          	lui	a0,0x1
 148:	ea450513          	addi	a0,a0,-348 # ea4 <nxt.0+0x18>
 14c:	00008067          	ret
 150:	00001537          	lui	a0,0x1
 154:	f4c50513          	addi	a0,a0,-180 # f4c <nxt.0+0xc0>
 158:	00008067          	ret
 15c:	00001537          	lui	a0,0x1
 160:	e9050513          	addi	a0,a0,-368 # e90 <nxt.0+0x4>
 164:	00008067          	ret

00000168 <getchar>:
 168:	800007b7          	lui	a5,0x80000
 16c:	00078793          	mv	a5,a5
 170:	0047c703          	lbu	a4,4(a5) # 80000004 <io+0x4>
 174:	00277713          	andi	a4,a4,2
 178:	fe070ce3          	beqz	a4,170 <getchar+0x8>
 17c:	0057c503          	lbu	a0,5(a5)
 180:	0ff57513          	andi	a0,a0,255
 184:	00008067          	ret

00000188 <putchar>:
 188:	800007b7          	lui	a5,0x80000
 18c:	00a00713          	li	a4,10
 190:	00078793          	mv	a5,a5
 194:	00e51c63          	bne	a0,a4,1ac <putchar+0x24>
 198:	0047c703          	lbu	a4,4(a5) # 80000004 <io+0x4>
 19c:	00177713          	andi	a4,a4,1
 1a0:	fe071ce3          	bnez	a4,198 <putchar+0x10>
 1a4:	00d00713          	li	a4,13
 1a8:	00e782a3          	sb	a4,5(a5)
 1ac:	0047c703          	lbu	a4,4(a5)
 1b0:	00177713          	andi	a4,a4,1
 1b4:	fe071ce3          	bnez	a4,1ac <putchar+0x24>
 1b8:	0ff57713          	andi	a4,a0,255
 1bc:	00e782a3          	sb	a4,5(a5)
 1c0:	00070513          	mv	a0,a4
 1c4:	00008067          	ret

000001c8 <gets>:
 1c8:	fd010113          	addi	sp,sp,-48
 1cc:	02812423          	sw	s0,40(sp)
 1d0:	02912223          	sw	s1,36(sp)
 1d4:	01312e23          	sw	s3,28(sp)
 1d8:	01512a23          	sw	s5,20(sp)
 1dc:	01612823          	sw	s6,16(sp)
 1e0:	01712623          	sw	s7,12(sp)
 1e4:	02112623          	sw	ra,44(sp)
 1e8:	03212023          	sw	s2,32(sp)
 1ec:	01412c23          	sw	s4,24(sp)
 1f0:	00050493          	mv	s1,a0
 1f4:	00058993          	mv	s3,a1
 1f8:	00050413          	mv	s0,a0
 1fc:	00a00a93          	li	s5,10
 200:	00d00b13          	li	s6,13
 204:	00800b93          	li	s7,8
 208:	fff98a13          	addi	s4,s3,-1
 20c:	000a0863          	beqz	s4,21c <gets+0x54>
 210:	f59ff0ef          	jal	ra,168 <getchar>
 214:	00050913          	mv	s2,a0
 218:	05551463          	bne	a0,s5,260 <gets+0x98>
 21c:	00a00513          	li	a0,10
 220:	f69ff0ef          	jal	ra,188 <putchar>
 224:	00040023          	sb	zero,0(s0)
 228:	00941463          	bne	s0,s1,230 <gets+0x68>
 22c:	00000493          	li	s1,0
 230:	02c12083          	lw	ra,44(sp)
 234:	02812403          	lw	s0,40(sp)
 238:	02012903          	lw	s2,32(sp)
 23c:	01c12983          	lw	s3,28(sp)
 240:	01812a03          	lw	s4,24(sp)
 244:	01412a83          	lw	s5,20(sp)
 248:	01012b03          	lw	s6,16(sp)
 24c:	00c12b83          	lw	s7,12(sp)
 250:	00048513          	mv	a0,s1
 254:	02412483          	lw	s1,36(sp)
 258:	03010113          	addi	sp,sp,48
 25c:	00008067          	ret
 260:	fb650ee3          	beq	a0,s6,21c <gets+0x54>
 264:	f25ff0ef          	jal	ra,188 <putchar>
 268:	01791e63          	bne	s2,s7,284 <gets+0xbc>
 26c:	00940863          	beq	s0,s1,27c <gets+0xb4>
 270:	fe040fa3          	sb	zero,-1(s0)
 274:	00098a13          	mv	s4,s3
 278:	fff40413          	addi	s0,s0,-1
 27c:	000a0993          	mv	s3,s4
 280:	f89ff06f          	j	208 <gets+0x40>
 284:	01240023          	sb	s2,0(s0)
 288:	00140413          	addi	s0,s0,1
 28c:	ff1ff06f          	j	27c <gets+0xb4>

00000290 <putstr>:
 290:	ff010113          	addi	sp,sp,-16
 294:	00812423          	sw	s0,8(sp)
 298:	00112623          	sw	ra,12(sp)
 29c:	00050413          	mv	s0,a0
 2a0:	00051663          	bnez	a0,2ac <putstr+0x1c>
 2a4:	00001437          	lui	s0,0x1
 2a8:	f9440413          	addi	s0,s0,-108 # f94 <nxt.0+0x108>
 2ac:	00044503          	lbu	a0,0(s0)
 2b0:	00051a63          	bnez	a0,2c4 <putstr+0x34>
 2b4:	00c12083          	lw	ra,12(sp)
 2b8:	00812403          	lw	s0,8(sp)
 2bc:	01010113          	addi	sp,sp,16
 2c0:	00008067          	ret
 2c4:	00140413          	addi	s0,s0,1
 2c8:	ec1ff0ef          	jal	ra,188 <putchar>
 2cc:	fe1ff06f          	j	2ac <putstr+0x1c>

000002d0 <puts>:
 2d0:	ff010113          	addi	sp,sp,-16
 2d4:	00112623          	sw	ra,12(sp)
 2d8:	fb9ff0ef          	jal	ra,290 <putstr>
 2dc:	00c12083          	lw	ra,12(sp)
 2e0:	00a00513          	li	a0,10
 2e4:	01010113          	addi	sp,sp,16
 2e8:	ea1ff06f          	j	188 <putchar>

000002ec <putdx>:
 2ec:	fa010113          	addi	sp,sp,-96
 2f0:	05412423          	sw	s4,72(sp)
 2f4:	00058a13          	mv	s4,a1
 2f8:	000015b7          	lui	a1,0x1
 2fc:	04812c23          	sw	s0,88(sp)
 300:	04912a23          	sw	s1,84(sp)
 304:	fb058413          	addi	s0,a1,-80 # fb0 <nxt.0+0x124>
 308:	02c00613          	li	a2,44
 30c:	fb058593          	addi	a1,a1,-80
 310:	00050493          	mv	s1,a0
 314:	01410513          	addi	a0,sp,20
 318:	04112e23          	sw	ra,92(sp)
 31c:	05212823          	sw	s2,80(sp)
 320:	05312623          	sw	s3,76(sp)
 324:	05512223          	sw	s5,68(sp)
 328:	224000ef          	jal	ra,54c <memcpy>
 32c:	02c40593          	addi	a1,s0,44
 330:	01400613          	li	a2,20
 334:	00010513          	mv	a0,sp
 338:	214000ef          	jal	ra,54c <memcpy>
 33c:	00010413          	mv	s0,sp
 340:	000a0463          	beqz	s4,348 <putdx+0x5c>
 344:	01410413          	addi	s0,sp,20
 348:	00001937          	lui	s2,0x1
 34c:	01800993          	li	s3,24
 350:	00100a93          	li	s5,1
 354:	f9c90913          	addi	s2,s2,-100 # f9c <nxt.0+0x110>
 358:	00042583          	lw	a1,0(s0)
 35c:	02059463          	bnez	a1,384 <putdx+0x98>
 360:	05c12083          	lw	ra,92(sp)
 364:	05812403          	lw	s0,88(sp)
 368:	05412483          	lw	s1,84(sp)
 36c:	05012903          	lw	s2,80(sp)
 370:	04c12983          	lw	s3,76(sp)
 374:	04812a03          	lw	s4,72(sp)
 378:	04412a83          	lw	s5,68(sp)
 37c:	06010113          	addi	sp,sp,96
 380:	00008067          	ret
 384:	01558463          	beq	a1,s5,38c <putdx+0xa0>
 388:	02b4e263          	bltu	s1,a1,3ac <putdx+0xc0>
 38c:	020a0663          	beqz	s4,3b8 <putdx+0xcc>
 390:	00048513          	mv	a0,s1
 394:	40c000ef          	jal	ra,7a0 <__udivsi3>
 398:	00a00593          	li	a1,10
 39c:	40c000ef          	jal	ra,7a8 <__umodsi3>
 3a0:	00a90533          	add	a0,s2,a0
 3a4:	00054503          	lbu	a0,0(a0)
 3a8:	de1ff0ef          	jal	ra,188 <putchar>
 3ac:	ff898993          	addi	s3,s3,-8
 3b0:	00440413          	addi	s0,s0,4
 3b4:	fa5ff06f          	j	358 <putdx+0x6c>
 3b8:	00498793          	addi	a5,s3,4
 3bc:	00f4d7b3          	srl	a5,s1,a5
 3c0:	00f7f793          	andi	a5,a5,15
 3c4:	00f907b3          	add	a5,s2,a5
 3c8:	0007c503          	lbu	a0,0(a5)
 3cc:	dbdff0ef          	jal	ra,188 <putchar>
 3d0:	0134d7b3          	srl	a5,s1,s3
 3d4:	00f7f793          	andi	a5,a5,15
 3d8:	00f907b3          	add	a5,s2,a5
 3dc:	0007c503          	lbu	a0,0(a5)
 3e0:	fc9ff06f          	j	3a8 <putdx+0xbc>

000003e4 <putx>:
 3e4:	00000593          	li	a1,0
 3e8:	f05ff06f          	j	2ec <putdx>

000003ec <putd>:
 3ec:	00100593          	li	a1,1
 3f0:	efdff06f          	j	2ec <putdx>

000003f4 <printf>:
 3f4:	fb010113          	addi	sp,sp,-80
 3f8:	04f12223          	sw	a5,68(sp)
 3fc:	03410793          	addi	a5,sp,52
 400:	02812423          	sw	s0,40(sp)
 404:	03212023          	sw	s2,32(sp)
 408:	01312e23          	sw	s3,28(sp)
 40c:	01412c23          	sw	s4,24(sp)
 410:	01512a23          	sw	s5,20(sp)
 414:	02112623          	sw	ra,44(sp)
 418:	02912223          	sw	s1,36(sp)
 41c:	00050413          	mv	s0,a0
 420:	02b12a23          	sw	a1,52(sp)
 424:	02c12c23          	sw	a2,56(sp)
 428:	02d12e23          	sw	a3,60(sp)
 42c:	04e12023          	sw	a4,64(sp)
 430:	05012423          	sw	a6,72(sp)
 434:	05112623          	sw	a7,76(sp)
 438:	00f12623          	sw	a5,12(sp)
 43c:	02500913          	li	s2,37
 440:	07300993          	li	s3,115
 444:	07800a13          	li	s4,120
 448:	06400a93          	li	s5,100
 44c:	00044503          	lbu	a0,0(s0)
 450:	02051463          	bnez	a0,478 <printf+0x84>
 454:	02c12083          	lw	ra,44(sp)
 458:	02812403          	lw	s0,40(sp)
 45c:	02412483          	lw	s1,36(sp)
 460:	02012903          	lw	s2,32(sp)
 464:	01c12983          	lw	s3,28(sp)
 468:	01812a03          	lw	s4,24(sp)
 46c:	01412a83          	lw	s5,20(sp)
 470:	05010113          	addi	sp,sp,80
 474:	00008067          	ret
 478:	00140493          	addi	s1,s0,1
 47c:	07251463          	bne	a0,s2,4e4 <printf+0xf0>
 480:	00144503          	lbu	a0,1(s0)
 484:	03351063          	bne	a0,s3,4a4 <printf+0xb0>
 488:	00c12783          	lw	a5,12(sp)
 48c:	0007a503          	lw	a0,0(a5)
 490:	00478713          	addi	a4,a5,4
 494:	00e12623          	sw	a4,12(sp)
 498:	df9ff0ef          	jal	ra,290 <putstr>
 49c:	00148413          	addi	s0,s1,1
 4a0:	fadff06f          	j	44c <printf+0x58>
 4a4:	01451e63          	bne	a0,s4,4c0 <printf+0xcc>
 4a8:	00c12783          	lw	a5,12(sp)
 4ac:	0007a503          	lw	a0,0(a5)
 4b0:	00478713          	addi	a4,a5,4
 4b4:	00e12623          	sw	a4,12(sp)
 4b8:	f2dff0ef          	jal	ra,3e4 <putx>
 4bc:	fe1ff06f          	j	49c <printf+0xa8>
 4c0:	01551e63          	bne	a0,s5,4dc <printf+0xe8>
 4c4:	00c12783          	lw	a5,12(sp)
 4c8:	0007a503          	lw	a0,0(a5)
 4cc:	00478713          	addi	a4,a5,4
 4d0:	00e12623          	sw	a4,12(sp)
 4d4:	f19ff0ef          	jal	ra,3ec <putd>
 4d8:	fc5ff06f          	j	49c <printf+0xa8>
 4dc:	cadff0ef          	jal	ra,188 <putchar>
 4e0:	fbdff06f          	j	49c <printf+0xa8>
 4e4:	ca5ff0ef          	jal	ra,188 <putchar>
 4e8:	00040493          	mv	s1,s0
 4ec:	fb1ff06f          	j	49c <printf+0xa8>

000004f0 <strncmp>:
 4f0:	fff60613          	addi	a2,a2,-1
 4f4:	00000793          	li	a5,0
 4f8:	00f50733          	add	a4,a0,a5
 4fc:	00074683          	lbu	a3,0(a4)
 500:	00f58733          	add	a4,a1,a5
 504:	00074703          	lbu	a4,0(a4)
 508:	00c78a63          	beq	a5,a2,51c <strncmp+0x2c>
 50c:	00068863          	beqz	a3,51c <strncmp+0x2c>
 510:	00070663          	beqz	a4,51c <strncmp+0x2c>
 514:	00178793          	addi	a5,a5,1
 518:	fee680e3          	beq	a3,a4,4f8 <strncmp+0x8>
 51c:	40e68533          	sub	a0,a3,a4
 520:	00008067          	ret

00000524 <strcmp>:
 524:	fff00613          	li	a2,-1
 528:	fc9ff06f          	j	4f0 <strncmp>

0000052c <strlen>:
 52c:	00050793          	mv	a5,a0
 530:	00000513          	li	a0,0
 534:	00a78733          	add	a4,a5,a0
 538:	00074703          	lbu	a4,0(a4)
 53c:	00071463          	bnez	a4,544 <strlen+0x18>
 540:	00008067          	ret
 544:	00150513          	addi	a0,a0,1
 548:	fedff06f          	j	534 <strlen+0x8>

0000054c <memcpy>:
 54c:	00000793          	li	a5,0
 550:	00c79463          	bne	a5,a2,558 <memcpy+0xc>
 554:	00008067          	ret
 558:	00f58733          	add	a4,a1,a5
 55c:	00074683          	lbu	a3,0(a4)
 560:	00f50733          	add	a4,a0,a5
 564:	00178793          	addi	a5,a5,1
 568:	00d70023          	sb	a3,0(a4)
 56c:	fe5ff06f          	j	550 <memcpy+0x4>

00000570 <memset>:
 570:	00c50633          	add	a2,a0,a2
 574:	00050793          	mv	a5,a0
 578:	00c79463          	bne	a5,a2,580 <memset+0x10>
 57c:	00008067          	ret
 580:	00178793          	addi	a5,a5,1
 584:	feb78fa3          	sb	a1,-1(a5)
 588:	ff1ff06f          	j	578 <memset+0x8>

0000058c <strtok>:
 58c:	fe010113          	addi	sp,sp,-32
 590:	00812c23          	sw	s0,24(sp)
 594:	00050413          	mv	s0,a0
 598:	00058513          	mv	a0,a1
 59c:	01212823          	sw	s2,16(sp)
 5a0:	01312623          	sw	s3,12(sp)
 5a4:	00112e23          	sw	ra,28(sp)
 5a8:	00912a23          	sw	s1,20(sp)
 5ac:	00058913          	mv	s2,a1
 5b0:	f7dff0ef          	jal	ra,52c <strlen>
 5b4:	00050993          	mv	s3,a0
 5b8:	00041863          	bnez	s0,5c8 <strtok+0x3c>
 5bc:	000017b7          	lui	a5,0x1
 5c0:	e8c7a403          	lw	s0,-372(a5) # e8c <nxt.0>
 5c4:	04040063          	beqz	s0,604 <strtok+0x78>
 5c8:	00040493          	mv	s1,s0
 5cc:	0004c783          	lbu	a5,0(s1)
 5d0:	00079863          	bnez	a5,5e0 <strtok+0x54>
 5d4:	000017b7          	lui	a5,0x1
 5d8:	e807a623          	sw	zero,-372(a5) # e8c <nxt.0>
 5dc:	0280006f          	j	604 <strtok+0x78>
 5e0:	00098613          	mv	a2,s3
 5e4:	00090593          	mv	a1,s2
 5e8:	00048513          	mv	a0,s1
 5ec:	f05ff0ef          	jal	ra,4f0 <strncmp>
 5f0:	00148793          	addi	a5,s1,1
 5f4:	02051863          	bnez	a0,624 <strtok+0x98>
 5f8:	00001737          	lui	a4,0x1
 5fc:	00048023          	sb	zero,0(s1)
 600:	e8f72623          	sw	a5,-372(a4) # e8c <nxt.0>
 604:	01c12083          	lw	ra,28(sp)
 608:	00040513          	mv	a0,s0
 60c:	01812403          	lw	s0,24(sp)
 610:	01412483          	lw	s1,20(sp)
 614:	01012903          	lw	s2,16(sp)
 618:	00c12983          	lw	s3,12(sp)
 61c:	02010113          	addi	sp,sp,32
 620:	00008067          	ret
 624:	00078493          	mv	s1,a5
 628:	fa5ff06f          	j	5cc <strtok+0x40>

0000062c <atoi>:
 62c:	00050713          	mv	a4,a0
 630:	00000693          	li	a3,0
 634:	00000513          	li	a0,0
 638:	02d00613          	li	a2,45
 63c:	00071a63          	bnez	a4,650 <atoi+0x24>
 640:	02069c63          	bnez	a3,678 <atoi+0x4c>
 644:	00008067          	ret
 648:	00100693          	li	a3,1
 64c:	0240006f          	j	670 <atoi+0x44>
 650:	00074783          	lbu	a5,0(a4)
 654:	fe0786e3          	beqz	a5,640 <atoi+0x14>
 658:	fec788e3          	beq	a5,a2,648 <atoi+0x1c>
 65c:	00351593          	slli	a1,a0,0x3
 660:	fd078793          	addi	a5,a5,-48
 664:	00b787b3          	add	a5,a5,a1
 668:	00151513          	slli	a0,a0,0x1
 66c:	00a78533          	add	a0,a5,a0
 670:	00170713          	addi	a4,a4,1
 674:	fc9ff06f          	j	63c <atoi+0x10>
 678:	40a00533          	neg	a0,a0
 67c:	00008067          	ret

00000680 <xtoi>:
 680:	00050713          	mv	a4,a0
 684:	03900693          	li	a3,57
 688:	00000513          	li	a0,0
 68c:	00070663          	beqz	a4,698 <xtoi+0x18>
 690:	00074783          	lbu	a5,0(a4)
 694:	00079463          	bnez	a5,69c <xtoi+0x1c>
 698:	00008067          	ret
 69c:	00451513          	slli	a0,a0,0x4
 6a0:	00f6ea63          	bltu	a3,a5,6b4 <xtoi+0x34>
 6a4:	fd078793          	addi	a5,a5,-48
 6a8:	00a78533          	add	a0,a5,a0
 6ac:	00170713          	addi	a4,a4,1
 6b0:	fddff06f          	j	68c <xtoi+0xc>
 6b4:	05f7f793          	andi	a5,a5,95
 6b8:	fc978793          	addi	a5,a5,-55
 6bc:	fedff06f          	j	6a8 <xtoi+0x28>

000006c0 <mac>:
 6c0:	857f                	0x857f
 6c2:	00c5                	addi	ra,ra,17
 6c4:	00008067          	ret

000006c8 <__umulsi3>:
 6c8:	00050793          	mv	a5,a0
 6cc:	00b57663          	bgeu	a0,a1,6d8 <__umulsi3+0x10>
 6d0:	00058793          	mv	a5,a1
 6d4:	00050593          	mv	a1,a0
 6d8:	00000513          	li	a0,0
 6dc:	00059463          	bnez	a1,6e4 <__umulsi3+0x1c>
 6e0:	00008067          	ret
 6e4:	0015f713          	andi	a4,a1,1
 6e8:	00070463          	beqz	a4,6f0 <__umulsi3+0x28>
 6ec:	00f50533          	add	a0,a0,a5
 6f0:	00179793          	slli	a5,a5,0x1
 6f4:	0015d593          	srli	a1,a1,0x1
 6f8:	fe5ff06f          	j	6dc <__umulsi3+0x14>

000006fc <__mulsi3>:
 6fc:	ff010113          	addi	sp,sp,-16
 700:	00912223          	sw	s1,4(sp)
 704:	00112623          	sw	ra,12(sp)
 708:	00812423          	sw	s0,8(sp)
 70c:	00000493          	li	s1,0
 710:	00055663          	bgez	a0,71c <__mulsi3+0x20>
 714:	40a00533          	neg	a0,a0
 718:	00100493          	li	s1,1
 71c:	00000413          	li	s0,0
 720:	0005d663          	bgez	a1,72c <__mulsi3+0x30>
 724:	40b005b3          	neg	a1,a1
 728:	00100413          	li	s0,1
 72c:	f9dff0ef          	jal	ra,6c8 <__umulsi3>
 730:	00848463          	beq	s1,s0,738 <__mulsi3+0x3c>
 734:	40a00533          	neg	a0,a0
 738:	00c12083          	lw	ra,12(sp)
 73c:	00812403          	lw	s0,8(sp)
 740:	00412483          	lw	s1,4(sp)
 744:	01010113          	addi	sp,sp,16
 748:	00008067          	ret

0000074c <__udiv_umod_si3>:
 74c:	00050793          	mv	a5,a0
 750:	00100713          	li	a4,1
 754:	00058513          	mv	a0,a1
 758:	00059863          	bnez	a1,768 <__udiv_umod_si3+0x1c>
 75c:	00008067          	ret
 760:	00171713          	slli	a4,a4,0x1
 764:	00151513          	slli	a0,a0,0x1
 768:	fef56ce3          	bltu	a0,a5,760 <__udiv_umod_si3+0x14>
 76c:	00050693          	mv	a3,a0
 770:	00000513          	li	a0,0
 774:	00078463          	beqz	a5,77c <__udiv_umod_si3+0x30>
 778:	00071863          	bnez	a4,788 <__udiv_umod_si3+0x3c>
 77c:	fe0610e3          	bnez	a2,75c <__udiv_umod_si3+0x10>
 780:	00078513          	mv	a0,a5
 784:	fd9ff06f          	j	75c <__udiv_umod_si3+0x10>
 788:	00d7e663          	bltu	a5,a3,794 <__udiv_umod_si3+0x48>
 78c:	40d787b3          	sub	a5,a5,a3
 790:	00e50533          	add	a0,a0,a4
 794:	00175713          	srli	a4,a4,0x1
 798:	0016d693          	srli	a3,a3,0x1
 79c:	fd9ff06f          	j	774 <__udiv_umod_si3+0x28>

000007a0 <__udivsi3>:
 7a0:	00100613          	li	a2,1
 7a4:	fa9ff06f          	j	74c <__udiv_umod_si3>

000007a8 <__umodsi3>:
 7a8:	00000613          	li	a2,0
 7ac:	fa1ff06f          	j	74c <__udiv_umod_si3>

000007b0 <__div_mod_si3>:
 7b0:	06058e63          	beqz	a1,82c <__div_mod_si3+0x7c>
 7b4:	ff010113          	addi	sp,sp,-16
 7b8:	00812423          	sw	s0,8(sp)
 7bc:	00912223          	sw	s1,4(sp)
 7c0:	00112623          	sw	ra,12(sp)
 7c4:	01212023          	sw	s2,0(sp)
 7c8:	00060413          	mv	s0,a2
 7cc:	00000493          	li	s1,0
 7d0:	00055663          	bgez	a0,7dc <__div_mod_si3+0x2c>
 7d4:	40a00533          	neg	a0,a0
 7d8:	00100493          	li	s1,1
 7dc:	00000913          	li	s2,0
 7e0:	0005d663          	bgez	a1,7ec <__div_mod_si3+0x3c>
 7e4:	40b005b3          	neg	a1,a1
 7e8:	00100913          	li	s2,1
 7ec:	00040613          	mv	a2,s0
 7f0:	f5dff0ef          	jal	ra,74c <__udiv_umod_si3>
 7f4:	00050593          	mv	a1,a0
 7f8:	02040463          	beqz	s0,820 <__div_mod_si3+0x70>
 7fc:	01248463          	beq	s1,s2,804 <__div_mod_si3+0x54>
 800:	40a005b3          	neg	a1,a0
 804:	00c12083          	lw	ra,12(sp)
 808:	00812403          	lw	s0,8(sp)
 80c:	00412483          	lw	s1,4(sp)
 810:	00012903          	lw	s2,0(sp)
 814:	00058513          	mv	a0,a1
 818:	01010113          	addi	sp,sp,16
 81c:	00008067          	ret
 820:	fe0482e3          	beqz	s1,804 <__div_mod_si3+0x54>
 824:	40a005b3          	neg	a1,a0
 828:	fddff06f          	j	804 <__div_mod_si3+0x54>
 82c:	00058513          	mv	a0,a1
 830:	00008067          	ret

00000834 <__divsi3>:
 834:	00100613          	li	a2,1
 838:	f79ff06f          	j	7b0 <__div_mod_si3>

0000083c <__modsi3>:
 83c:	00000613          	li	a2,0
 840:	f71ff06f          	j	7b0 <__div_mod_si3>

00000844 <usleep>:
 844:	000017b7          	lui	a5,0x1
 848:	e887a703          	lw	a4,-376(a5) # e88 <threads>
 84c:	00100793          	li	a5,1
 850:	00e7dc63          	bge	a5,a4,868 <usleep+0x24>
 854:	fff00713          	li	a4,-1
 858:	000017b7          	lui	a5,0x1
 85c:	fff50513          	addi	a0,a0,-1
 860:	02e51263          	bne	a0,a4,884 <usleep+0x40>
 864:	00008067          	ret
 868:	800007b7          	lui	a5,0x80000
 86c:	fff00693          	li	a3,-1
 870:	00078793          	mv	a5,a5
 874:	f8000613          	li	a2,-128
 878:	fff50513          	addi	a0,a0,-1
 87c:	00d51c63          	bne	a0,a3,894 <usleep+0x50>
 880:	00008067          	ret
 884:	e847a683          	lw	a3,-380(a5) # 7ffffe84 <io+0xfffffe84>
 888:	e847a603          	lw	a2,-380(a5)
 88c:	fed60ee3          	beq	a2,a3,888 <usleep+0x44>
 890:	fcdff06f          	j	85c <usleep+0x18>
 894:	00c781a3          	sb	a2,3(a5)
 898:	0037c703          	lbu	a4,3(a5)
 89c:	0ff77713          	andi	a4,a4,255
 8a0:	fe070ce3          	beqz	a4,898 <usleep+0x54>
 8a4:	fd5ff06f          	j	878 <usleep+0x34>

000008a8 <banner>:
 8a8:	ee010113          	addi	sp,sp,-288
 8ac:	000015b7          	lui	a1,0x1
 8b0:	10d00613          	li	a2,269
 8b4:	ff058593          	addi	a1,a1,-16 # ff0 <nxt.0+0x164>
 8b8:	00010513          	mv	a0,sp
 8bc:	10112e23          	sw	ra,284(sp)
 8c0:	10812c23          	sw	s0,280(sp)
 8c4:	10912a23          	sw	s1,276(sp)
 8c8:	11212823          	sw	s2,272(sp)
 8cc:	c81ff0ef          	jal	ra,54c <memcpy>
 8d0:	00a00513          	li	a0,10
 8d4:	8b5ff0ef          	jal	ra,188 <putchar>
 8d8:	00010413          	mv	s0,sp
 8dc:	00044903          	lbu	s2,0(s0)
 8e0:	00091e63          	bnez	s2,8fc <banner+0x54>
 8e4:	11c12083          	lw	ra,284(sp)
 8e8:	11812403          	lw	s0,280(sp)
 8ec:	11412483          	lw	s1,276(sp)
 8f0:	11012903          	lw	s2,272(sp)
 8f4:	12010113          	addi	sp,sp,288
 8f8:	00008067          	ret
 8fc:	00144483          	lbu	s1,1(s0)
 900:	00240413          	addi	s0,s0,2
 904:	fc048ce3          	beqz	s1,8dc <banner+0x34>
 908:	00090513          	mv	a0,s2
 90c:	87dff0ef          	jal	ra,188 <putchar>
 910:	fff48493          	addi	s1,s1,-1
 914:	ff1ff06f          	j	904 <banner+0x5c>

00000918 <success>:
 918:	00001537          	lui	a0,0x1
 91c:	1f450513          	addi	a0,a0,500 # 11f4 <nxt.0+0x368>
 920:	971ff06f          	j	290 <putstr>

00000924 <failure>:
 924:	00001537          	lui	a0,0x1
 928:	20050513          	addi	a0,a0,512 # 1200 <nxt.0+0x374>
 92c:	965ff06f          	j	290 <putstr>

00000930 <OK>:
 930:	00001537          	lui	a0,0x1
 934:	20c50513          	addi	a0,a0,524 # 120c <nxt.0+0x380>
 938:	959ff06f          	j	290 <putstr>

0000093c <reset_vec>:
 93c:	0040006f          	j	940 <start>

00000940 <start>:
 940:	00000093          	li	ra,0
 944:	00000113          	li	sp,0
 948:	00000193          	li	gp,0
 94c:	00000213          	li	tp,0
 950:	00000293          	li	t0,0
 954:	00000313          	li	t1,0
 958:	00000393          	li	t2,0
 95c:	00000413          	li	s0,0
 960:	00000493          	li	s1,0
 964:	00000513          	li	a0,0
 968:	00000593          	li	a1,0
 96c:	00000613          	li	a2,0
 970:	00000693          	li	a3,0
 974:	00000713          	li	a4,0
 978:	00000793          	li	a5,0
 97c:	00000813          	li	a6,0
 980:	00000893          	li	a7,0
 984:	00000913          	li	s2,0
 988:	00000993          	li	s3,0
 98c:	00000a13          	li	s4,0
 990:	00000a93          	li	s5,0
 994:	00000b13          	li	s6,0
 998:	00000b93          	li	s7,0
 99c:	00000c13          	li	s8,0
 9a0:	00000c93          	li	s9,0
 9a4:	00000d13          	li	s10,0
 9a8:	00000d93          	li	s11,0
 9ac:	00000e13          	li	t3,0
 9b0:	00000e93          	li	t4,0
 9b4:	00000f13          	li	t5,0
 9b8:	00000f93          	li	t6,0
 9bc:	3e800093          	li	ra,1000
 9c0:	1980006f          	j	b58 <lui>

000009c4 <lui_ret>:
 9c4:	3e800093          	li	ra,1000
 9c8:	0300006f          	j	9f8 <auipc>

000009cc <auipc_ret>:
 9cc:	3e800093          	li	ra,1000
 9d0:	0e00006f          	j	ab0 <j>

000009d4 <j_ret>:
 9d4:	3e800093          	li	ra,1000
 9d8:	24c0006f          	j	c24 <jal>

000009dc <jal_ret>:
 9dc:	f3dff0ef          	jal	ra,918 <success>
 9e0:	20000537          	lui	a0,0x20000
 9e4:	075bd5b7          	lui	a1,0x75bd
 9e8:	d1558593          	addi	a1,a1,-747 # 75bcd15 <nxt.0+0x75bbe89>
 9ec:	00b52023          	sw	a1,0(a0) # 20000000 <nxt.0+0x1ffff174>
 9f0:	00100073          	ebreak
 9f4:	0000                	unimp
	...

000009f8 <auipc>:
 9f8:	00001537          	lui	a0,0x1
 9fc:	a1850513          	addi	a0,a0,-1512 # a18 <.test_name>

00000a00 <loop>:
 a00:	891ff0ef          	jal	ra,290 <putstr>

00000a04 <.prname_next>:
 a04:	00050583          	lb	a1,0(a0)
 a08:	00058c63          	beqz	a1,a20 <.prname_done>
 a0c:	00b62023          	sw	a1,0(a2)
 a10:	00150513          	addi	a0,a0,1
 a14:	ff1ff06f          	j	a04 <.prname_next>

00000a18 <.test_name>:
 a18:	7561                	lui	a0,0xffff8
 a1a:	7069                	c.lui	zero,0xffffa
 a1c:	00000063          	beqz	zero,a1c <.test_name+0x4>

00000a20 <.prname_done>:
 a20:	02e00593          	li	a1,46
 a24:	00b62023          	sw	a1,0(a2)
 a28:	00b62023          	sw	a1,0(a2)

00000a2c <test_2>:
 a2c:	00000013          	nop
 a30:	00002517          	auipc	a0,0x2
 a34:	71c50513          	addi	a0,a0,1820 # 314c <nxt.0+0x22c0>
 a38:	004005ef          	jal	a1,a3c <test_2+0x10>
 a3c:	40b50533          	sub	a0,a0,a1
 a40:	00002eb7          	lui	t4,0x2
 a44:	710e8e93          	addi	t4,t4,1808 # 2710 <nxt.0+0x1884>
 a48:	00200e13          	li	t3,2
 a4c:	03d51463          	bne	a0,t4,a74 <fail>

00000a50 <test_3>:
 a50:	ffffe517          	auipc	a0,0xffffe
 a54:	8fc50513          	addi	a0,a0,-1796 # ffffe34c <io+0x7fffe34c>
 a58:	004005ef          	jal	a1,a5c <test_3+0xc>
 a5c:	40b50533          	sub	a0,a0,a1
 a60:	ffffeeb7          	lui	t4,0xffffe
 a64:	8f0e8e93          	addi	t4,t4,-1808 # ffffd8f0 <io+0x7fffd8f0>
 a68:	00300e13          	li	t3,3
 a6c:	01d51463          	bne	a0,t4,a74 <fail>
 a70:	03c01c63          	bne	zero,t3,aa8 <pass>

00000a74 <fail>:
 a74:	eb1ff0ef          	jal	ra,924 <failure>
 a78:	10000537          	lui	a0,0x10000
 a7c:	04500593          	li	a1,69
 a80:	05200613          	li	a2,82
 a84:	04f00693          	li	a3,79
 a88:	00a00713          	li	a4,10
 a8c:	00b52023          	sw	a1,0(a0) # 10000000 <nxt.0+0xffff174>
 a90:	00c52023          	sw	a2,0(a0)
 a94:	00c52023          	sw	a2,0(a0)
 a98:	00d52023          	sw	a3,0(a0)
 a9c:	00c52023          	sw	a2,0(a0)
 aa0:	00e52023          	sw	a4,0(a0)
 aa4:	00100073          	ebreak

00000aa8 <pass>:
 aa8:	e89ff0ef          	jal	ra,930 <OK>
 aac:	f21ff06f          	j	9cc <auipc_ret>

00000ab0 <j>:
 ab0:	00001537          	lui	a0,0x1
 ab4:	ad050513          	addi	a0,a0,-1328 # ad0 <.test_name>

00000ab8 <loop>:
 ab8:	fd8ff0ef          	jal	ra,290 <putstr>

00000abc <.prname_next>:
 abc:	00050583          	lb	a1,0(a0)
 ac0:	00058a63          	beqz	a1,ad4 <.prname_done>
 ac4:	00b62023          	sw	a1,0(a2)
 ac8:	00150513          	addi	a0,a0,1
 acc:	ff1ff06f          	j	abc <.prname_next>

00000ad0 <.test_name>:
 ad0:	006a                	c.slli	zero,0x1a
	...

00000ad4 <.prname_done>:
 ad4:	02e00593          	li	a1,46
 ad8:	00b62023          	sw	a1,0(a2)
 adc:	00b62023          	sw	a1,0(a2)
 ae0:	00200e13          	li	t3,2
 ae4:	0080006f          	j	aec <test_2>
 ae8:	0340006f          	j	b1c <fail>

00000aec <test_2>:
 aec:	00100093          	li	ra,1
 af0:	0140006f          	j	b04 <test_2+0x18>
 af4:	00108093          	addi	ra,ra,1
 af8:	00108093          	addi	ra,ra,1
 afc:	00108093          	addi	ra,ra,1
 b00:	00108093          	addi	ra,ra,1
 b04:	00108093          	addi	ra,ra,1
 b08:	00108093          	addi	ra,ra,1
 b0c:	00300e93          	li	t4,3
 b10:	00300e13          	li	t3,3
 b14:	01d09463          	bne	ra,t4,b1c <fail>
 b18:	03c01c63          	bne	zero,t3,b50 <pass>

00000b1c <fail>:
 b1c:	e09ff0ef          	jal	ra,924 <failure>
 b20:	10000537          	lui	a0,0x10000
 b24:	04500593          	li	a1,69
 b28:	05200613          	li	a2,82
 b2c:	04f00693          	li	a3,79
 b30:	00a00713          	li	a4,10
 b34:	00b52023          	sw	a1,0(a0) # 10000000 <nxt.0+0xffff174>
 b38:	00c52023          	sw	a2,0(a0)
 b3c:	00c52023          	sw	a2,0(a0)
 b40:	00d52023          	sw	a3,0(a0)
 b44:	00c52023          	sw	a2,0(a0)
 b48:	00e52023          	sw	a4,0(a0)
 b4c:	00100073          	ebreak

00000b50 <pass>:
 b50:	de1ff0ef          	jal	ra,930 <OK>
 b54:	e81ff06f          	j	9d4 <j_ret>

00000b58 <lui>:
 b58:	00001537          	lui	a0,0x1
 b5c:	b7850513          	addi	a0,a0,-1160 # b78 <.test_name>

00000b60 <loop>:
 b60:	f30ff0ef          	jal	ra,290 <putstr>

00000b64 <.prname_next>:
 b64:	00050583          	lb	a1,0(a0)
 b68:	00058a63          	beqz	a1,b7c <.prname_done>
 b6c:	00b62023          	sw	a1,0(a2)
 b70:	00150513          	addi	a0,a0,1
 b74:	ff1ff06f          	j	b64 <.prname_next>

00000b78 <.test_name>:
 b78:	756c                	flw	fa1,108(a0)
 b7a:	0069                	c.nop	26

00000b7c <.prname_done>:
 b7c:	02e00593          	li	a1,46
 b80:	00b62023          	sw	a1,0(a2)
 b84:	00b62023          	sw	a1,0(a2)

00000b88 <test_2>:
 b88:	000000b7          	lui	ra,0x0
 b8c:	00000e93          	li	t4,0
 b90:	00200e13          	li	t3,2
 b94:	05d09a63          	bne	ra,t4,be8 <fail>

00000b98 <test_3>:
 b98:	fffff0b7          	lui	ra,0xfffff
 b9c:	4010d093          	srai	ra,ra,0x1
 ba0:	80000e93          	li	t4,-2048
 ba4:	00300e13          	li	t3,3
 ba8:	05d09063          	bne	ra,t4,be8 <fail>

00000bac <test_4>:
 bac:	7ffff0b7          	lui	ra,0x7ffff
 bb0:	4140d093          	srai	ra,ra,0x14
 bb4:	7ff00e93          	li	t4,2047
 bb8:	00400e13          	li	t3,4
 bbc:	03d09663          	bne	ra,t4,be8 <fail>

00000bc0 <test_5>:
 bc0:	800000b7          	lui	ra,0x80000
 bc4:	4140d093          	srai	ra,ra,0x14
 bc8:	80000e93          	li	t4,-2048
 bcc:	00500e13          	li	t3,5
 bd0:	01d09c63          	bne	ra,t4,be8 <fail>

00000bd4 <test_6>:
 bd4:	80000037          	lui	zero,0x80000
 bd8:	00000e93          	li	t4,0
 bdc:	00600e13          	li	t3,6
 be0:	01d01463          	bne	zero,t4,be8 <fail>
 be4:	03c01c63          	bne	zero,t3,c1c <pass>

00000be8 <fail>:
 be8:	d3dff0ef          	jal	ra,924 <failure>
 bec:	10000537          	lui	a0,0x10000
 bf0:	04500593          	li	a1,69
 bf4:	05200613          	li	a2,82
 bf8:	04f00693          	li	a3,79
 bfc:	00a00713          	li	a4,10
 c00:	00b52023          	sw	a1,0(a0) # 10000000 <nxt.0+0xffff174>
 c04:	00c52023          	sw	a2,0(a0)
 c08:	00c52023          	sw	a2,0(a0)
 c0c:	00d52023          	sw	a3,0(a0)
 c10:	00c52023          	sw	a2,0(a0)
 c14:	00e52023          	sw	a4,0(a0)
 c18:	00100073          	ebreak

00000c1c <pass>:
 c1c:	d15ff0ef          	jal	ra,930 <OK>
 c20:	da5ff06f          	j	9c4 <lui_ret>

00000c24 <jal>:
 c24:	00001537          	lui	a0,0x1
 c28:	c4450513          	addi	a0,a0,-956 # c44 <.test_name>

00000c2c <loop>:
 c2c:	e64ff0ef          	jal	ra,290 <putstr>

00000c30 <.prname_next>:
 c30:	00050583          	lb	a1,0(a0)
 c34:	00058a63          	beqz	a1,c48 <.prname_done>
 c38:	00b62023          	sw	a1,0(a2)
 c3c:	00150513          	addi	a0,a0,1
 c40:	ff1ff06f          	j	c30 <.prname_next>

00000c44 <.test_name>:
 c44:	616a                	flw	ft2,152(sp)
 c46:	006c                	addi	a1,sp,12

00000c48 <.prname_done>:
 c48:	02e00593          	li	a1,46
 c4c:	00b62023          	sw	a1,0(a2)
 c50:	00b62023          	sw	a1,0(a2)

00000c54 <test_2>:
 c54:	00200e13          	li	t3,2
 c58:	00000093          	li	ra,0

00000c5c <linkaddr_2>:
 c5c:	010000ef          	jal	ra,c6c <target_2>
 c60:	00000013          	nop
 c64:	00000013          	nop
 c68:	0440006f          	j	cac <fail>

00000c6c <target_2>:
 c6c:	00000117          	auipc	sp,0x0
 c70:	ff010113          	addi	sp,sp,-16 # c5c <linkaddr_2>
 c74:	00410113          	addi	sp,sp,4
 c78:	02111a63          	bne	sp,ra,cac <fail>

00000c7c <test_3>:
 c7c:	00100113          	li	sp,1
 c80:	014000ef          	jal	ra,c94 <test_3+0x18>
 c84:	00110113          	addi	sp,sp,1
 c88:	00110113          	addi	sp,sp,1
 c8c:	00110113          	addi	sp,sp,1
 c90:	00110113          	addi	sp,sp,1
 c94:	00110113          	addi	sp,sp,1
 c98:	00110113          	addi	sp,sp,1
 c9c:	00300e93          	li	t4,3
 ca0:	00300e13          	li	t3,3
 ca4:	01d11463          	bne	sp,t4,cac <fail>
 ca8:	03c01c63          	bne	zero,t3,ce0 <pass>

00000cac <fail>:
 cac:	c79ff0ef          	jal	ra,924 <failure>
 cb0:	10000537          	lui	a0,0x10000
 cb4:	04500593          	li	a1,69
 cb8:	05200613          	li	a2,82
 cbc:	04f00693          	li	a3,79
 cc0:	00a00713          	li	a4,10
 cc4:	00b52023          	sw	a1,0(a0) # 10000000 <nxt.0+0xffff174>
 cc8:	00c52023          	sw	a2,0(a0)
 ccc:	00c52023          	sw	a2,0(a0)
 cd0:	00d52023          	sw	a3,0(a0)
 cd4:	00c52023          	sw	a2,0(a0)
 cd8:	00e52023          	sw	a4,0(a0)
 cdc:	00100073          	ebreak

00000ce0 <pass>:
 ce0:	c51ff0ef          	jal	ra,930 <OK>
 ce4:	cf9ff06f          	j	9dc <jal_ret>

Disassembly of section .text.startup:

00000ce8 <main>:
 ce8:	fd010113          	addi	sp,sp,-48
 cec:	02812423          	sw	s0,40(sp)
 cf0:	80000437          	lui	s0,0x80000
 cf4:	02112623          	sw	ra,44(sp)
 cf8:	02912223          	sw	s1,36(sp)
 cfc:	03212023          	sw	s2,32(sp)
 d00:	00040493          	mv	s1,s0
 d04:	01312e23          	sw	s3,28(sp)
 d08:	0004c503          	lbu	a0,0(s1)
 d0c:	00040413          	mv	s0,s0
 d10:	0ff57513          	andi	a0,a0,255
 d14:	b84ff0ef          	jal	ra,98 <board_name>
 d18:	0004c603          	lbu	a2,0(s1)
 d1c:	00050593          	mv	a1,a0
 d20:	00001537          	lui	a0,0x1
 d24:	0ff67613          	andi	a2,a2,255
 d28:	10c50513          	addi	a0,a0,268 # 110c <nxt.0+0x280>
 d2c:	ec8ff0ef          	jal	ra,3f4 <printf>
 d30:	000015b7          	lui	a1,0x1
 d34:	00001537          	lui	a0,0x1
 d38:	12058593          	addi	a1,a1,288 # 1120 <nxt.0+0x294>
 d3c:	14050513          	addi	a0,a0,320 # 1140 <nxt.0+0x2b4>
 d40:	eb4ff0ef          	jal	ra,3f4 <printf>
 d44:	000017b7          	lui	a5,0x1
 d48:	0014c903          	lbu	s2,1(s1)
 d4c:	0024c483          	lbu	s1,2(s1)
 d50:	e887a683          	lw	a3,-376(a5) # e88 <threads>
 d54:	00100713          	li	a4,1
 d58:	0ff97913          	andi	s2,s2,255
 d5c:	0ff4f493          	andi	s1,s1,255
 d60:	00078993          	mv	s3,a5
 d64:	10d74463          	blt	a4,a3,e6c <main+0x184>
 d68:	00001737          	lui	a4,0x1
 d6c:	0fc70713          	addi	a4,a4,252 # 10fc <nxt.0+0x270>
 d70:	01000613          	li	a2,16
 d74:	01000593          	li	a1,16
 d78:	3e800513          	li	a0,1000
 d7c:	00e12623          	sw	a4,12(sp)
 d80:	941ff0ef          	jal	ra,6c0 <mac>
 d84:	4e800793          	li	a5,1256
 d88:	00c12703          	lw	a4,12(sp)
 d8c:	0ef50663          	beq	a0,a5,e78 <main+0x190>
 d90:	000017b7          	lui	a5,0x1
 d94:	0fc78793          	addi	a5,a5,252 # 10fc <nxt.0+0x270>
 d98:	000016b7          	lui	a3,0x1
 d9c:	00001537          	lui	a0,0x1
 da0:	16068693          	addi	a3,a3,352 # 1160 <nxt.0+0x2d4>
 da4:	00048613          	mv	a2,s1
 da8:	00090593          	mv	a1,s2
 dac:	16850513          	addi	a0,a0,360 # 1168 <nxt.0+0x2dc>
 db0:	e44ff0ef          	jal	ra,3f4 <printf>
 db4:	e809a423          	sw	zero,-376(s3)
 db8:	00645583          	lhu	a1,6(s0) # 80000006 <io+0x6>
 dbc:	00001537          	lui	a0,0x1
 dc0:	19050513          	addi	a0,a0,400 # 1190 <nxt.0+0x304>
 dc4:	01059593          	slli	a1,a1,0x10
 dc8:	0105d593          	srli	a1,a1,0x10
 dcc:	e28ff0ef          	jal	ra,3f4 <printf>
 dd0:	00144503          	lbu	a0,1(s0)
 dd4:	00244483          	lbu	s1,2(s0)
 dd8:	00c42903          	lw	s2,12(s0)
 ddc:	00c42603          	lw	a2,12(s0)
 de0:	000f45b7          	lui	a1,0xf4
 de4:	24058593          	addi	a1,a1,576 # f4240 <nxt.0+0xf33b4>
 de8:	0ff57513          	andi	a0,a0,255
 dec:	00c12623          	sw	a2,12(sp)
 df0:	90dff0ef          	jal	ra,6fc <__mulsi3>
 df4:	0ff4f493          	andi	s1,s1,255
 df8:	000025b7          	lui	a1,0x2
 dfc:	00050413          	mv	s0,a0
 e00:	71058593          	addi	a1,a1,1808 # 2710 <nxt.0+0x1884>
 e04:	00048513          	mv	a0,s1
 e08:	8f5ff0ef          	jal	ra,6fc <__mulsi3>
 e0c:	00190593          	addi	a1,s2,1
 e10:	00a40533          	add	a0,s0,a0
 e14:	98dff0ef          	jal	ra,7a0 <__udivsi3>
 e18:	00c12603          	lw	a2,12(sp)
 e1c:	00050593          	mv	a1,a0
 e20:	00001537          	lui	a0,0x1
 e24:	1ac50513          	addi	a0,a0,428 # 11ac <nxt.0+0x320>
 e28:	dccff0ef          	jal	ra,3f4 <printf>
 e2c:	00a00513          	li	a0,10
 e30:	b58ff0ef          	jal	ra,188 <putchar>
 e34:	00001537          	lui	a0,0x1
 e38:	1d850513          	addi	a0,a0,472 # 11d8 <nxt.0+0x34c>
 e3c:	c94ff0ef          	jal	ra,2d0 <puts>
 e40:	00a00513          	li	a0,10
 e44:	a01ff0ef          	jal	ra,844 <usleep>
 e48:	af9ff06f          	j	940 <start>
 e4c:	02c12083          	lw	ra,44(sp)
 e50:	02812403          	lw	s0,40(sp)
 e54:	02412483          	lw	s1,36(sp)
 e58:	02012903          	lw	s2,32(sp)
 e5c:	01c12983          	lw	s3,28(sp)
 e60:	00000513          	li	a0,0
 e64:	03010113          	addi	sp,sp,48
 e68:	00008067          	ret
 e6c:	00001737          	lui	a4,0x1
 e70:	10070713          	addi	a4,a4,256 # 1100 <nxt.0+0x274>
 e74:	efdff06f          	j	d70 <main+0x88>
 e78:	000017b7          	lui	a5,0x1
 e7c:	10478793          	addi	a5,a5,260 # 1104 <nxt.0+0x278>
 e80:	f19ff06f          	j	d98 <main+0xb0>
